(dp0
S'spelling'
p1
ccollections
OrderedDict
p2
((lp3
(lp4
S'misspelling'
p5
aS'0.7620851993560791'
p6
aa(lp7
S'spellings'
p8
aS'0.7531633973121643'
p9
aa(lp10
S'misspellings'
p11
aS'0.7465022206306458'
p12
aa(lp13
S'misspelled'
p14
aS'0.7417922019958496'
p15
aa(lp16
S'capitalization'
p17
aS'0.719494104385376'
p18
aa(lp19
S'misspelt'
p20
aS'0.7136405110359192'
p21
aa(lp22
S'spell'
p23
aS'0.7052534818649292'
p24
aa(lp25
S'pronunciation'
p26
aS'0.6817962527275085'
p27
aa(lp28
S'typos'
p29
aS'0.6785168051719666'
p30
aa(lp31
S'mispelled'
p32
aS'0.672502875328064'
p33
aatp34
Rp35
sS'READCOUNT'
p36
g2
((lp37
(lp38
S'dbfilemultiblock'
p39
aS'0.705964207649231'
p40
aa(lp41
S'writecount'
p42
aS'0.6987977027893066'
p43
aa(lp44
S'waitsemreadcount'
p45
aS'0.6234285235404968'
p46
aa(lp47
S'waitsemcount'
p48
aS'0.6142820715904236'
p49
aa(lp50
S'signalsemcount'
p51
aS'0.5931634306907654'
p52
aa(lp53
S'ifwritecount'
p54
aS'0.5922616720199585'
p55
aa(lp56
S'signalsemreadwrite'
p57
aS'0.5895216464996338'
p58
aa(lp59
S'waitsemreadwrite'
p60
aS'0.5874351263046265'
p61
aa(lp62
S'wstransferfile'
p63
aS'0.5871126651763916'
p64
aa(lp65
S'signalsemreadcount'
p66
aS'0.5647557973861694'
p67
aatp68
Rp69
sS'CALLEENAME'
p70
g2
((lp71
(lp72
S'foundcallee'
p73
aS'0.7471106052398682'
p74
aa(lp75
S'foundcaller'
p76
aS'0.6969598531723022'
p77
aa(lp78
S'leditpw'
p79
aS'0.6865421533584595'
p80
aa(lp81
S'messagesareaexistingmembers'
p82
aS'0.6573934555053711'
p83
aa(lp84
S'setrestaurantoppingtime'
p85
aS'0.654819667339325'
p86
aa(lp87
S'callercity'
p88
aS'0.6544566750526428'
p89
aa(lp90
S'institutionofstudy'
p91
aS'0.6532143354415894'
p92
aa(lp93
S'strloginrequest'
p94
aS'0.6530575752258301'
p95
aa(lp96
S'keysupportimage'
p97
aS'0.65304034948349'
p98
aa(lp99
S'getufname'
p100
aS'0.651252031326294'
p101
aatp102
Rp103
sS'CALLERNAME'
p104
g2
((lp105
(lp106
S'callerdate'
p107
aS'0.7259117364883423'
p108
aa(lp109
S'callerphone'
p110
aS'0.7088117599487305'
p111
aa(lp112
S'answeredcalltbl'
p113
aS'0.6556020379066467'
p114
aa(lp115
S'callernumber'
p116
aS'0.6544826626777649'
p117
aa(lp118
S'callerdetails'
p119
aS'0.6444812417030334'
p120
aa(lp121
S'callerid'
p122
aS'0.6393522024154663'
p123
aa(lp124
S'oidetails'
p125
aS'0.6096348166465759'
p126
aa(lp127
S'calldetailtbl'
p128
aS'0.5939988493919373'
p129
aa(lp130
S'calltype'
p131
aS'0.5918388366699219'
p132
aa(lp133
S'callingnumber'
p134
aS'0.5737912654876709'
p135
aatp136
Rp137
sS'RETVAL'
p138
g2
((lp139
(lp140
S'ret'
p141
aS'0.6458261013031006'
p142
aa(lp143
S'returnvalue'
p144
aS'0.6396875977516174'
p145
aa(lp146
S'returnval'
p147
aS'0.6322910189628601'
p148
aa(lp149
S'retvalue'
p150
aS'0.6303529143333435'
p151
aa(lp152
S'retvalfalse'
p153
aS'0.6224185228347778'
p154
aa(lp155
S'sizepushintstack'
p156
aS'0.6069273352622986'
p157
aa(lp158
S'vallists'
p159
aS'0.6039069890975952'
p160
aa(lp161
S'commdll'
p162
aS'0.5746223330497742'
p163
aa(lp164
S'printlnretval'
p165
aS'0.5688939094543457'
p166
aa(lp167
S'neighresp'
p168
aS'0.5677260756492615'
p169
aatp170
Rp171
sS'THREADID'
p172
g2
((lp173
(lp174
S'rlposts'
p175
aS'0.7181423902511597'
p176
aa(lp177
S'savedthreadids'
p178
aS'0.7004207372665405'
p179
aa(lp180
S'threadids'
p181
aS'0.6801875233650208'
p182
aa(lp183
S'viewdiscussionbean'
p184
aS'0.6785708665847778'
p185
aa(lp186
S'threaddate'
p187
aS'0.6573489904403687'
p188
aa(lp189
S'statusbarlist'
p190
aS'0.6524007320404053'
p191
aa(lp192
S'threadtext'
p193
aS'0.6483058929443359'
p194
aa(lp195
S'mcurrentthreadid'
p196
aS'0.6451172232627869'
p197
aa(lp198
S'getthreadid'
p199
aS'0.6403679251670837'
p200
aa(lp201
S'forumthreads'
p202
aS'0.6316015124320984'
p203
aatp204
Rp205
sS'line'
p206
g2
((lp207
(lp208
S'lines'
p209
aS'0.6535180807113647'
p210
aa(lp211
S'end'
p212
aS'0.5715131759643555'
p213
aa(lp214
S'segment'
p215
aS'0.5533106327056885'
p216
aa(lp217
S'first'
p218
aS'0.5519881844520569'
p219
aa(lp220
S'second'
p221
aS'0.5483246445655823'
p222
aa(lp223
S'last'
p224
aS'0.5472790002822876'
p225
aa(lp226
S'along'
p227
aS'0.536957859992981'
p228
aa(lp229
S'either'
p230
aS'0.5354844331741333'
p231
aa(lp232
S'next'
p233
aS'0.5272477269172668'
p234
aa(lp235
S'beginning'
p236
aS'0.5124439597129822'
p237
aatp238
Rp239
sS'SYNCS'
p240
g2
((lp241
(lp242
S'synced'
p243
aS'0.8023478984832764'
p244
aa(lp245
S'syncing'
p246
aS'0.7748386263847351'
p247
aa(lp248
S'sync'
p249
aS'0.751914918422699'
p250
aa(lp251
S'synched'
p252
aS'0.715360164642334'
p253
aa(lp254
S'synchronizes'
p255
aS'0.693368673324585'
p256
aa(lp257
S'synching'
p258
aS'0.6556963324546814'
p259
aa(lp260
S'synch'
p261
aS'0.6423528790473938'
p262
aa(lp263
S'synchronise'
p264
aS'0.575313925743103'
p265
aa(lp266
S'resync'
p267
aS'0.5722710490226746'
p268
aa(lp269
S'synchronises'
p270
aS'0.5602626204490662'
p271
aatp272
Rp273
sS'visibility'
p274
g2
((lp275
(lp276
S'visible'
p277
aS'0.7614721059799194'
p278
aa(lp279
S'visiblity'
p280
aS'0.7525426149368286'
p281
aa(lp282
S'visibilty'
p283
aS'0.6904296875'
p284
aa(lp285
S'invisible'
p286
aS'0.6851767301559448'
p287
aa(lp288
S'visbility'
p289
aS'0.6495885848999023'
p290
aa(lp291
S'hide'
p292
aS'0.6287897825241089'
p293
aa(lp294
S'dimentabscontentinset'
p295
aS'0.6247344017028809'
p296
aa(lp297
S'setvisibility'
p298
aS'0.6113581657409668'
p299
aa(lp300
S'visibile'
p301
aS'0.6081932783126831'
p302
aa(lp303
S'visibilities'
p304
aS'0.6057900190353394'
p305
aatp306
Rp307
sS'col'
p308
g2
((lp309
(lp310
S'getbrickright'
p311
aS'0.5806496143341064'
p312
aa(lp313
S'ballcolormethod'
p314
aS'0.5744273662567139'
p315
aa(lp316
S'endingcol'
p317
aS'0.5742590427398682'
p318
aa(lp319
S'rowcol'
p320
aS'0.5666617155075073'
p321
aa(lp322
S'namedosearch'
p323
aS'0.5609103441238403'
p324
aa(lp325
S'drapet'
p326
aS'0.5489248037338257'
p327
aa(lp328
S'coluniquetablevalues'
p329
aS'0.5485671162605286'
p330
aa(lp331
S'sendtocol'
p332
aS'0.5465309023857117'
p333
aa(lp334
S'matrixnumberofrowsnumberofcolumns'
p335
aS'0.5456141233444214'
p336
aa(lp337
S'getbrickleft'
p338
aS'0.5359418392181396'
p339
aatp340
Rp341
sS'isDef'
p342
g2
((lp343
(lp344
S'lookupg'
p345
aS'0.5389565229415894'
p346
aa(lp347
S'cachedanalyzer'
p348
aS'0.5210126638412476'
p349
aa(lp350
S'negdef'
p351
aS'0.491210401058197'
p352
aa(lp353
S'definesetter'
p354
aS'0.47644591331481934'
p355
aa(lp356
S'twentybitint'
p357
aS'0.47089847922325134'
p358
aa(lp359
S'defver'
p360
aS'0.46379369497299194'
p361
aa(lp362
S'resgraph'
p363
aS'0.46214479207992554'
p364
aa(lp365
S'iscdef'
p366
aS'0.4587016701698303'
p367
aa(lp368
S'timestogo'
p369
aS'0.4398632347583771'
p370
aa(lp371
S'oldoption'
p372
aS'0.4385671019554138'
p373
aatp374
Rp375
sS'isRef'
p376
g2
((lp377
(lp378
S'sosref'
p379
aS'0.6700555086135864'
p380
aa(lp381
S'gensisref'
p382
aS'0.6138074398040771'
p383
aa(lp384
S'getzvalrefcountinfo'
p385
aS'0.5509565472602844'
p386
aa(lp387
S'luaelement'
p388
aS'0.5377587676048279'
p389
aa(lp390
S'fbinarysecuritytoken'
p391
aS'0.5239245891571045'
p392
aa(lp393
S'isreferencetype'
p394
aS'0.5039079189300537'
p395
aa(lp396
S'ipayoffisref'
p397
aS'0.4990464448928833'
p398
aa(lp399
S'fsecuritycontexttoken'
p400
aS'0.4965956509113312'
p401
aa(lp402
S'propertytimetellid'
p403
aS'0.4884609580039978'
p404
aa(lp405
S'cpublicstringnamespace'
p406
aS'0.4855344295501709'
p407
aatp408
Rp409
sS'usr'
p410
g2
((lp411
(lp412
S'pfblockedusersuser'
p413
aS'0.6469296216964722'
p414
aa(lp415
S'pwd'
p416
aS'0.6349735856056213'
p417
aa(lp418
S'classidthree'
p419
aS'0.6291567087173462'
p420
aa(lp421
S'usernamepresentintable'
p422
aS'0.6213066577911377'
p423
aa(lp424
S'richardcramer'
p425
aS'0.617182731628418'
p426
aa(lp427
S'usrnode'
p428
aS'0.6136664152145386'
p429
aa(lp430
S'sharonj'
p431
aS'0.6121262907981873'
p432
aa(lp433
S'classidtwo'
p434
aS'0.6111419200897217'
p435
aa(lp436
S'tzmembers'
p437
aS'0.6054162979125977'
p438
aa(lp439
S'classidfour'
p440
aS'0.6001160144805908'
p441
aatp442
Rp443
sS'file'
p444
g2
((lp445
(lp446
S'files'
p447
aS'0.8701427578926086'
p448
aa(lp449
S'directory'
p450
aS'0.6633325815200806'
p451
aa(lp452
S'filesystem'
p453
aS'0.6206580400466919'
p454
aa(lp455
S'folder'
p456
aS'0.6102781295776367'
p457
aa(lp458
S'read'
p459
aS'0.5705774426460266'
p460
aa(lp461
S'directories'
p462
aS'0.567428469657898'
p463
aa(lp464
S'executable'
p465
aS'0.5473639965057373'
p466
aa(lp467
S'txt'
p468
aS'0.5343819856643677'
p469
aa(lp470
S'filesystems'
p471
aS'0.5340923070907593'
p472
aa(lp473
S'filename'
p474
aS'0.5337938070297241'
p475
aatp476
Rp477
sS'offset'
p478
g2
((lp479
(lp480
S'offsets'
p481
aS'0.8231759071350098'
p482
aa(lp483
S'offest'
p484
aS'0.6488202810287476'
p485
aa(lp486
S'offsetting'
p487
aS'0.6301107406616211'
p488
aa(lp489
S'drawstringwinmsg'
p490
aS'0.6173484325408936'
p491
aa(lp492
S'szmodver'
p493
aS'0.6052494645118713'
p494
aa(lp495
S'randomsps'
p496
aS'0.5987972021102905'
p497
aa(lp498
S'shortrandomsp'
p499
aS'0.5980328321456909'
p500
aa(lp501
S'printlnoffset'
p502
aS'0.5869358777999878'
p503
aa(lp504
S'lenstrresult'
p505
aS'0.5849084258079529'
p506
aa(lp507
S'retrievelookupitem'
p508
aS'0.5751558542251587'
p509
aatp510
Rp511
sS'WRITECOUNT'
p512
g2
((lp513
(lp514
S'readcount'
p515
aS'0.6987977027893066'
p516
aa(lp517
S'ifwritecount'
p518
aS'0.6798443794250488'
p519
aa(lp520
S'waitsemcount'
p521
aS'0.6793833374977112'
p522
aa(lp523
S'signalsemcount'
p524
aS'0.665757417678833'
p525
aa(lp526
S'signalsemreadwrite'
p527
aS'0.6511359214782715'
p528
aa(lp529
S'dbfilemultiblock'
p530
aS'0.6400010585784912'
p531
aa(lp532
S'waitsemreadwrite'
p533
aS'0.6397134065628052'
p534
aa(lp535
S'waitsemreadcount'
p536
aS'0.6395021080970764'
p537
aa(lp538
S'signalsemreadcount'
p539
aS'0.6146827340126038'
p540
aa(lp541
S'mutexr'
p542
aS'0.6059857606887817'
p543
aatp544
Rp545
sS'isDecl'
p546
g2
((lp547
(lp548
S'pbxcanvasmouseup'
p549
aS'0.5898946523666382'
p550
aa(lp551
S'isshownav'
p552
aS'0.5744521021842957'
p553
aa(lp554
S'isctrltab'
p555
aS'0.5667840242385864'
p556
aa(lp557
S'usewebworkers'
p558
aS'0.5662604570388794'
p559
aa(lp560
S'draggingfromgrid'
p561
aS'0.56400066614151'
p562
aa(lp563
S'istabledate'
p564
aS'0.5634918808937073'
p565
aa(lp566
S'requirecomma'
p567
aS'0.562522292137146'
p568
aa(lp569
S'removefromtable'
p570
aS'0.5614235997200012'
p571
aa(lp572
S'leftkeystatus'
p573
aS'0.5594450235366821'
p574
aa(lp575
S'setmovingright'
p576
aS'0.5589219331741333'
p577
aatp578
Rp579
sS'type'
p580
g2
((lp581
(lp582
S'types'
p583
aS'0.7399225831031799'
p584
aa(lp585
S'subtype'
p586
aS'0.6093538403511047'
p587
aa(lp588
S'generics'
p589
aS'0.5855200886726379'
p590
aa(lp591
S'datatypes'
p592
aS'0.5656290054321289'
p593
aa(lp594
S'generic'
p595
aS'0.5529562830924988'
p596
aa(lp597
S'subtypes'
p598
aS'0.5509136319160461'
p599
aa(lp600
S'compiletime'
p601
aS'0.5493668913841248'
p602
aa(lp603
S'polymorphism'
p604
aS'0.5470889210700989'
p605
aa(lp606
S'casting'
p607
aS'0.5440626740455627'
p608
aa(lp609
S'class'
p610
aS'0.5427157282829285'
p611
aatp612
Rp613
sS'id'
p614
g2
((lp615
(lp616
S'name'
p617
aS'0.7024323344230652'
p618
aa(lp619
S'gt'
p620
aS'0.6173986792564392'
p621
aa(lp622
S'div'
p623
aS'0.5967139005661011'
p624
aa(lp625
S'style'
p626
aS'0.5497477054595947'
p627
aa(lp628
S'value'
p629
aS'0.544045627117157'
p630
aa(lp631
S'span'
p632
aS'0.5346450805664062'
p633
aa(lp634
S'br'
p635
aS'0.5153520703315735'
p636
aa(lp637
S'tabindex'
p638
aS'0.4854225516319275'
p639
aa(lp640
S'divback'
p641
aS'0.4767399728298187'
p642
aa(lp643
S'src'
p644
aS'0.47210127115249634'
p645
aatp646
Rp647
sS'size'
p648
g2
((lp649
(lp650
S'sizes'
p651
aS'0.8429539203643799'
p652
aa(lp653
S'sized'
p654
aS'0.7076492309570312'
p655
aa(lp656
S'larger'
p657
aS'0.6991174221038818'
p658
aa(lp659
S'bigger'
p660
aS'0.6929440498352051'
p661
aa(lp662
S'smaller'
p663
aS'0.6864343881607056'
p664
aa(lp665
S'maximum'
p666
aS'0.6389878988265991'
p667
aa(lp668
S'length'
p669
aS'0.634617805480957'
p670
aa(lp671
S'number'
p672
aS'0.6294819116592407'
p673
aa(lp674
S'shrink'
p675
aS'0.6156232357025146'
p676
aa(lp677
S'small'
p678
aS'0.6110450029373169'
p679
aatp680
Rp681
s.