(dp0
crdflib.term
Literal
p1
(Vinherit.cpp
p2
NNtp3
Rp4
g1
(V21
p5
Ncrdflib.term
URIRef
p6
(Vhttp://www.w3.org/2001/XMLSchema#integer
p7
tp8
Rp9
tp10
Rp11
sg1
(Vfoo.cpp
p12
NNtp13
Rp14
g1
(V22
p15
Ng9
tp16
Rp17
sg1
(Vfoo.h
p18
NNtp19
Rp20
g1
(V64
p21
Ng9
tp22
Rp23
s.