(dp0
S''
p1
(dp2
sS'setDefaultTolerance'
p3
(dp4
crdflib.term
Literal
p5
(Vgmock-generated-internal-utils.h
p6
NNtp7
Rp8
g5
(V1
p9
Ncrdflib.term
URIRef
p10
(Vhttp://www.w3.org/2001/XMLSchema#integer
p11
tp12
Rp13
tp14
Rp15
sg5
(Vgmock-more-actions.h
p16
NNtp17
Rp18
g5
(g9
Ng13
tp19
Rp20
sg5
(Vstringutil.h
p21
NNtp22
Rp23
g5
(g9
Ng13
tp24
Rp25
sg5
(Vgmock-spec-builders.h
p26
NNtp27
Rp28
g5
(g9
Ng13
tp29
Rp30
sg5
(V
p31
NNtp32
Rp33
g5
(g9
Ng13
tp34
Rp35
sg5
(Vtextstream.h
p36
NNtp37
Rp38
g5
(g9
Ng13
tp39
Rp40
sg5
(Vgmock-generated-function-mockers.h
p41
NNtp42
Rp43
g5
(g9
Ng13
tp44
Rp45
sg5
(Vgmock-matchers.h
p46
NNtp47
Rp48
g5
(g9
Ng13
tp49
Rp50
sg5
(Vinteractivetest.cpp
p51
NNtp52
Rp53
g5
(g9
Ng13
tp54
Rp55
sg5
(Vgmxassert.h
p56
NNtp57
Rp58
g5
(g9
Ng13
tp59
Rp60
sg5
(Vbasic_string.h
p61
NNtp62
Rp63
g5
(g9
Ng13
tp64
Rp65
sg5
(Vgmock-actions.h
p66
NNtp67
Rp68
g5
(g9
Ng13
tp69
Rp70
sg5
(Vstdexcept
p71
NNtp72
Rp73
g5
(g9
Ng13
tp74
Rp75
sg5
(Varrayref.h
p76
NNtp77
Rp78
g5
(g9
Ng13
tp79
Rp80
sg5
(Vbasedefinitions.h
p81
NNtp82
Rp83
g5
(g9
Ng13
tp84
Rp85
sg5
(Vclasshelpers.h
p86
NNtp87
Rp88
g5
(g9
Ng13
tp89
Rp90
sg5
(Varray
p91
NNtp92
Rp93
g5
(g9
Ng13
tp94
Rp95
sg5
(Vstringtest.h
p96
NNtp97
Rp98
g5
(g9
Ng13
tp99
Rp100
sg5
(Vrefdata.h
p101
NNtp102
Rp103
g5
(g9
Ng13
tp104
Rp105
ssS'func'
p106
(dp107
g58
g5
(g9
Ng13
tp108
Rp109
ssS'text'
p110
(dp111
g38
g5
(g9
Ng13
tp112
Rp113
sg98
g5
(V2
p114
Ng13
tp115
Rp116
ssS'move'
p117
(dp118
g5
(Vmove.h
p119
NNtp120
Rp121
g5
(g9
Ng13
tp122
Rp123
sg8
g5
(g9
Ng13
tp124
Rp125
sg23
g5
(g9
Ng13
tp126
Rp127
sg28
g5
(g9
Ng13
tp128
Rp129
sg33
g5
(g9
Ng13
tp130
Rp131
sg38
g5
(g9
Ng13
tp132
Rp133
sg43
g5
(g9
Ng13
tp134
Rp135
sg48
g5
(g9
Ng13
tp136
Rp137
sg53
g5
(g114
Ng13
tp138
Rp139
sg58
g5
(g9
Ng13
tp140
Rp141
sg63
g5
(g9
Ng13
tp142
Rp143
sg68
g5
(g9
Ng13
tp144
Rp145
sg18
g5
(g9
Ng13
tp146
Rp147
sg73
g5
(g9
Ng13
tp148
Rp149
sg78
g5
(g9
Ng13
tp150
Rp151
sg83
g5
(g9
Ng13
tp152
Rp153
sg88
g5
(g9
Ng13
tp154
Rp155
sg93
g5
(g9
Ng13
tp156
Rp157
sg98
g5
(g9
Ng13
tp158
Rp159
sg103
g5
(g9
Ng13
tp160
Rp161
ssS'InteractiveTestHelper'
p162
(dp163
g5
(Vinteractivetest.h
p164
NNtp165
Rp166
g5
(g114
Ng13
tp167
Rp168
sg53
g5
(g114
Ng13
tp169
Rp170
ssS'KeyValueTreeValue'
p171
(dp172
g8
g5
(g9
Ng13
tp173
Rp174
sg18
g5
(g9
Ng13
tp175
Rp176
sg23
g5
(g9
Ng13
tp177
Rp178
sg28
g5
(g9
Ng13
tp179
Rp180
sg33
g5
(g9
Ng13
tp181
Rp182
sg38
g5
(g9
Ng13
tp183
Rp184
sg43
g5
(g9
Ng13
tp185
Rp186
sg48
g5
(g9
Ng13
tp187
Rp188
sg53
g5
(g9
Ng13
tp189
Rp190
sg58
g5
(g9
Ng13
tp191
Rp192
sg63
g5
(g9
Ng13
tp193
Rp194
sg68
g5
(g9
Ng13
tp195
Rp196
sg73
g5
(g9
Ng13
tp197
Rp198
sg78
g5
(g9
Ng13
tp199
Rp200
sg83
g5
(g9
Ng13
tp201
Rp202
sg88
g5
(g9
Ng13
tp203
Rp204
sg93
g5
(g9
Ng13
tp205
Rp206
sg98
g5
(g9
Ng13
tp207
Rp208
sg103
g5
(g9
Ng13
tp209
Rp210
ssS'rbegin'
p211
(dp212
g78
g5
(g9
Ng13
tp213
Rp214
ssS'prefix'
p215
(dp216
g23
g5
(g114
Ng13
tp217
Rp218
ssS'checkUnusedEntries'
p219
(dp220
g8
g5
(g9
Ng13
tp221
Rp222
sg18
g5
(g9
Ng13
tp223
Rp224
sg23
g5
(g9
Ng13
tp225
Rp226
sg28
g5
(g9
Ng13
tp227
Rp228
sg33
g5
(g9
Ng13
tp229
Rp230
sg38
g5
(g9
Ng13
tp231
Rp232
sg43
g5
(g9
Ng13
tp233
Rp234
sg48
g5
(g9
Ng13
tp235
Rp236
sg53
g5
(g9
Ng13
tp237
Rp238
sg58
g5
(g9
Ng13
tp239
Rp240
sg63
g5
(g9
Ng13
tp241
Rp242
sg68
g5
(g9
Ng13
tp243
Rp244
sg73
g5
(g9
Ng13
tp245
Rp246
sg78
g5
(g9
Ng13
tp247
Rp248
sg83
g5
(g9
Ng13
tp249
Rp250
sg88
g5
(g9
Ng13
tp251
Rp252
sg93
g5
(g9
Ng13
tp253
Rp254
sg98
g5
(g9
Ng13
tp255
Rp256
sg103
g5
(g9
Ng13
tp257
Rp258
ssS'checkUInt32'
p259
(dp260
g8
g5
(g9
Ng13
tp261
Rp262
sg18
g5
(g9
Ng13
tp263
Rp264
sg23
g5
(g9
Ng13
tp265
Rp266
sg28
g5
(g9
Ng13
tp267
Rp268
sg33
g5
(g9
Ng13
tp269
Rp270
sg38
g5
(g9
Ng13
tp271
Rp272
sg43
g5
(g9
Ng13
tp273
Rp274
sg48
g5
(g9
Ng13
tp275
Rp276
sg53
g5
(g9
Ng13
tp277
Rp278
sg58
g5
(g9
Ng13
tp279
Rp280
sg63
g5
(g9
Ng13
tp281
Rp282
sg68
g5
(g9
Ng13
tp283
Rp284
sg73
g5
(g9
Ng13
tp285
Rp286
sg78
g5
(g9
Ng13
tp287
Rp288
sg83
g5
(g9
Ng13
tp289
Rp290
sg88
g5
(g9
Ng13
tp291
Rp292
sg93
g5
(g9
Ng13
tp293
Rp294
sg98
g5
(g9
Ng13
tp295
Rp296
sg103
g5
(g9
Ng13
tp297
Rp298
ssS'suffix'
p299
(dp300
g23
g5
(V4
p301
Ng13
tp302
Rp303
ssS'find'
p304
(dp305
g8
g5
(g9
Ng13
tp306
Rp307
sg18
g5
(g9
Ng13
tp308
Rp309
sg23
g5
(g9
Ng13
tp310
Rp311
sg28
g5
(g9
Ng13
tp312
Rp313
sg33
g5
(g9
Ng13
tp314
Rp315
sg38
g5
(g9
Ng13
tp316
Rp317
sg43
g5
(g9
Ng13
tp318
Rp319
sg48
g5
(g9
Ng13
tp320
Rp321
sg53
g5
(g9
Ng13
tp322
Rp323
sg58
g5
(g9
Ng13
tp324
Rp325
sg63
g5
(g9
Ng13
tp326
Rp327
sg68
g5
(g9
Ng13
tp328
Rp329
sg73
g5
(g9
Ng13
tp330
Rp331
sg78
g5
(g9
Ng13
tp332
Rp333
sg83
g5
(g9
Ng13
tp334
Rp335
sg88
g5
(g9
Ng13
tp336
Rp337
sg93
g5
(g9
Ng13
tp338
Rp339
sg98
g5
(g9
Ng13
tp340
Rp341
sg103
g5
(g9
Ng13
tp342
Rp343
ssS'outputStream_'
p344
(dp345
g53
g5
(g9
Ng13
tp346
Rp347
ssS'gmock_readLine'
p348
(dp349
g53
g5
(g9
Ng13
tp350
Rp351
ssS'outputStream'
p352
(dp353
g166
g5
(g9
Ng13
tp354
Rp355
sg53
g5
(g9
Ng13
tp356
Rp357
ssS'stripSuffixIfPresent'
p358
(dp359
g8
g5
(g9
Ng13
tp360
Rp361
sg18
g5
(g9
Ng13
tp362
Rp363
sg23
g5
(g9
Ng13
tp364
Rp365
sg28
g5
(g9
Ng13
tp366
Rp367
sg33
g5
(g9
Ng13
tp368
Rp369
sg38
g5
(g9
Ng13
tp370
Rp371
sg43
g5
(g9
Ng13
tp372
Rp373
sg48
g5
(g9
Ng13
tp374
Rp375
sg53
g5
(g9
Ng13
tp376
Rp377
sg58
g5
(g9
Ng13
tp378
Rp379
sg63
g5
(g9
Ng13
tp380
Rp381
sg68
g5
(g9
Ng13
tp382
Rp383
sg73
g5
(g9
Ng13
tp384
Rp385
sg78
g5
(g9
Ng13
tp386
Rp387
sg83
g5
(g9
Ng13
tp388
Rp389
sg88
g5
(g9
Ng13
tp390
Rp391
sg93
g5
(g9
Ng13
tp392
Rp393
sg98
g5
(g9
Ng13
tp394
Rp395
sg103
g5
(g9
Ng13
tp396
Rp397
ssS'checkFloat'
p398
(dp399
g8
g5
(g9
Ng13
tp400
Rp401
sg18
g5
(g9
Ng13
tp402
Rp403
sg23
g5
(g9
Ng13
tp404
Rp405
sg28
g5
(g9
Ng13
tp406
Rp407
sg33
g5
(g9
Ng13
tp408
Rp409
sg38
g5
(g9
Ng13
tp410
Rp411
sg43
g5
(g9
Ng13
tp412
Rp413
sg48
g5
(g9
Ng13
tp414
Rp415
sg53
g5
(g9
Ng13
tp416
Rp417
sg58
g5
(g9
Ng13
tp418
Rp419
sg63
g5
(g9
Ng13
tp420
Rp421
sg68
g5
(g9
Ng13
tp422
Rp423
sg73
g5
(g9
Ng13
tp424
Rp425
sg78
g5
(g9
Ng13
tp426
Rp427
sg83
g5
(g9
Ng13
tp428
Rp429
sg88
g5
(g9
Ng13
tp430
Rp431
sg93
g5
(g9
Ng13
tp432
Rp433
sg98
g5
(g9
Ng13
tp434
Rp435
sg103
g5
(g9
Ng13
tp436
Rp437
ssS'checkAny'
p438
(dp439
g8
g5
(g9
Ng13
tp440
Rp441
sg18
g5
(g9
Ng13
tp442
Rp443
sg23
g5
(g9
Ng13
tp444
Rp445
sg28
g5
(g9
Ng13
tp446
Rp447
sg33
g5
(g9
Ng13
tp448
Rp449
sg38
g5
(g9
Ng13
tp450
Rp451
sg43
g5
(g9
Ng13
tp452
Rp453
sg48
g5
(g9
Ng13
tp454
Rp455
sg53
g5
(g9
Ng13
tp456
Rp457
sg58
g5
(g9
Ng13
tp458
Rp459
sg63
g5
(g9
Ng13
tp460
Rp461
sg68
g5
(g9
Ng13
tp462
Rp463
sg73
g5
(g9
Ng13
tp464
Rp465
sg78
g5
(g9
Ng13
tp466
Rp467
sg83
g5
(g9
Ng13
tp468
Rp469
sg88
g5
(g9
Ng13
tp470
Rp471
sg93
g5
(g9
Ng13
tp472
Rp473
sg98
g5
(g9
Ng13
tp474
Rp475
sg103
g5
(g9
Ng13
tp476
Rp477
ssS'to'
p478
(dp479
g23
g5
(g301
Ng13
tp480
Rp481
ssS'InternalExpectedAt'
p482
(dp483
g8
g5
(g9
Ng13
tp484
Rp485
sg18
g5
(g9
Ng13
tp486
Rp487
sg23
g5
(g9
Ng13
tp488
Rp489
sg28
g5
(g9
Ng13
tp490
Rp491
sg33
g5
(g9
Ng13
tp492
Rp493
sg38
g5
(g9
Ng13
tp494
Rp495
sg43
g5
(g9
Ng13
tp496
Rp497
sg48
g5
(g9
Ng13
tp498
Rp499
sg53
g5
(g9
Ng13
tp500
Rp501
sg58
g5
(g9
Ng13
tp502
Rp503
sg63
g5
(g9
Ng13
tp504
Rp505
sg68
g5
(g9
Ng13
tp506
Rp507
sg73
g5
(g9
Ng13
tp508
Rp509
sg78
g5
(g9
Ng13
tp510
Rp511
sg83
g5
(g9
Ng13
tp512
Rp513
sg88
g5
(g9
Ng13
tp514
Rp515
sg93
g5
(g9
Ng13
tp516
Rp517
sg98
g5
(g9
Ng13
tp518
Rp519
sg103
g5
(g9
Ng13
tp520
Rp521
ssS'checkInt64'
p522
(dp523
g8
g5
(g9
Ng13
tp524
Rp525
sg18
g5
(g9
Ng13
tp526
Rp527
sg23
g5
(g9
Ng13
tp528
Rp529
sg28
g5
(g9
Ng13
tp530
Rp531
sg33
g5
(g9
Ng13
tp532
Rp533
sg38
g5
(g9
Ng13
tp534
Rp535
sg43
g5
(g9
Ng13
tp536
Rp537
sg48
g5
(g9
Ng13
tp538
Rp539
sg53
g5
(g9
Ng13
tp540
Rp541
sg58
g5
(g9
Ng13
tp542
Rp543
sg63
g5
(g9
Ng13
tp544
Rp545
sg68
g5
(g9
Ng13
tp546
Rp547
sg73
g5
(g9
Ng13
tp548
Rp549
sg78
g5
(g9
Ng13
tp550
Rp551
sg83
g5
(g9
Ng13
tp552
Rp553
sg88
g5
(g9
Ng13
tp554
Rp555
sg93
g5
(g9
Ng13
tp556
Rp557
sg98
g5
(g9
Ng13
tp558
Rp559
sg103
g5
(g9
Ng13
tp560
Rp561
ssS'bLastNewline_'
p562
(dp563
g53
g5
(g9
Ng13
tp564
Rp565
ssS'swap'
p566
(dp567
g8
g5
(g9
Ng13
tp568
Rp569
sg18
g5
(g9
Ng13
tp570
Rp571
sg23
g5
(g9
Ng13
tp572
Rp573
sg28
g5
(g9
Ng13
tp574
Rp575
sg33
g5
(g9
Ng13
tp576
Rp577
sg38
g5
(g9
Ng13
tp578
Rp579
sg43
g5
(g9
Ng13
tp580
Rp581
sg48
g5
(g9
Ng13
tp582
Rp583
sg53
g5
(g9
Ng13
tp584
Rp585
sg58
g5
(g9
Ng13
tp586
Rp587
sg63
g5
(g9
Ng13
tp588
Rp589
sg68
g5
(g9
Ng13
tp590
Rp591
sg73
g5
(g9
Ng13
tp592
Rp593
sg78
g5
(V3
p594
Ng13
tp595
Rp596
sg83
g5
(g9
Ng13
tp597
Rp598
sg88
g5
(g9
Ng13
tp599
Rp600
sg93
g5
(g9
Ng13
tp601
Rp602
sg98
g5
(g9
Ng13
tp603
Rp604
sg103
g5
(g9
Ng13
tp605
Rp606
ssS'input'
p607
(dp608
g23
g5
(V9
p609
Ng13
tp610
Rp611
ssS'lineEnd'
p612
(dp613
g23
g5
(g9
Ng13
tp614
Rp615
ssS'replaceAllWords'
p616
(dp617
g8
g5
(g9
Ng13
tp618
Rp619
sg18
g5
(g9
Ng13
tp620
Rp621
sg23
g5
(g9
Ng13
tp622
Rp623
sg28
g5
(g9
Ng13
tp624
Rp625
sg33
g5
(g9
Ng13
tp626
Rp627
sg38
g5
(g9
Ng13
tp628
Rp629
sg43
g5
(g9
Ng13
tp630
Rp631
sg48
g5
(g9
Ng13
tp632
Rp633
sg53
g5
(g9
Ng13
tp634
Rp635
sg58
g5
(g9
Ng13
tp636
Rp637
sg63
g5
(g9
Ng13
tp638
Rp639
sg68
g5
(g9
Ng13
tp640
Rp641
sg73
g5
(g9
Ng13
tp642
Rp643
sg78
g5
(g9
Ng13
tp644
Rp645
sg83
g5
(g9
Ng13
tp646
Rp647
sg88
g5
(g9
Ng13
tp648
Rp649
sg93
g5
(g9
Ng13
tp650
Rp651
sg98
g5
(g9
Ng13
tp652
Rp653
sg103
g5
(g9
Ng13
tp654
Rp655
ssS'count'
p656
(dp657
g78
g5
(g114
Ng13
tp658
Rp659
sg23
g5
(g9
Ng13
tp660
Rp661
ssS'splitDelimitedString'
p662
(dp663
g8
g5
(g9
Ng13
tp664
Rp665
sg18
g5
(g9
Ng13
tp666
Rp667
sg23
g5
(g9
Ng13
tp668
Rp669
sg28
g5
(g9
Ng13
tp670
Rp671
sg33
g5
(g9
Ng13
tp672
Rp673
sg38
g5
(g9
Ng13
tp674
Rp675
sg43
g5
(g9
Ng13
tp676
Rp677
sg48
g5
(g9
Ng13
tp678
Rp679
sg53
g5
(g9
Ng13
tp680
Rp681
sg58
g5
(g9
Ng13
tp682
Rp683
sg63
g5
(g9
Ng13
tp684
Rp685
sg68
g5
(g9
Ng13
tp686
Rp687
sg73
g5
(g9
Ng13
tp688
Rp689
sg78
g5
(g9
Ng13
tp690
Rp691
sg83
g5
(g9
Ng13
tp692
Rp693
sg88
g5
(g9
Ng13
tp694
Rp695
sg93
g5
(g9
Ng13
tp696
Rp697
sg98
g5
(g9
Ng13
tp698
Rp699
sg103
g5
(g9
Ng13
tp700
Rp701
ssS'get'
p702
(dp703
g88
g5
(g9
Ng13
tp704
Rp705
ssS'checkValue'
p706
(dp707
g8
g5
(g9
Ng13
tp708
Rp709
sg18
g5
(g9
Ng13
tp710
Rp711
sg23
g5
(g9
Ng13
tp712
Rp713
sg28
g5
(g9
Ng13
tp714
Rp715
sg33
g5
(g9
Ng13
tp716
Rp717
sg38
g5
(g9
Ng13
tp718
Rp719
sg43
g5
(g9
Ng13
tp720
Rp721
sg48
g5
(g9
Ng13
tp722
Rp723
sg53
g5
(g9
Ng13
tp724
Rp725
sg58
g5
(g9
Ng13
tp726
Rp727
sg63
g5
(g9
Ng13
tp728
Rp729
sg68
g5
(g9
Ng13
tp730
Rp731
sg73
g5
(g9
Ng13
tp732
Rp733
sg78
g5
(g9
Ng13
tp734
Rp735
sg83
g5
(g9
Ng13
tp736
Rp737
sg88
g5
(g9
Ng13
tp738
Rp739
sg93
g5
(g9
Ng13
tp740
Rp741
sg98
g5
(g9
Ng13
tp742
Rp743
sg103
g5
(V13
p744
Ng13
tp745
Rp746
ssS'setIndent'
p747
(dp748
g23
g5
(g9
Ng13
tp749
Rp750
ssS'checkTextBlock'
p751
(dp752
g8
g5
(g9
Ng13
tp753
Rp754
sg18
g5
(g9
Ng13
tp755
Rp756
sg23
g5
(g9
Ng13
tp757
Rp758
sg28
g5
(g9
Ng13
tp759
Rp760
sg33
g5
(g9
Ng13
tp761
Rp762
sg38
g5
(g9
Ng13
tp763
Rp764
sg43
g5
(g9
Ng13
tp765
Rp766
sg48
g5
(g9
Ng13
tp767
Rp768
sg53
g5
(g9
Ng13
tp769
Rp770
sg58
g5
(g9
Ng13
tp771
Rp772
sg63
g5
(g9
Ng13
tp773
Rp774
sg68
g5
(g9
Ng13
tp775
Rp776
sg73
g5
(g9
Ng13
tp777
Rp778
sg78
g5
(g9
Ng13
tp779
Rp780
sg83
g5
(g9
Ng13
tp781
Rp782
sg88
g5
(g9
Ng13
tp783
Rp784
sg93
g5
(g9
Ng13
tp785
Rp786
sg98
g5
(g9
Ng13
tp787
Rp788
sg103
g5
(g9
Ng13
tp789
Rp790
ssS'operator=='
p791
(dp792
g88
g5
(g9
Ng13
tp793
Rp794
ssS'TestReferenceData'
p795
(dp796
g8
g5
(g9
Ng13
tp797
Rp798
sg18
g5
(g9
Ng13
tp799
Rp800
sg23
g5
(g9
Ng13
tp801
Rp802
sg28
g5
(g9
Ng13
tp803
Rp804
sg33
g5
(g9
Ng13
tp805
Rp806
sg38
g5
(g9
Ng13
tp807
Rp808
sg43
g5
(g9
Ng13
tp809
Rp810
sg48
g5
(g9
Ng13
tp811
Rp812
sg53
g5
(g9
Ng13
tp813
Rp814
sg58
g5
(g9
Ng13
tp815
Rp816
sg63
g5
(g9
Ng13
tp817
Rp818
sg68
g5
(g9
Ng13
tp819
Rp820
sg73
g5
(g9
Ng13
tp821
Rp822
sg78
g5
(g9
Ng13
tp823
Rp824
sg83
g5
(g9
Ng13
tp825
Rp826
sg88
g5
(g9
Ng13
tp827
Rp828
sg93
g5
(g9
Ng13
tp829
Rp830
sg98
g5
(g9
Ng13
tp831
Rp832
sg103
g5
(g114
Ng13
tp833
Rp834
ssS'replaceAll'
p835
(dp836
g8
g5
(g9
Ng13
tp837
Rp838
sg18
g5
(g9
Ng13
tp839
Rp840
sg23
g5
(g9
Ng13
tp841
Rp842
sg28
g5
(g9
Ng13
tp843
Rp844
sg33
g5
(g9
Ng13
tp845
Rp846
sg38
g5
(g9
Ng13
tp847
Rp848
sg43
g5
(g9
Ng13
tp849
Rp850
sg48
g5
(g9
Ng13
tp851
Rp852
sg53
g5
(g9
Ng13
tp853
Rp854
sg58
g5
(g9
Ng13
tp855
Rp856
sg63
g5
(g9
Ng13
tp857
Rp858
sg68
g5
(g9
Ng13
tp859
Rp860
sg73
g5
(g9
Ng13
tp861
Rp862
sg78
g5
(g9
Ng13
tp863
Rp864
sg83
g5
(g9
Ng13
tp865
Rp866
sg88
g5
(g9
Ng13
tp867
Rp868
sg93
g5
(g9
Ng13
tp869
Rp870
sg98
g5
(g9
Ng13
tp871
Rp872
sg103
g5
(g9
Ng13
tp873
Rp874
ssS'initReferenceData'
p875
(dp876
g8
g5
(g9
Ng13
tp877
Rp878
sg18
g5
(g9
Ng13
tp879
Rp880
sg23
g5
(g9
Ng13
tp881
Rp882
sg28
g5
(g9
Ng13
tp883
Rp884
sg33
g5
(g9
Ng13
tp885
Rp886
sg38
g5
(g9
Ng13
tp887
Rp888
sg43
g5
(g9
Ng13
tp889
Rp890
sg48
g5
(g9
Ng13
tp891
Rp892
sg53
g5
(g9
Ng13
tp893
Rp894
sg58
g5
(g9
Ng13
tp895
Rp896
sg63
g5
(g9
Ng13
tp897
Rp898
sg68
g5
(g9
Ng13
tp899
Rp900
sg73
g5
(g9
Ng13
tp901
Rp902
sg78
g5
(g9
Ng13
tp903
Rp904
sg83
g5
(g9
Ng13
tp905
Rp906
sg88
g5
(g9
Ng13
tp907
Rp908
sg93
g5
(g9
Ng13
tp909
Rp910
sg98
g5
(g9
Ng13
tp911
Rp912
sg103
g5
(g9
Ng13
tp913
Rp914
ssS'checkKeyValueTreeObject'
p915
(dp916
g8
g5
(g9
Ng13
tp917
Rp918
sg18
g5
(g9
Ng13
tp919
Rp920
sg23
g5
(g9
Ng13
tp921
Rp922
sg28
g5
(g9
Ng13
tp923
Rp924
sg33
g5
(g9
Ng13
tp925
Rp926
sg38
g5
(g9
Ng13
tp927
Rp928
sg43
g5
(g9
Ng13
tp929
Rp930
sg48
g5
(g9
Ng13
tp931
Rp932
sg53
g5
(g9
Ng13
tp933
Rp934
sg58
g5
(g9
Ng13
tp935
Rp936
sg63
g5
(g9
Ng13
tp937
Rp938
sg68
g5
(g9
Ng13
tp939
Rp940
sg73
g5
(g9
Ng13
tp941
Rp942
sg78
g5
(g9
Ng13
tp943
Rp944
sg83
g5
(g9
Ng13
tp945
Rp946
sg88
g5
(g9
Ng13
tp947
Rp948
sg93
g5
(g9
Ng13
tp949
Rp950
sg98
g5
(g9
Ng13
tp951
Rp952
sg103
g5
(g9
Ng13
tp953
Rp954
ssS'compound'
p955
(dp956
g103
g5
(g114
Ng13
tp957
Rp958
ssS'front'
p959
(dp960
g78
g5
(g9
Ng13
tp961
Rp962
ssS'readString'
p963
(dp964
g8
g5
(g9
Ng13
tp965
Rp966
sg18
g5
(g9
Ng13
tp967
Rp968
sg23
g5
(g9
Ng13
tp969
Rp970
sg28
g5
(g9
Ng13
tp971
Rp972
sg33
g5
(g9
Ng13
tp973
Rp974
sg38
g5
(g9
Ng13
tp975
Rp976
sg43
g5
(g9
Ng13
tp977
Rp978
sg48
g5
(g9
Ng13
tp979
Rp980
sg53
g5
(g9
Ng13
tp981
Rp982
sg58
g5
(g9
Ng13
tp983
Rp984
sg63
g5
(g9
Ng13
tp985
Rp986
sg68
g5
(g9
Ng13
tp987
Rp988
sg73
g5
(g9
Ng13
tp989
Rp990
sg78
g5
(g9
Ng13
tp991
Rp992
sg83
g5
(g9
Ng13
tp993
Rp994
sg88
g5
(g9
Ng13
tp995
Rp996
sg93
g5
(g9
Ng13
tp997
Rp998
sg98
g5
(g9
Ng13
tp999
Rp1000
sg103
g5
(g9
Ng13
tp1001
Rp1002
ssS'condition'
p1003
(dp1004
g58
g5
(g9
Ng13
tp1005
Rp1006
ssS'setLastNewline'
p1007
(dp1008
g166
g5
(g9
Ng13
tp1009
Rp1010
sg53
g5
(g9
Ng13
tp1011
Rp1012
ssS'TextLineWrapper'
p1013
(dp1014
g23
g5
(g594
Ng13
tp1015
Rp1016
ssS'settings'
p1017
(dp1018
g23
g5
(g114
Ng13
tp1019
Rp1020
ssS'testFilename'
p1021
(dp1022
g98
g5
(g9
Ng13
tp1023
Rp1024
ssS't'
p1025
(dp1026
g83
g5
(g9
Ng13
tp1027
Rp1028
ssS'TextLineWrapperSettings'
p1029
(dp1030
g8
g5
(g9
Ng13
tp1031
Rp1032
sg18
g5
(g9
Ng13
tp1033
Rp1034
sg23
g5
(g594
Ng13
tp1035
Rp1036
sg28
g5
(g9
Ng13
tp1037
Rp1038
sg33
g5
(g9
Ng13
tp1039
Rp1040
sg38
g5
(g9
Ng13
tp1041
Rp1042
sg43
g5
(g9
Ng13
tp1043
Rp1044
sg48
g5
(g9
Ng13
tp1045
Rp1046
sg53
g5
(g9
Ng13
tp1047
Rp1048
sg58
g5
(g9
Ng13
tp1049
Rp1050
sg63
g5
(g9
Ng13
tp1051
Rp1052
sg68
g5
(g9
Ng13
tp1053
Rp1054
sg73
g5
(g9
Ng13
tp1055
Rp1056
sg78
g5
(g9
Ng13
tp1057
Rp1058
sg83
g5
(g9
Ng13
tp1059
Rp1060
sg88
g5
(g9
Ng13
tp1061
Rp1062
sg93
g5
(g9
Ng13
tp1063
Rp1064
sg98
g5
(g9
Ng13
tp1065
Rp1066
sg103
g5
(g9
Ng13
tp1067
Rp1068
ssS'checkCompound'
p1069
(dp1070
g8
g5
(g9
Ng13
tp1071
Rp1072
sg18
g5
(g9
Ng13
tp1073
Rp1074
sg23
g5
(g9
Ng13
tp1075
Rp1076
sg28
g5
(g9
Ng13
tp1077
Rp1078
sg33
g5
(g9
Ng13
tp1079
Rp1080
sg38
g5
(g9
Ng13
tp1081
Rp1082
sg43
g5
(g9
Ng13
tp1083
Rp1084
sg48
g5
(g9
Ng13
tp1085
Rp1086
sg53
g5
(g9
Ng13
tp1087
Rp1088
sg58
g5
(g9
Ng13
tp1089
Rp1090
sg63
g5
(g9
Ng13
tp1091
Rp1092
sg68
g5
(g9
Ng13
tp1093
Rp1094
sg73
g5
(g9
Ng13
tp1095
Rp1096
sg78
g5
(g9
Ng13
tp1097
Rp1098
sg83
g5
(g9
Ng13
tp1099
Rp1100
sg88
g5
(g9
Ng13
tp1101
Rp1102
sg93
g5
(g9
Ng13
tp1103
Rp1104
sg98
g5
(g9
Ng13
tp1105
Rp1106
sg103
g5
(g9
Ng13
tp1107
Rp1108
ssS'bKeep'
p1109
(dp1110
g23
g5
(g9
Ng13
tp1111
Rp1112
ssS'IOptionsContainer'
p1113
(dp1114
g8
g5
(g9
Ng13
tp1115
Rp1116
sg18
g5
(g9
Ng13
tp1117
Rp1118
sg23
g5
(g9
Ng13
tp1119
Rp1120
sg28
g5
(g9
Ng13
tp1121
Rp1122
sg33
g5
(g9
Ng13
tp1123
Rp1124
sg38
g5
(g9
Ng13
tp1125
Rp1126
sg43
g5
(g9
Ng13
tp1127
Rp1128
sg48
g5
(g9
Ng13
tp1129
Rp1130
sg53
g5
(g9
Ng13
tp1131
Rp1132
sg58
g5
(g9
Ng13
tp1133
Rp1134
sg63
g5
(g9
Ng13
tp1135
Rp1136
sg68
g5
(g9
Ng13
tp1137
Rp1138
sg73
g5
(g9
Ng13
tp1139
Rp1140
sg78
g5
(g9
Ng13
tp1141
Rp1142
sg83
g5
(g9
Ng13
tp1143
Rp1144
sg88
g5
(g9
Ng13
tp1145
Rp1146
sg93
g5
(g9
Ng13
tp1147
Rp1148
sg98
g5
(g9
Ng13
tp1149
Rp1150
sg103
g5
(g9
Ng13
tp1151
Rp1152
ssS'strncmp'
p1153
(dp1154
g23
g5
(g9
Ng13
tp1155
Rp1156
sg5
(Vstring.h
p1157
NNtp1158
Rp1159
g5
(g9
Ng13
tp1160
Rp1161
ssS'maxLengthOfComparison'
p1162
(dp1163
g23
g5
(g9
Ng13
tp1164
Rp1165
ssS'checkInt32'
p1166
(dp1167
g8
g5
(g9
Ng13
tp1168
Rp1169
sg18
g5
(g9
Ng13
tp1170
Rp1171
sg23
g5
(g9
Ng13
tp1172
Rp1173
sg28
g5
(g9
Ng13
tp1174
Rp1175
sg33
g5
(g9
Ng13
tp1176
Rp1177
sg38
g5
(g9
Ng13
tp1178
Rp1179
sg43
g5
(g9
Ng13
tp1180
Rp1181
sg48
g5
(g9
Ng13
tp1182
Rp1183
sg53
g5
(g9
Ng13
tp1184
Rp1185
sg58
g5
(g9
Ng13
tp1186
Rp1187
sg63
g5
(g9
Ng13
tp1188
Rp1189
sg68
g5
(g9
Ng13
tp1190
Rp1191
sg73
g5
(g9
Ng13
tp1192
Rp1193
sg78
g5
(g9
Ng13
tp1194
Rp1195
sg83
g5
(g9
Ng13
tp1196
Rp1197
sg88
g5
(g9
Ng13
tp1198
Rp1199
sg93
g5
(g9
Ng13
tp1200
Rp1201
sg98
g5
(g9
Ng13
tp1202
Rp1203
sg103
g5
(g9
Ng13
tp1204
Rp1205
ssS'checker_'
p1206
(dp1207
g53
g5
(g9
Ng13
tp1208
Rp1209
ssS'formatLine'
p1210
(dp1211
g8
g5
(g9
Ng13
tp1212
Rp1213
sg18
g5
(g9
Ng13
tp1214
Rp1215
sg23
g5
(g9
Ng13
tp1216
Rp1217
sg28
g5
(g9
Ng13
tp1218
Rp1219
sg33
g5
(g9
Ng13
tp1220
Rp1221
sg38
g5
(g9
Ng13
tp1222
Rp1223
sg43
g5
(g9
Ng13
tp1224
Rp1225
sg48
g5
(g9
Ng13
tp1226
Rp1227
sg53
g5
(g9
Ng13
tp1228
Rp1229
sg58
g5
(g9
Ng13
tp1230
Rp1231
sg63
g5
(g9
Ng13
tp1232
Rp1233
sg68
g5
(g9
Ng13
tp1234
Rp1235
sg73
g5
(g9
Ng13
tp1236
Rp1237
sg78
g5
(g9
Ng13
tp1238
Rp1239
sg83
g5
(g9
Ng13
tp1240
Rp1241
sg88
g5
(g9
Ng13
tp1242
Rp1243
sg93
g5
(g9
Ng13
tp1244
Rp1245
sg98
g5
(g9
Ng13
tp1246
Rp1247
sg103
g5
(g9
Ng13
tp1248
Rp1249
ssS'countWords'
p1250
(dp1251
g8
g5
(g9
Ng13
tp1252
Rp1253
sg18
g5
(g9
Ng13
tp1254
Rp1255
sg23
g5
(g9
Ng13
tp1256
Rp1257
sg28
g5
(g9
Ng13
tp1258
Rp1259
sg33
g5
(g9
Ng13
tp1260
Rp1261
sg38
g5
(g9
Ng13
tp1262
Rp1263
sg43
g5
(g9
Ng13
tp1264
Rp1265
sg48
g5
(g9
Ng13
tp1266
Rp1267
sg53
g5
(g9
Ng13
tp1268
Rp1269
sg58
g5
(g9
Ng13
tp1270
Rp1271
sg63
g5
(g9
Ng13
tp1272
Rp1273
sg68
g5
(g9
Ng13
tp1274
Rp1275
sg73
g5
(g9
Ng13
tp1276
Rp1277
sg78
g5
(g9
Ng13
tp1278
Rp1279
sg83
g5
(g9
Ng13
tp1280
Rp1281
sg88
g5
(g9
Ng13
tp1282
Rp1283
sg93
g5
(g9
Ng13
tp1284
Rp1285
sg98
g5
(g9
Ng13
tp1286
Rp1287
sg103
g5
(g9
Ng13
tp1288
Rp1289
ssS'checkOutput'
p1290
(dp1291
g53
g5
(g9
Ng13
tp1292
Rp1293
ssS'testFilesEqual'
p1294
(dp1295
g8
g5
(g9
Ng13
tp1296
Rp1297
sg18
g5
(g9
Ng13
tp1298
Rp1299
sg23
g5
(g9
Ng13
tp1300
Rp1301
sg28
g5
(g9
Ng13
tp1302
Rp1303
sg33
g5
(g9
Ng13
tp1304
Rp1305
sg38
g5
(g9
Ng13
tp1306
Rp1307
sg43
g5
(g9
Ng13
tp1308
Rp1309
sg48
g5
(g9
Ng13
tp1310
Rp1311
sg53
g5
(g9
Ng13
tp1312
Rp1313
sg58
g5
(g9
Ng13
tp1314
Rp1315
sg63
g5
(g9
Ng13
tp1316
Rp1317
sg68
g5
(g9
Ng13
tp1318
Rp1319
sg73
g5
(g9
Ng13
tp1320
Rp1321
sg78
g5
(g9
Ng13
tp1322
Rp1323
sg83
g5
(g9
Ng13
tp1324
Rp1325
sg88
g5
(g9
Ng13
tp1326
Rp1327
sg93
g5
(g9
Ng13
tp1328
Rp1329
sg98
g5
(g9
Ng13
tp1330
Rp1331
sg103
g5
(g9
Ng13
tp1332
Rp1333
ssS'Test'
p1334
(dp1335
g5
(Vgtest.h
p1336
NNtp1337
Rp1338
g5
(g9
Ng13
tp1339
Rp1340
sg98
g5
(g9
Ng13
tp1341
Rp1342
ssS'PrivateImplPointer'
p1343
(dp1344
g8
g5
(g9
Ng13
tp1345
Rp1346
sg18
g5
(g9
Ng13
tp1347
Rp1348
sg23
g5
(g9
Ng13
tp1349
Rp1350
sg28
g5
(g9
Ng13
tp1351
Rp1352
sg33
g5
(g9
Ng13
tp1353
Rp1354
sg38
g5
(g9
Ng13
tp1355
Rp1356
sg43
g5
(g9
Ng13
tp1357
Rp1358
sg48
g5
(g9
Ng13
tp1359
Rp1360
sg166
g5
(g9
Ng13
tp1361
Rp1362
sg53
g5
(g9
Ng13
tp1363
Rp1364
sg58
g5
(g9
Ng13
tp1365
Rp1366
sg63
g5
(g9
Ng13
tp1367
Rp1368
sg68
g5
(g9
Ng13
tp1369
Rp1370
sg73
g5
(g9
Ng13
tp1371
Rp1372
sg78
g5
(g9
Ng13
tp1373
Rp1374
sg83
g5
(g9
Ng13
tp1375
Rp1376
sg88
g5
(g594
Ng13
tp1377
Rp1378
sg93
g5
(g9
Ng13
tp1379
Rp1380
sg98
g5
(g114
Ng13
tp1381
Rp1382
sg103
g5
(g114
Ng13
tp1383
Rp1384
ssS'result'
p1385
(dp1386
g23
g5
(g9
Ng13
tp1387
Rp1388
ssS'checkVector'
p1389
(dp1390
g8
g5
(g9
Ng13
tp1391
Rp1392
sg18
g5
(g9
Ng13
tp1393
Rp1394
sg23
g5
(g9
Ng13
tp1395
Rp1396
sg28
g5
(g9
Ng13
tp1397
Rp1398
sg33
g5
(g9
Ng13
tp1399
Rp1400
sg38
g5
(g9
Ng13
tp1401
Rp1402
sg43
g5
(g9
Ng13
tp1403
Rp1404
sg48
g5
(g9
Ng13
tp1405
Rp1406
sg53
g5
(g9
Ng13
tp1407
Rp1408
sg58
g5
(g9
Ng13
tp1409
Rp1410
sg63
g5
(g9
Ng13
tp1411
Rp1412
sg68
g5
(g9
Ng13
tp1413
Rp1414
sg73
g5
(g9
Ng13
tp1415
Rp1416
sg78
g5
(g9
Ng13
tp1417
Rp1418
sg83
g5
(g9
Ng13
tp1419
Rp1420
sg88
g5
(g9
Ng13
tp1421
Rp1422
sg93
g5
(g9
Ng13
tp1423
Rp1424
sg98
g5
(g9
Ng13
tp1425
Rp1426
sg103
g5
(g9
Ng13
tp1427
Rp1428
ssS'id'
p1429
(dp1430
g53
g5
(g114
Ng13
tp1431
Rp1432
sg98
g5
(g594
Ng13
tp1433
Rp1434
sg103
g5
(V48
p1435
Ng13
tp1436
Rp1437
ssS'close'
p1438
(dp1439
g8
g5
(g9
Ng13
tp1440
Rp1441
sg18
g5
(g9
Ng13
tp1442
Rp1443
sg23
g5
(g9
Ng13
tp1444
Rp1445
sg28
g5
(g9
Ng13
tp1446
Rp1447
sg33
g5
(g9
Ng13
tp1448
Rp1449
sg38
g5
(g9
Ng13
tp1450
Rp1451
sg43
g5
(g9
Ng13
tp1452
Rp1453
sg48
g5
(g9
Ng13
tp1454
Rp1455
sg53
g5
(g594
Ng13
tp1456
Rp1457
sg58
g5
(g9
Ng13
tp1458
Rp1459
sg63
g5
(g9
Ng13
tp1460
Rp1461
sg68
g5
(g9
Ng13
tp1462
Rp1463
sg73
g5
(g9
Ng13
tp1464
Rp1465
sg78
g5
(g9
Ng13
tp1466
Rp1467
sg83
g5
(g9
Ng13
tp1468
Rp1469
sg88
g5
(g9
Ng13
tp1470
Rp1471
sg93
g5
(g9
Ng13
tp1472
Rp1473
sg98
g5
(g9
Ng13
tp1474
Rp1475
sg103
g5
(g9
Ng13
tp1476
Rp1477
ssS'n'
p1478
(dp1479
g78
g5
(g114
Ng13
tp1480
Rp1481
ssS'inputLines_'
p1482
(dp1483
g53
g5
(g9
Ng13
tp1484
Rp1485
ssS'append'
p1486
(dp1487
g8
g5
(g9
Ng13
tp1488
Rp1489
sg18
g5
(g9
Ng13
tp1490
Rp1491
sg23
g5
(g9
Ng13
tp1492
Rp1493
sg28
g5
(g9
Ng13
tp1494
Rp1495
sg33
g5
(g9
Ng13
tp1496
Rp1497
sg38
g5
(g9
Ng13
tp1498
Rp1499
sg43
g5
(g9
Ng13
tp1500
Rp1501
sg48
g5
(g9
Ng13
tp1502
Rp1503
sg53
g5
(g9
Ng13
tp1504
Rp1505
sg58
g5
(g9
Ng13
tp1506
Rp1507
sg63
g5
(g9
Ng13
tp1508
Rp1509
sg68
g5
(g9
Ng13
tp1510
Rp1511
sg73
g5
(g9
Ng13
tp1512
Rp1513
sg78
g5
(g9
Ng13
tp1514
Rp1515
sg83
g5
(g9
Ng13
tp1516
Rp1517
sg88
g5
(g9
Ng13
tp1518
Rp1519
sg93
g5
(g9
Ng13
tp1520
Rp1521
sg98
g5
(g9
Ng13
tp1522
Rp1523
sg103
g5
(g9
Ng13
tp1524
Rp1525
ssS'lineLength'
p1526
(dp1527
g23
g5
(g9
Ng13
tp1528
Rp1529
ssS'startsWith'
p1530
(dp1531
g23
g5
(g114
Ng13
tp1532
Rp1533
ssS'operator->'
p1534
(dp1535
g8
g5
(g9
Ng13
tp1536
Rp1537
sg18
g5
(g9
Ng13
tp1538
Rp1539
sg23
g5
(g9
Ng13
tp1540
Rp1541
sg28
g5
(g9
Ng13
tp1542
Rp1543
sg33
g5
(g9
Ng13
tp1544
Rp1545
sg38
g5
(g9
Ng13
tp1546
Rp1547
sg43
g5
(g9
Ng13
tp1548
Rp1549
sg48
g5
(g9
Ng13
tp1550
Rp1551
sg53
g5
(g9
Ng13
tp1552
Rp1553
sg58
g5
(g9
Ng13
tp1554
Rp1555
sg63
g5
(g9
Ng13
tp1556
Rp1557
sg68
g5
(g9
Ng13
tp1558
Rp1559
sg73
g5
(g9
Ng13
tp1560
Rp1561
sg78
g5
(g9
Ng13
tp1562
Rp1563
sg83
g5
(g9
Ng13
tp1564
Rp1565
sg88
g5
(g594
Ng13
tp1566
Rp1567
sg93
g5
(g9
Ng13
tp1568
Rp1569
sg98
g5
(g9
Ng13
tp1570
Rp1571
sg103
g5
(g9
Ng13
tp1572
Rp1573
ssS'capacity'
p1574
(dp1575
g78
g5
(g9
Ng13
tp1576
Rp1577
ssS'refFilename'
p1578
(dp1579
g98
g5
(g9
Ng13
tp1580
Rp1581
ssS'continuationChar'
p1582
(dp1583
g23
g5
(g9
Ng13
tp1584
Rp1585
ssS'SetOwnerAndName'
p1586
(dp1587
g8
g5
(g9
Ng13
tp1588
Rp1589
sg18
g5
(g9
Ng13
tp1590
Rp1591
sg23
g5
(g9
Ng13
tp1592
Rp1593
sg28
g5
(g9
Ng13
tp1594
Rp1595
sg33
g5
(g9
Ng13
tp1596
Rp1597
sg38
g5
(g9
Ng13
tp1598
Rp1599
sg43
g5
(g9
Ng13
tp1600
Rp1601
sg48
g5
(g9
Ng13
tp1602
Rp1603
sg53
g5
(g9
Ng13
tp1604
Rp1605
sg58
g5
(g9
Ng13
tp1606
Rp1607
sg63
g5
(g9
Ng13
tp1608
Rp1609
sg68
g5
(g9
Ng13
tp1610
Rp1611
sg73
g5
(g9
Ng13
tp1612
Rp1613
sg78
g5
(g9
Ng13
tp1614
Rp1615
sg83
g5
(g9
Ng13
tp1616
Rp1617
sg88
g5
(g9
Ng13
tp1618
Rp1619
sg93
g5
(g9
Ng13
tp1620
Rp1621
sg98
g5
(g9
Ng13
tp1622
Rp1623
sg103
g5
(g9
Ng13
tp1624
Rp1625
ssS'filename'
p1626
(dp1627
g98
g5
(g9
Ng13
tp1628
Rp1629
ssS'readInteger'
p1630
(dp1631
g8
g5
(g9
Ng13
tp1632
Rp1633
sg18
g5
(g9
Ng13
tp1634
Rp1635
sg23
g5
(g9
Ng13
tp1636
Rp1637
sg28
g5
(g9
Ng13
tp1638
Rp1639
sg33
g5
(g9
Ng13
tp1640
Rp1641
sg38
g5
(g9
Ng13
tp1642
Rp1643
sg43
g5
(g9
Ng13
tp1644
Rp1645
sg48
g5
(g9
Ng13
tp1646
Rp1647
sg53
g5
(g9
Ng13
tp1648
Rp1649
sg58
g5
(g9
Ng13
tp1650
Rp1651
sg63
g5
(g9
Ng13
tp1652
Rp1653
sg68
g5
(g9
Ng13
tp1654
Rp1655
sg73
g5
(g9
Ng13
tp1656
Rp1657
sg78
g5
(g9
Ng13
tp1658
Rp1659
sg83
g5
(g9
Ng13
tp1660
Rp1661
sg88
g5
(g9
Ng13
tp1662
Rp1663
sg93
g5
(g9
Ng13
tp1664
Rp1665
sg98
g5
(g9
Ng13
tp1666
Rp1667
sg103
g5
(g9
Ng13
tp1668
Rp1669
ssS'impl_'
p1670
(dp1671
g166
g5
(g9
Ng13
tp1672
Rp1673
sg53
g5
(g9
Ng13
tp1674
Rp1675
sg98
g5
(g9
Ng13
tp1676
Rp1677
sg103
g5
(g114
Ng13
tp1678
Rp1679
ssS'gmock0_close_80'
p1680
(dp1681
g53
g5
(g9
Ng13
tp1682
Rp1683
ssS'formatter'
p1684
(dp1685
g23
g5
(g114
Ng13
tp1686
Rp1687
ssS'tolerance'
p1688
(dp1689
g103
g5
(g9
Ng13
tp1690
Rp1691
ssS'mode'
p1692
(dp1693
g103
g5
(g9
Ng13
tp1694
Rp1695
ssS'out_of_range'
p1696
(dp1697
g8
g5
(g9
Ng13
tp1698
Rp1699
sg18
g5
(g9
Ng13
tp1700
Rp1701
sg23
g5
(g9
Ng13
tp1702
Rp1703
sg28
g5
(g9
Ng13
tp1704
Rp1705
sg33
g5
(g9
Ng13
tp1706
Rp1707
sg38
g5
(g9
Ng13
tp1708
Rp1709
sg43
g5
(g9
Ng13
tp1710
Rp1711
sg48
g5
(g9
Ng13
tp1712
Rp1713
sg53
g5
(g9
Ng13
tp1714
Rp1715
sg58
g5
(g9
Ng13
tp1716
Rp1717
sg63
g5
(g9
Ng13
tp1718
Rp1719
sg68
g5
(g9
Ng13
tp1720
Rp1721
sg73
g5
(g114
Ng13
tp1722
Rp1723
sg78
g5
(g114
Ng13
tp1724
Rp1725
sg83
g5
(g9
Ng13
tp1726
Rp1727
sg88
g5
(g9
Ng13
tp1728
Rp1729
sg93
g5
(g9
Ng13
tp1730
Rp1731
sg98
g5
(g9
Ng13
tp1732
Rp1733
sg103
g5
(g9
Ng13
tp1734
Rp1735
ssS'splitAndTrimDelimitedString'
p1736
(dp1737
g8
g5
(g9
Ng13
tp1738
Rp1739
sg18
g5
(g9
Ng13
tp1740
Rp1741
sg23
g5
(g9
Ng13
tp1742
Rp1743
sg28
g5
(g9
Ng13
tp1744
Rp1745
sg33
g5
(g9
Ng13
tp1746
Rp1747
sg38
g5
(g9
Ng13
tp1748
Rp1749
sg43
g5
(g9
Ng13
tp1750
Rp1751
sg48
g5
(g9
Ng13
tp1752
Rp1753
sg53
g5
(g9
Ng13
tp1754
Rp1755
sg58
g5
(g9
Ng13
tp1756
Rp1757
sg63
g5
(g9
Ng13
tp1758
Rp1759
sg68
g5
(g9
Ng13
tp1760
Rp1761
sg73
g5
(g9
Ng13
tp1762
Rp1763
sg78
g5
(g9
Ng13
tp1764
Rp1765
sg83
g5
(g9
Ng13
tp1766
Rp1767
sg88
g5
(g9
Ng13
tp1768
Rp1769
sg93
g5
(g9
Ng13
tp1770
Rp1771
sg98
g5
(g9
Ng13
tp1772
Rp1773
sg103
g5
(g9
Ng13
tp1774
Rp1775
ssS'firstLineIndent'
p1776
(dp1777
g23
g5
(g9
Ng13
tp1778
Rp1779
ssS'gmock_close'
p1780
(dp1781
g53
g5
(g114
Ng13
tp1782
Rp1783
ssS'RegisterOwner'
p1784
(dp1785
g8
g5
(g9
Ng13
tp1786
Rp1787
sg18
g5
(g9
Ng13
tp1788
Rp1789
sg23
g5
(g9
Ng13
tp1790
Rp1791
sg28
g5
(g9
Ng13
tp1792
Rp1793
sg33
g5
(g9
Ng13
tp1794
Rp1795
sg38
g5
(g9
Ng13
tp1796
Rp1797
sg43
g5
(g9
Ng13
tp1798
Rp1799
sg48
g5
(g9
Ng13
tp1800
Rp1801
sg53
g5
(g9
Ng13
tp1802
Rp1803
sg58
g5
(g9
Ng13
tp1804
Rp1805
sg63
g5
(g9
Ng13
tp1806
Rp1807
sg68
g5
(g9
Ng13
tp1808
Rp1809
sg73
g5
(g9
Ng13
tp1810
Rp1811
sg78
g5
(g9
Ng13
tp1812
Rp1813
sg83
g5
(g9
Ng13
tp1814
Rp1815
sg88
g5
(g9
Ng13
tp1816
Rp1817
sg93
g5
(g9
Ng13
tp1818
Rp1819
sg98
g5
(g9
Ng13
tp1820
Rp1821
sg103
g5
(g9
Ng13
tp1822
Rp1823
ssS'PrivateImplPointer<Impl>'
p1824
(dp1825
g88
g5
(g301
Ng13
tp1826
Rp1827
ssS'Times'
p1828
(dp1829
g8
g5
(g9
Ng13
tp1830
Rp1831
sg18
g5
(g9
Ng13
tp1832
Rp1833
sg23
g5
(g9
Ng13
tp1834
Rp1835
sg28
g5
(g9
Ng13
tp1836
Rp1837
sg33
g5
(g9
Ng13
tp1838
Rp1839
sg38
g5
(g9
Ng13
tp1840
Rp1841
sg43
g5
(g9
Ng13
tp1842
Rp1843
sg48
g5
(g9
Ng13
tp1844
Rp1845
sg53
g5
(g9
Ng13
tp1846
Rp1847
sg58
g5
(g9
Ng13
tp1848
Rp1849
sg63
g5
(g9
Ng13
tp1850
Rp1851
sg68
g5
(g9
Ng13
tp1852
Rp1853
sg73
g5
(g9
Ng13
tp1854
Rp1855
sg78
g5
(g9
Ng13
tp1856
Rp1857
sg83
g5
(g9
Ng13
tp1858
Rp1859
sg88
g5
(g9
Ng13
tp1860
Rp1861
sg93
g5
(g9
Ng13
tp1862
Rp1863
sg98
g5
(g9
Ng13
tp1864
Rp1865
sg103
g5
(g9
Ng13
tp1866
Rp1867
ssS'checkString'
p1868
(dp1869
g8
g5
(g9
Ng13
tp1870
Rp1871
sg18
g5
(g9
Ng13
tp1872
Rp1873
sg23
g5
(g9
Ng13
tp1874
Rp1875
sg28
g5
(g9
Ng13
tp1876
Rp1877
sg33
g5
(g9
Ng13
tp1878
Rp1879
sg38
g5
(g9
Ng13
tp1880
Rp1881
sg43
g5
(g9
Ng13
tp1882
Rp1883
sg48
g5
(g9
Ng13
tp1884
Rp1885
sg53
g5
(g9
Ng13
tp1886
Rp1887
sg58
g5
(g9
Ng13
tp1888
Rp1889
sg63
g5
(g9
Ng13
tp1890
Rp1891
sg68
g5
(g9
Ng13
tp1892
Rp1893
sg73
g5
(g9
Ng13
tp1894
Rp1895
sg78
g5
(g9
Ng13
tp1896
Rp1897
sg83
g5
(g9
Ng13
tp1898
Rp1899
sg88
g5
(g9
Ng13
tp1900
Rp1901
sg93
g5
(g9
Ng13
tp1902
Rp1903
sg98
g5
(g9
Ng13
tp1904
Rp1905
sg103
g5
(g9
Ng13
tp1906
Rp1907
ssS'end_'
p1908
(dp1909
g78
g5
(g9
Ng13
tp1910
Rp1911
ssS'checkUInt64'
p1912
(dp1913
g8
g5
(g9
Ng13
tp1914
Rp1915
sg18
g5
(g9
Ng13
tp1916
Rp1917
sg23
g5
(g9
Ng13
tp1918
Rp1919
sg28
g5
(g9
Ng13
tp1920
Rp1921
sg33
g5
(g9
Ng13
tp1922
Rp1923
sg38
g5
(g9
Ng13
tp1924
Rp1925
sg43
g5
(g9
Ng13
tp1926
Rp1927
sg48
g5
(g9
Ng13
tp1928
Rp1929
sg53
g5
(g9
Ng13
tp1930
Rp1931
sg58
g5
(g9
Ng13
tp1932
Rp1933
sg63
g5
(g9
Ng13
tp1934
Rp1935
sg68
g5
(g9
Ng13
tp1936
Rp1937
sg73
g5
(g9
Ng13
tp1938
Rp1939
sg78
g5
(g9
Ng13
tp1940
Rp1941
sg83
g5
(g9
Ng13
tp1942
Rp1943
sg88
g5
(g9
Ng13
tp1944
Rp1945
sg93
g5
(g9
Ng13
tp1946
Rp1947
sg98
g5
(g9
Ng13
tp1948
Rp1949
sg103
g5
(g9
Ng13
tp1950
Rp1951
ssS'gmock0_close_73'
p1952
(dp1953
g53
g5
(g9
Ng13
tp1954
Rp1955
ssS'subArray'
p1956
(dp1957
g78
g5
(g9
Ng13
tp1958
Rp1959
ssS'maxLength_'
p1960
(dp1961
g23
g5
(g9
Ng13
tp1962
Rp1963
ssS'readLine'
p1964
(dp1965
g8
g5
(g9
Ng13
tp1966
Rp1967
sg18
g5
(g9
Ng13
tp1968
Rp1969
sg23
g5
(g9
Ng13
tp1970
Rp1971
sg28
g5
(g9
Ng13
tp1972
Rp1973
sg33
g5
(g9
Ng13
tp1974
Rp1975
sg38
g5
(g9
Ng13
tp1976
Rp1977
sg43
g5
(g9
Ng13
tp1978
Rp1979
sg48
g5
(g9
Ng13
tp1980
Rp1981
sg53
g5
(g114
Ng13
tp1982
Rp1983
sg58
g5
(g9
Ng13
tp1984
Rp1985
sg63
g5
(g9
Ng13
tp1986
Rp1987
sg68
g5
(g9
Ng13
tp1988
Rp1989
sg73
g5
(g9
Ng13
tp1990
Rp1991
sg78
g5
(g9
Ng13
tp1992
Rp1993
sg83
g5
(g9
Ng13
tp1994
Rp1995
sg88
g5
(g9
Ng13
tp1996
Rp1997
sg93
g5
(g9
Ng13
tp1998
Rp1999
sg98
g5
(g9
Ng13
tp2000
Rp2001
sg103
g5
(g9
Ng13
tp2002
Rp2003
ssS'gmock_a1'
p2004
(dp2005
g53
g5
(g301
Ng13
tp2006
Rp2007
ssS'checkSession'
p2008
(dp2009
g166
g5
(g9
Ng13
tp2010
Rp2011
sg53
g5
(g9
Ng13
tp2012
Rp2013
ssS'c_str'
p2014
(dp2015
g8
g5
(g9
Ng13
tp2016
Rp2017
sg18
g5
(g9
Ng13
tp2018
Rp2019
sg23
g5
(g9
Ng13
tp2020
Rp2021
sg28
g5
(g9
Ng13
tp2022
Rp2023
sg33
g5
(g9
Ng13
tp2024
Rp2025
sg38
g5
(g9
Ng13
tp2026
Rp2027
sg43
g5
(g9
Ng13
tp2028
Rp2029
sg48
g5
(g9
Ng13
tp2030
Rp2031
sg53
g5
(g9
Ng13
tp2032
Rp2033
sg58
g5
(g9
Ng13
tp2034
Rp2035
sg63
g5
(g9
Ng13
tp2036
Rp2037
sg68
g5
(g9
Ng13
tp2038
Rp2039
sg73
g5
(g9
Ng13
tp2040
Rp2041
sg78
g5
(g9
Ng13
tp2042
Rp2043
sg83
g5
(g9
Ng13
tp2044
Rp2045
sg88
g5
(g9
Ng13
tp2046
Rp2047
sg93
g5
(g9
Ng13
tp2048
Rp2049
sg98
g5
(g9
Ng13
tp2050
Rp2051
sg103
g5
(g9
Ng13
tp2052
Rp2053
ssS'indent'
p2054
(dp2055
g23
g5
(g594
Ng13
tp2056
Rp2057
ssS'isTrivial'
p2058
(dp2059
g8
g5
(g9
Ng13
tp2060
Rp2061
sg18
g5
(g9
Ng13
tp2062
Rp2063
sg23
g5
(g9
Ng13
tp2064
Rp2065
sg28
g5
(g9
Ng13
tp2066
Rp2067
sg33
g5
(g9
Ng13
tp2068
Rp2069
sg38
g5
(g9
Ng13
tp2070
Rp2071
sg43
g5
(g9
Ng13
tp2072
Rp2073
sg48
g5
(g9
Ng13
tp2074
Rp2075
sg53
g5
(g9
Ng13
tp2076
Rp2077
sg58
g5
(g9
Ng13
tp2078
Rp2079
sg63
g5
(g9
Ng13
tp2080
Rp2081
sg68
g5
(g9
Ng13
tp2082
Rp2083
sg73
g5
(g9
Ng13
tp2084
Rp2085
sg78
g5
(g9
Ng13
tp2086
Rp2087
sg83
g5
(g9
Ng13
tp2088
Rp2089
sg88
g5
(g9
Ng13
tp2090
Rp2091
sg93
g5
(g9
Ng13
tp2092
Rp2093
sg98
g5
(g9
Ng13
tp2094
Rp2095
sg103
g5
(g9
Ng13
tp2096
Rp2097
ssS'ptr'
p2098
(dp2099
g88
g5
(g114
Ng13
tp2100
Rp2101
ssS'formatString'
p2102
(dp2103
g8
g5
(g9
Ng13
tp2104
Rp2105
sg18
g5
(g9
Ng13
tp2106
Rp2107
sg23
g5
(g9
Ng13
tp2108
Rp2109
sg28
g5
(g9
Ng13
tp2110
Rp2111
sg33
g5
(g9
Ng13
tp2112
Rp2113
sg38
g5
(g9
Ng13
tp2114
Rp2115
sg43
g5
(g9
Ng13
tp2116
Rp2117
sg48
g5
(g9
Ng13
tp2118
Rp2119
sg53
g5
(g9
Ng13
tp2120
Rp2121
sg58
g5
(g9
Ng13
tp2122
Rp2123
sg63
g5
(g9
Ng13
tp2124
Rp2125
sg68
g5
(g9
Ng13
tp2126
Rp2127
sg73
g5
(g9
Ng13
tp2128
Rp2129
sg78
g5
(g9
Ng13
tp2130
Rp2131
sg83
g5
(g9
Ng13
tp2132
Rp2133
sg88
g5
(g9
Ng13
tp2134
Rp2135
sg93
g5
(g9
Ng13
tp2136
Rp2137
sg98
g5
(g9
Ng13
tp2138
Rp2139
sg103
g5
(g9
Ng13
tp2140
Rp2141
ssS'Any'
p2142
(dp2143
g8
g5
(g9
Ng13
tp2144
Rp2145
sg18
g5
(g9
Ng13
tp2146
Rp2147
sg23
g5
(g9
Ng13
tp2148
Rp2149
sg28
g5
(g9
Ng13
tp2150
Rp2151
sg33
g5
(g9
Ng13
tp2152
Rp2153
sg38
g5
(g9
Ng13
tp2154
Rp2155
sg43
g5
(g9
Ng13
tp2156
Rp2157
sg48
g5
(g9
Ng13
tp2158
Rp2159
sg53
g5
(g9
Ng13
tp2160
Rp2161
sg58
g5
(g9
Ng13
tp2162
Rp2163
sg63
g5
(g9
Ng13
tp2164
Rp2165
sg68
g5
(g9
Ng13
tp2166
Rp2167
sg73
g5
(g9
Ng13
tp2168
Rp2169
sg78
g5
(g9
Ng13
tp2170
Rp2171
sg83
g5
(g9
Ng13
tp2172
Rp2173
sg88
g5
(g9
Ng13
tp2174
Rp2175
sg93
g5
(g9
Ng13
tp2176
Rp2177
sg98
g5
(g9
Ng13
tp2178
Rp2179
sg103
g5
(g9
Ng13
tp2180
Rp2181
ssS'length'
p2182
(dp2183
g8
g5
(g9
Ng13
tp2184
Rp2185
sg18
g5
(g9
Ng13
tp2186
Rp2187
sg23
g5
(g114
Ng13
tp2188
Rp2189
sg28
g5
(g9
Ng13
tp2190
Rp2191
sg33
g5
(g9
Ng13
tp2192
Rp2193
sg38
g5
(g9
Ng13
tp2194
Rp2195
sg43
g5
(g9
Ng13
tp2196
Rp2197
sg48
g5
(g9
Ng13
tp2198
Rp2199
sg53
g5
(g9
Ng13
tp2200
Rp2201
sg58
g5
(g9
Ng13
tp2202
Rp2203
sg63
g5
(g9
Ng13
tp2204
Rp2205
sg68
g5
(g9
Ng13
tp2206
Rp2207
sg73
g5
(g9
Ng13
tp2208
Rp2209
sg78
g5
(g9
Ng13
tp2210
Rp2211
sg83
g5
(g9
Ng13
tp2212
Rp2213
sg88
g5
(g9
Ng13
tp2214
Rp2215
sg93
g5
(g9
Ng13
tp2216
Rp2217
sg98
g5
(g9
Ng13
tp2218
Rp2219
sg103
g5
(V5
p2220
Ng13
tp2221
Rp2222
ssS'separator'
p2223
(dp2224
g23
g5
(g2220
Ng13
tp2225
Rp2226
ssS'impl'
p2227
(dp2228
g103
g5
(g9
Ng13
tp2229
Rp2230
ssS'MockTextOutputStream'
p2231
(dp2232
g53
g5
(g9
Ng13
tp2233
Rp2234
ssS'isNullOrEmpty'
p2235
(dp2236
g23
g5
(g9
Ng13
tp2237
Rp2238
ssS'checkPresent'
p2239
(dp2240
g8
g5
(g9
Ng13
tp2241
Rp2242
sg18
g5
(g9
Ng13
tp2243
Rp2244
sg23
g5
(g9
Ng13
tp2245
Rp2246
sg28
g5
(g9
Ng13
tp2247
Rp2248
sg33
g5
(g9
Ng13
tp2249
Rp2250
sg38
g5
(g9
Ng13
tp2251
Rp2252
sg43
g5
(g9
Ng13
tp2253
Rp2254
sg48
g5
(g9
Ng13
tp2255
Rp2256
sg53
g5
(g9
Ng13
tp2257
Rp2258
sg58
g5
(g9
Ng13
tp2259
Rp2260
sg63
g5
(g9
Ng13
tp2261
Rp2262
sg68
g5
(g9
Ng13
tp2263
Rp2264
sg73
g5
(g9
Ng13
tp2265
Rp2266
sg78
g5
(g9
Ng13
tp2267
Rp2268
sg83
g5
(g9
Ng13
tp2269
Rp2270
sg88
g5
(g9
Ng13
tp2271
Rp2272
sg93
g5
(g9
Ng13
tp2273
Rp2274
sg98
g5
(g9
Ng13
tp2275
Rp2276
sg103
g5
(g9
Ng13
tp2277
Rp2278
ssS'readUChar'
p2279
(dp2280
g8
g5
(g9
Ng13
tp2281
Rp2282
sg18
g5
(g9
Ng13
tp2283
Rp2284
sg23
g5
(g9
Ng13
tp2285
Rp2286
sg28
g5
(g9
Ng13
tp2287
Rp2288
sg33
g5
(g9
Ng13
tp2289
Rp2290
sg38
g5
(g9
Ng13
tp2291
Rp2292
sg43
g5
(g9
Ng13
tp2293
Rp2294
sg48
g5
(g9
Ng13
tp2295
Rp2296
sg53
g5
(g9
Ng13
tp2297
Rp2298
sg58
g5
(g9
Ng13
tp2299
Rp2300
sg63
g5
(g9
Ng13
tp2301
Rp2302
sg68
g5
(g9
Ng13
tp2303
Rp2304
sg73
g5
(g9
Ng13
tp2305
Rp2306
sg78
g5
(g9
Ng13
tp2307
Rp2308
sg83
g5
(g9
Ng13
tp2309
Rp2310
sg88
g5
(g9
Ng13
tp2311
Rp2312
sg93
g5
(g9
Ng13
tp2313
Rp2314
sg98
g5
(g9
Ng13
tp2315
Rp2316
sg103
g5
(g9
Ng13
tp2317
Rp2318
ssS'assertHandler'
p2319
(dp2320
g8
g5
(g9
Ng13
tp2321
Rp2322
sg18
g5
(g9
Ng13
tp2323
Rp2324
sg23
g5
(g9
Ng13
tp2325
Rp2326
sg28
g5
(g9
Ng13
tp2327
Rp2328
sg33
g5
(g9
Ng13
tp2329
Rp2330
sg38
g5
(g9
Ng13
tp2331
Rp2332
sg43
g5
(g9
Ng13
tp2333
Rp2334
sg48
g5
(g9
Ng13
tp2335
Rp2336
sg53
g5
(g9
Ng13
tp2337
Rp2338
sg58
g5
(g9
Ng13
tp2339
Rp2340
sg63
g5
(g9
Ng13
tp2341
Rp2342
sg68
g5
(g9
Ng13
tp2343
Rp2344
sg73
g5
(g9
Ng13
tp2345
Rp2346
sg78
g5
(g9
Ng13
tp2347
Rp2348
sg83
g5
(g9
Ng13
tp2349
Rp2350
sg88
g5
(g9
Ng13
tp2351
Rp2352
sg93
g5
(g9
Ng13
tp2353
Rp2354
sg98
g5
(g9
Ng13
tp2355
Rp2356
sg103
g5
(g9
Ng13
tp2357
Rp2358
ssS'operator='
p2359
(dp2360
g8
g5
(g9
Ng13
tp2361
Rp2362
sg18
g5
(g9
Ng13
tp2363
Rp2364
sg23
g5
(g9
Ng13
tp2365
Rp2366
sg28
g5
(g9
Ng13
tp2367
Rp2368
sg33
g5
(g9
Ng13
tp2369
Rp2370
sg38
g5
(g9
Ng13
tp2371
Rp2372
sg43
g5
(g9
Ng13
tp2373
Rp2374
sg48
g5
(g9
Ng13
tp2375
Rp2376
sg53
g5
(g114
Ng13
tp2377
Rp2378
sg58
g5
(g9
Ng13
tp2379
Rp2380
sg63
g5
(g9
Ng13
tp2381
Rp2382
sg68
g5
(g9
Ng13
tp2383
Rp2384
sg73
g5
(g9
Ng13
tp2385
Rp2386
sg78
g5
(g114
Ng13
tp2387
Rp2388
sg83
g5
(g9
Ng13
tp2389
Rp2390
sg88
g5
(g114
Ng13
tp2391
Rp2392
sg93
g5
(g9
Ng13
tp2393
Rp2394
sg98
g5
(g9
Ng13
tp2395
Rp2396
sg103
g5
(g9
Ng13
tp2397
Rp2398
ssS'checkReal'
p2399
(dp2400
g8
g5
(g9
Ng13
tp2401
Rp2402
sg18
g5
(g9
Ng13
tp2403
Rp2404
sg23
g5
(g9
Ng13
tp2405
Rp2406
sg28
g5
(g9
Ng13
tp2407
Rp2408
sg33
g5
(g9
Ng13
tp2409
Rp2410
sg38
g5
(g9
Ng13
tp2411
Rp2412
sg43
g5
(g9
Ng13
tp2413
Rp2414
sg48
g5
(g9
Ng13
tp2415
Rp2416
sg53
g5
(g9
Ng13
tp2417
Rp2418
sg58
g5
(g9
Ng13
tp2419
Rp2420
sg63
g5
(g9
Ng13
tp2421
Rp2422
sg68
g5
(g9
Ng13
tp2423
Rp2424
sg73
g5
(g9
Ng13
tp2425
Rp2426
sg78
g5
(g9
Ng13
tp2427
Rp2428
sg83
g5
(g9
Ng13
tp2429
Rp2430
sg88
g5
(g9
Ng13
tp2431
Rp2432
sg93
g5
(g9
Ng13
tp2433
Rp2434
sg98
g5
(g9
Ng13
tp2435
Rp2436
sg103
g5
(g9
Ng13
tp2437
Rp2438
ssS'format'
p2439
(dp2440
g23
g5
(g9
Ng13
tp2441
Rp2442
ssS'TestReferenceChecker'
p2443
(dp2444
g8
g5
(g9
Ng13
tp2445
Rp2446
sg18
g5
(g9
Ng13
tp2447
Rp2448
sg23
g5
(g9
Ng13
tp2449
Rp2450
sg28
g5
(g9
Ng13
tp2451
Rp2452
sg33
g5
(g9
Ng13
tp2453
Rp2454
sg38
g5
(g9
Ng13
tp2455
Rp2456
sg43
g5
(g9
Ng13
tp2457
Rp2458
sg48
g5
(g9
Ng13
tp2459
Rp2460
sg166
g5
(g9
Ng13
tp2461
Rp2462
sg53
g5
(g114
Ng13
tp2463
Rp2464
sg58
g5
(g9
Ng13
tp2465
Rp2466
sg63
g5
(g9
Ng13
tp2467
Rp2468
sg68
g5
(g9
Ng13
tp2469
Rp2470
sg73
g5
(g9
Ng13
tp2471
Rp2472
sg78
g5
(g9
Ng13
tp2473
Rp2474
sg83
g5
(g9
Ng13
tp2475
Rp2476
sg88
g5
(g9
Ng13
tp2477
Rp2478
sg93
g5
(g9
Ng13
tp2479
Rp2480
sg98
g5
(g114
Ng13
tp2481
Rp2482
sg103
g5
(g114
Ng13
tp2483
Rp2484
ssS'IdentityFormatter'
p2485
(dp2486
g8
g5
(g9
Ng13
tp2487
Rp2488
sg18
g5
(g9
Ng13
tp2489
Rp2490
sg23
g5
(g114
Ng13
tp2491
Rp2492
sg28
g5
(g9
Ng13
tp2493
Rp2494
sg33
g5
(g9
Ng13
tp2495
Rp2496
sg38
g5
(g9
Ng13
tp2497
Rp2498
sg43
g5
(g9
Ng13
tp2499
Rp2500
sg48
g5
(g9
Ng13
tp2501
Rp2502
sg53
g5
(g9
Ng13
tp2503
Rp2504
sg58
g5
(g9
Ng13
tp2505
Rp2506
sg63
g5
(g9
Ng13
tp2507
Rp2508
sg68
g5
(g9
Ng13
tp2509
Rp2510
sg73
g5
(g9
Ng13
tp2511
Rp2512
sg78
g5
(g9
Ng13
tp2513
Rp2514
sg83
g5
(g9
Ng13
tp2515
Rp2516
sg88
g5
(g9
Ng13
tp2517
Rp2518
sg93
g5
(g9
Ng13
tp2519
Rp2520
sg98
g5
(g9
Ng13
tp2521
Rp2522
sg103
g5
(g9
Ng13
tp2523
Rp2524
ssS'setKeepFinalSpaces'
p2525
(dp2526
g23
g5
(g9
Ng13
tp2527
Rp2528
ssS'ReferenceDataMode'
p2529
(dp2530
g103
g5
(g9
Ng13
tp2531
Rp2532
ssS'substr'
p2533
(dp2534
g23
g5
(g114
Ng13
tp2535
Rp2536
ssS'operator*'
p2537
(dp2538
g88
g5
(g114
Ng13
tp2539
Rp2540
ssS'currentSeparator'
p2541
(dp2542
g23
g5
(g9
Ng13
tp2543
Rp2544
ssS'array'
p2545
(dp2546
g78
g5
(g9
Ng13
tp2547
Rp2548
sg23
g5
(g9
Ng13
tp2549
Rp2550
ssS'readInputLine'
p2551
(dp2552
g53
g5
(g9
Ng13
tp2553
Rp2554
ssS'size'
p2555
(dp2556
g8
g5
(g9
Ng13
tp2557
Rp2558
sg18
g5
(g9
Ng13
tp2559
Rp2560
sg23
g5
(g9
Ng13
tp2561
Rp2562
sg28
g5
(g9
Ng13
tp2563
Rp2564
sg33
g5
(g9
Ng13
tp2565
Rp2566
sg38
g5
(g9
Ng13
tp2567
Rp2568
sg43
g5
(g9
Ng13
tp2569
Rp2570
sg48
g5
(g9
Ng13
tp2571
Rp2572
sg53
g5
(g9
Ng13
tp2573
Rp2574
sg58
g5
(g9
Ng13
tp2575
Rp2576
sg63
g5
(g9
Ng13
tp2577
Rp2578
sg68
g5
(g9
Ng13
tp2579
Rp2580
sg73
g5
(g9
Ng13
tp2581
Rp2582
sg78
g5
(g301
Ng13
tp2583
Rp2584
sg83
g5
(g9
Ng13
tp2585
Rp2586
sg88
g5
(g9
Ng13
tp2587
Rp2588
sg93
g5
(g9
Ng13
tp2589
Rp2590
sg98
g5
(g9
Ng13
tp2591
Rp2592
sg103
g5
(g9
Ng13
tp2593
Rp2594
ssS'WillRepeatedly'
p2595
(dp2596
g8
g5
(g9
Ng13
tp2597
Rp2598
sg18
g5
(g9
Ng13
tp2599
Rp2600
sg23
g5
(g9
Ng13
tp2601
Rp2602
sg28
g5
(g9
Ng13
tp2603
Rp2604
sg33
g5
(g9
Ng13
tp2605
Rp2606
sg38
g5
(g9
Ng13
tp2607
Rp2608
sg43
g5
(g9
Ng13
tp2609
Rp2610
sg48
g5
(g9
Ng13
tp2611
Rp2612
sg53
g5
(g9
Ng13
tp2613
Rp2614
sg58
g5
(g9
Ng13
tp2615
Rp2616
sg63
g5
(g9
Ng13
tp2617
Rp2618
sg68
g5
(g9
Ng13
tp2619
Rp2620
sg73
g5
(g9
Ng13
tp2621
Rp2622
sg78
g5
(g9
Ng13
tp2623
Rp2624
sg83
g5
(g9
Ng13
tp2625
Rp2626
sg88
g5
(g9
Ng13
tp2627
Rp2628
sg93
g5
(g9
Ng13
tp2629
Rp2630
sg98
g5
(g9
Ng13
tp2631
Rp2632
sg103
g5
(g9
Ng13
tp2633
Rp2634
ssS'wrapToVector'
p2635
(dp2636
g8
g5
(g9
Ng13
tp2637
Rp2638
sg18
g5
(g9
Ng13
tp2639
Rp2640
sg23
g5
(g9
Ng13
tp2641
Rp2642
sg28
g5
(g9
Ng13
tp2643
Rp2644
sg33
g5
(g9
Ng13
tp2645
Rp2646
sg38
g5
(g9
Ng13
tp2647
Rp2648
sg43
g5
(g9
Ng13
tp2649
Rp2650
sg48
g5
(g9
Ng13
tp2651
Rp2652
sg53
g5
(g9
Ng13
tp2653
Rp2654
sg58
g5
(g9
Ng13
tp2655
Rp2656
sg63
g5
(g9
Ng13
tp2657
Rp2658
sg68
g5
(g9
Ng13
tp2659
Rp2660
sg73
g5
(g9
Ng13
tp2661
Rp2662
sg78
g5
(g9
Ng13
tp2663
Rp2664
sg83
g5
(g9
Ng13
tp2665
Rp2666
sg88
g5
(g9
Ng13
tp2667
Rp2668
sg93
g5
(g9
Ng13
tp2669
Rp2670
sg98
g5
(g9
Ng13
tp2671
Rp2672
sg103
g5
(g9
Ng13
tp2673
Rp2674
ssS'from'
p2675
(dp2676
g23
g5
(g301
Ng13
tp2677
Rp2678
ssS'basic_string'
p2679
(dp2680
g8
g5
(g9
Ng13
tp2681
Rp2682
sg18
g5
(g9
Ng13
tp2683
Rp2684
sg23
g5
(g9
Ng13
tp2685
Rp2686
sg28
g5
(g9
Ng13
tp2687
Rp2688
sg33
g5
(g9
Ng13
tp2689
Rp2690
sg38
g5
(g9
Ng13
tp2691
Rp2692
sg43
g5
(g9
Ng13
tp2693
Rp2694
sg48
g5
(g9
Ng13
tp2695
Rp2696
sg53
g5
(g9
Ng13
tp2697
Rp2698
sg58
g5
(g9
Ng13
tp2699
Rp2700
sg63
g5
(g9
Ng13
tp2701
Rp2702
sg68
g5
(g9
Ng13
tp2703
Rp2704
sg73
g5
(g9
Ng13
tp2705
Rp2706
sg78
g5
(g9
Ng13
tp2707
Rp2708
sg83
g5
(g9
Ng13
tp2709
Rp2710
sg88
g5
(g9
Ng13
tp2711
Rp2712
sg93
g5
(g9
Ng13
tp2713
Rp2714
sg98
g5
(g9
Ng13
tp2715
Rp2716
sg103
g5
(g9
Ng13
tp2717
Rp2718
ssS'source'
p2719
(dp2720
g23
g5
(g114
Ng13
tp2721
Rp2722
ssS'fmt'
p2723
(dp2724
g23
g5
(g114
Ng13
tp2725
Rp2726
ssS'FloatingPointTolerance'
p2727
(dp2728
g8
g5
(g9
Ng13
tp2729
Rp2730
sg18
g5
(g9
Ng13
tp2731
Rp2732
sg23
g5
(g9
Ng13
tp2733
Rp2734
sg28
g5
(g9
Ng13
tp2735
Rp2736
sg33
g5
(g9
Ng13
tp2737
Rp2738
sg38
g5
(g9
Ng13
tp2739
Rp2740
sg43
g5
(g9
Ng13
tp2741
Rp2742
sg48
g5
(g9
Ng13
tp2743
Rp2744
sg53
g5
(g9
Ng13
tp2745
Rp2746
sg58
g5
(g9
Ng13
tp2747
Rp2748
sg63
g5
(g9
Ng13
tp2749
Rp2750
sg68
g5
(g9
Ng13
tp2751
Rp2752
sg73
g5
(g9
Ng13
tp2753
Rp2754
sg78
g5
(g9
Ng13
tp2755
Rp2756
sg83
g5
(g9
Ng13
tp2757
Rp2758
sg88
g5
(g9
Ng13
tp2759
Rp2760
sg93
g5
(g9
Ng13
tp2761
Rp2762
sg98
g5
(g9
Ng13
tp2763
Rp2764
sg103
g5
(g9
Ng13
tp2765
Rp2766
ssS'readInt64'
p2767
(dp2768
g8
g5
(g9
Ng13
tp2769
Rp2770
sg18
g5
(g9
Ng13
tp2771
Rp2772
sg23
g5
(g9
Ng13
tp2773
Rp2774
sg28
g5
(g9
Ng13
tp2775
Rp2776
sg33
g5
(g9
Ng13
tp2777
Rp2778
sg38
g5
(g9
Ng13
tp2779
Rp2780
sg43
g5
(g9
Ng13
tp2781
Rp2782
sg48
g5
(g9
Ng13
tp2783
Rp2784
sg53
g5
(g9
Ng13
tp2785
Rp2786
sg58
g5
(g9
Ng13
tp2787
Rp2788
sg63
g5
(g9
Ng13
tp2789
Rp2790
sg68
g5
(g9
Ng13
tp2791
Rp2792
sg73
g5
(g9
Ng13
tp2793
Rp2794
sg78
g5
(g9
Ng13
tp2795
Rp2796
sg83
g5
(g9
Ng13
tp2797
Rp2798
sg88
g5
(g9
Ng13
tp2799
Rp2800
sg93
g5
(g9
Ng13
tp2801
Rp2802
sg98
g5
(g9
Ng13
tp2803
Rp2804
sg103
g5
(g9
Ng13
tp2805
Rp2806
ssS'gmock_write'
p2807
(dp2808
g53
g5
(g9
Ng13
tp2809
Rp2810
ssS'tree'
p2811
(dp2812
g103
g5
(g9
Ng13
tp2813
Rp2814
ssS'start'
p2815
(dp2816
g78
g5
(g9
Ng13
tp2817
Rp2818
ssS'checker'
p2819
(dp2820
g8
g5
(g9
Ng13
tp2821
Rp2822
sg18
g5
(g9
Ng13
tp2823
Rp2824
sg23
g5
(g9
Ng13
tp2825
Rp2826
sg28
g5
(g9
Ng13
tp2827
Rp2828
sg33
g5
(g9
Ng13
tp2829
Rp2830
sg38
g5
(g9
Ng13
tp2831
Rp2832
sg43
g5
(g9
Ng13
tp2833
Rp2834
sg48
g5
(g9
Ng13
tp2835
Rp2836
sg166
g5
(g9
Ng13
tp2837
Rp2838
sg53
g5
(g594
Ng13
tp2839
Rp2840
sg58
g5
(g9
Ng13
tp2841
Rp2842
sg63
g5
(g9
Ng13
tp2843
Rp2844
sg68
g5
(g9
Ng13
tp2845
Rp2846
sg73
g5
(g9
Ng13
tp2847
Rp2848
sg78
g5
(g9
Ng13
tp2849
Rp2850
sg83
g5
(g9
Ng13
tp2851
Rp2852
sg88
g5
(g9
Ng13
tp2853
Rp2854
sg93
g5
(g9
Ng13
tp2855
Rp2856
sg98
g5
(g114
Ng13
tp2857
Rp2858
sg103
g5
(g9
Ng13
tp2859
Rp2860
ssS'options'
p2861
(dp2862
g103
g5
(g9
Ng13
tp2863
Rp2864
ssS'setFirstLineIndent'
p2865
(dp2866
g23
g5
(g9
Ng13
tp2867
Rp2868
ssS'_'
p2869
(dp2870
g8
g5
(g9
Ng13
tp2871
Rp2872
sg18
g5
(g9
Ng13
tp2873
Rp2874
sg23
g5
(g9
Ng13
tp2875
Rp2876
sg28
g5
(g9
Ng13
tp2877
Rp2878
sg33
g5
(g9
Ng13
tp2879
Rp2880
sg38
g5
(g9
Ng13
tp2881
Rp2882
sg43
g5
(g9
Ng13
tp2883
Rp2884
sg48
g5
(g114
Ng13
tp2885
Rp2886
sg53
g5
(g114
Ng13
tp2887
Rp2888
sg58
g5
(g9
Ng13
tp2889
Rp2890
sg63
g5
(g9
Ng13
tp2891
Rp2892
sg68
g5
(g9
Ng13
tp2893
Rp2894
sg73
g5
(g9
Ng13
tp2895
Rp2896
sg78
g5
(g9
Ng13
tp2897
Rp2898
sg83
g5
(g9
Ng13
tp2899
Rp2900
sg88
g5
(g9
Ng13
tp2901
Rp2902
sg93
g5
(g9
Ng13
tp2903
Rp2904
sg98
g5
(g9
Ng13
tp2905
Rp2906
sg103
g5
(g9
Ng13
tp2907
Rp2908
ssS'arrayRef'
p2909
(dp2910
g78
g5
(g9
Ng13
tp2911
Rp2912
ssS'msg'
p2913
(dp2914
g58
g5
(g9
Ng13
tp2915
Rp2916
ssS'continuationChar_'
p2917
(dp2918
g23
g5
(g9
Ng13
tp2919
Rp2920
ssS'StringTestBase'
p2921
(dp2922
g8
g5
(g9
Ng13
tp2923
Rp2924
sg18
g5
(g9
Ng13
tp2925
Rp2926
sg23
g5
(g9
Ng13
tp2927
Rp2928
sg28
g5
(g9
Ng13
tp2929
Rp2930
sg33
g5
(g9
Ng13
tp2931
Rp2932
sg38
g5
(g9
Ng13
tp2933
Rp2934
sg43
g5
(g9
Ng13
tp2935
Rp2936
sg48
g5
(g9
Ng13
tp2937
Rp2938
sg53
g5
(g114
Ng13
tp2939
Rp2940
sg58
g5
(g9
Ng13
tp2941
Rp2942
sg63
g5
(g9
Ng13
tp2943
Rp2944
sg68
g5
(g9
Ng13
tp2945
Rp2946
sg73
g5
(g9
Ng13
tp2947
Rp2948
sg78
g5
(g9
Ng13
tp2949
Rp2950
sg83
g5
(g9
Ng13
tp2951
Rp2952
sg88
g5
(g9
Ng13
tp2953
Rp2954
sg93
g5
(g9
Ng13
tp2955
Rp2956
sg98
g5
(g114
Ng13
tp2957
Rp2958
sg103
g5
(g9
Ng13
tp2959
Rp2960
ssS'bPresent'
p2961
(dp2962
g53
g5
(g9
Ng13
tp2963
Rp2964
sg103
g5
(g9
Ng13
tp2965
Rp2966
ssS'checkText'
p2967
(dp2968
g8
g5
(g9
Ng13
tp2969
Rp2970
sg18
g5
(g9
Ng13
tp2971
Rp2972
sg23
g5
(g9
Ng13
tp2973
Rp2974
sg28
g5
(g9
Ng13
tp2975
Rp2976
sg33
g5
(g9
Ng13
tp2977
Rp2978
sg38
g5
(g9
Ng13
tp2979
Rp2980
sg43
g5
(g9
Ng13
tp2981
Rp2982
sg48
g5
(g9
Ng13
tp2983
Rp2984
sg53
g5
(g9
Ng13
tp2985
Rp2986
sg58
g5
(g9
Ng13
tp2987
Rp2988
sg63
g5
(g9
Ng13
tp2989
Rp2990
sg68
g5
(g9
Ng13
tp2991
Rp2992
sg73
g5
(g9
Ng13
tp2993
Rp2994
sg78
g5
(g9
Ng13
tp2995
Rp2996
sg83
g5
(g9
Ng13
tp2997
Rp2998
sg88
g5
(g9
Ng13
tp2999
Rp3000
sg93
g5
(g9
Ng13
tp3001
Rp3002
sg98
g5
(g9
Ng13
tp3003
Rp3004
sg103
g5
(g9
Ng13
tp3005
Rp3006
ssS'empty'
p3007
(dp3008
g78
g5
(g9
Ng13
tp3009
Rp3010
ssS'checkSequenceCompound'
p3011
(dp3012
g8
g5
(g9
Ng13
tp3013
Rp3014
sg18
g5
(g9
Ng13
tp3015
Rp3016
sg23
g5
(g9
Ng13
tp3017
Rp3018
sg28
g5
(g9
Ng13
tp3019
Rp3020
sg33
g5
(g9
Ng13
tp3021
Rp3022
sg38
g5
(g9
Ng13
tp3023
Rp3024
sg43
g5
(g9
Ng13
tp3025
Rp3026
sg48
g5
(g9
Ng13
tp3027
Rp3028
sg53
g5
(g9
Ng13
tp3029
Rp3030
sg58
g5
(g9
Ng13
tp3031
Rp3032
sg63
g5
(g9
Ng13
tp3033
Rp3034
sg68
g5
(g9
Ng13
tp3035
Rp3036
sg73
g5
(g9
Ng13
tp3037
Rp3038
sg78
g5
(g9
Ng13
tp3039
Rp3040
sg83
g5
(g9
Ng13
tp3041
Rp3042
sg88
g5
(g9
Ng13
tp3043
Rp3044
sg93
g5
(g9
Ng13
tp3045
Rp3046
sg98
g5
(g9
Ng13
tp3047
Rp3048
sg103
g5
(g9
Ng13
tp3049
Rp3050
ssS'operator!='
p3051
(dp3052
g88
g5
(g9
Ng13
tp3053
Rp3054
ssS'current_function_helper'
p3055
(dp3056
g5
(Vcurrent_function.h
p3057
NNtp3058
Rp3059
g5
(g9
Ng13
tp3060
Rp3061
ssS'ArrayRef<T>'
p3062
(dp3063
g78
g5
(g2220
Ng13
tp3064
Rp3065
ssS'contains'
p3066
(dp3067
g23
g5
(g114
Ng13
tp3068
Rp3069
ssS'begin_'
p3070
(dp3071
g78
g5
(g9
Ng13
tp3072
Rp3073
ssS'c'
p3074
(dp3075
g78
g5
(g114
Ng13
tp3076
Rp3077
ssS'setContinuationChar'
p3078
(dp3079
g23
g5
(g9
Ng13
tp3080
Rp3081
ssS'back'
p3082
(dp3083
g78
g5
(g9
Ng13
tp3084
Rp3085
ssS'operator[]'
p3086
(dp3087
g8
g5
(g9
Ng13
tp3088
Rp3089
sg18
g5
(g9
Ng13
tp3090
Rp3091
sg23
g5
(g9
Ng13
tp3092
Rp3093
sg28
g5
(g9
Ng13
tp3094
Rp3095
sg33
g5
(g9
Ng13
tp3096
Rp3097
sg38
g5
(g9
Ng13
tp3098
Rp3099
sg43
g5
(g9
Ng13
tp3100
Rp3101
sg48
g5
(g9
Ng13
tp3102
Rp3103
sg53
g5
(g9
Ng13
tp3104
Rp3105
sg58
g5
(g9
Ng13
tp3106
Rp3107
sg63
g5
(g9
Ng13
tp3108
Rp3109
sg68
g5
(g9
Ng13
tp3110
Rp3111
sg73
g5
(g9
Ng13
tp3112
Rp3113
sg78
g5
(g114
Ng13
tp3114
Rp3115
sg83
g5
(g9
Ng13
tp3116
Rp3117
sg88
g5
(g9
Ng13
tp3118
Rp3119
sg93
g5
(g9
Ng13
tp3120
Rp3121
sg98
g5
(g9
Ng13
tp3122
Rp3123
sg103
g5
(g9
Ng13
tp3124
Rp3125
ssS'readDouble'
p3126
(dp3127
g8
g5
(g9
Ng13
tp3128
Rp3129
sg18
g5
(g9
Ng13
tp3130
Rp3131
sg23
g5
(g9
Ng13
tp3132
Rp3133
sg28
g5
(g9
Ng13
tp3134
Rp3135
sg33
g5
(g9
Ng13
tp3136
Rp3137
sg38
g5
(g9
Ng13
tp3138
Rp3139
sg43
g5
(g9
Ng13
tp3140
Rp3141
sg48
g5
(g9
Ng13
tp3142
Rp3143
sg53
g5
(g9
Ng13
tp3144
Rp3145
sg58
g5
(g9
Ng13
tp3146
Rp3147
sg63
g5
(g9
Ng13
tp3148
Rp3149
sg68
g5
(g9
Ng13
tp3150
Rp3151
sg73
g5
(g9
Ng13
tp3152
Rp3153
sg78
g5
(g9
Ng13
tp3154
Rp3155
sg83
g5
(g9
Ng13
tp3156
Rp3157
sg88
g5
(g9
Ng13
tp3158
Rp3159
sg93
g5
(g9
Ng13
tp3160
Rp3161
sg98
g5
(g9
Ng13
tp3162
Rp3163
sg103
g5
(g9
Ng13
tp3164
Rp3165
ssS'line'
p3166
(dp3167
g38
g5
(g9
Ng13
tp3168
Rp3169
sg58
g5
(g9
Ng13
tp3170
Rp3171
sg53
g5
(g9
Ng13
tp3172
Rp3173
ssS'format_'
p3174
(dp3175
g23
g5
(g9
Ng13
tp3176
Rp3177
ssS'currentOutput_'
p3178
(dp3179
g53
g5
(g9
Ng13
tp3180
Rp3181
ssS'reset'
p3182
(dp3183
g88
g5
(g9
Ng13
tp3184
Rp3185
ssS'b'
p3186
(dp3187
g78
g5
(g9
Ng13
tp3188
Rp3189
ssS'StringFormatter'
p3190
(dp3191
g23
g5
(g114
Ng13
tp3192
Rp3193
ssS'target'
p3194
(dp3195
g23
g5
(g114
Ng13
tp3196
Rp3197
ssS'ArrayRef'
p3198
(dp3199
g78
g5
(g114
Ng13
tp3200
Rp3201
sg166
g5
(g9
Ng13
tp3202
Rp3203
sg53
g5
(g9
Ng13
tp3204
Rp3205
ssS'type'
p3206
(dp3207
g103
g5
(g114
Ng13
tp3208
Rp3209
ssS'checkInteger'
p3210
(dp3211
g8
g5
(g9
Ng13
tp3212
Rp3213
sg18
g5
(g9
Ng13
tp3214
Rp3215
sg23
g5
(g9
Ng13
tp3216
Rp3217
sg28
g5
(g9
Ng13
tp3218
Rp3219
sg33
g5
(g9
Ng13
tp3220
Rp3221
sg38
g5
(g9
Ng13
tp3222
Rp3223
sg43
g5
(g9
Ng13
tp3224
Rp3225
sg48
g5
(g9
Ng13
tp3226
Rp3227
sg53
g5
(g9
Ng13
tp3228
Rp3229
sg58
g5
(g9
Ng13
tp3230
Rp3231
sg63
g5
(g9
Ng13
tp3232
Rp3233
sg68
g5
(g9
Ng13
tp3234
Rp3235
sg73
g5
(g9
Ng13
tp3236
Rp3237
sg78
g5
(g9
Ng13
tp3238
Rp3239
sg83
g5
(g9
Ng13
tp3240
Rp3241
sg88
g5
(g9
Ng13
tp3242
Rp3243
sg93
g5
(g9
Ng13
tp3244
Rp3245
sg98
g5
(g9
Ng13
tp3246
Rp3247
sg103
g5
(g9
Ng13
tp3248
Rp3249
ssS'operator()'
p3250
(dp3251
g23
g5
(g114
Ng13
tp3252
Rp3253
ssS'wrapToString'
p3254
(dp3255
g8
g5
(g9
Ng13
tp3256
Rp3257
sg18
g5
(g9
Ng13
tp3258
Rp3259
sg23
g5
(g9
Ng13
tp3260
Rp3261
sg28
g5
(g9
Ng13
tp3262
Rp3263
sg33
g5
(g9
Ng13
tp3264
Rp3265
sg38
g5
(g9
Ng13
tp3266
Rp3267
sg43
g5
(g9
Ng13
tp3268
Rp3269
sg48
g5
(g9
Ng13
tp3270
Rp3271
sg53
g5
(g9
Ng13
tp3272
Rp3273
sg58
g5
(g9
Ng13
tp3274
Rp3275
sg63
g5
(g9
Ng13
tp3276
Rp3277
sg68
g5
(g9
Ng13
tp3278
Rp3279
sg73
g5
(g9
Ng13
tp3280
Rp3281
sg78
g5
(g9
Ng13
tp3282
Rp3283
sg83
g5
(g9
Ng13
tp3284
Rp3285
sg88
g5
(g9
Ng13
tp3286
Rp3287
sg93
g5
(g9
Ng13
tp3288
Rp3289
sg98
g5
(g9
Ng13
tp3290
Rp3291
sg103
g5
(g9
Ng13
tp3292
Rp3293
ssS'value'
p3294
(dp3295
g23
g5
(g114
Ng13
tp3296
Rp3297
sg5
(Vtype_traits
p3298
NNtp3299
Rp3300
g5
(g114
Ng13
tp3301
Rp3302
sg53
g5
(g114
Ng13
tp3303
Rp3304
sg103
g5
(V32
p3305
Ng13
tp3306
Rp3307
ssS'inputStream'
p3308
(dp3309
g166
g5
(g9
Ng13
tp3310
Rp3311
sg53
g5
(g9
Ng13
tp3312
Rp3313
ssS'values'
p3314
(dp3315
g103
g5
(g9
Ng13
tp3316
Rp3317
ssS'str'
p3318
(dp3319
g23
g5
(V14
p3320
Ng13
tp3321
Rp3322
sg53
g5
(g9
Ng13
tp3323
Rp3324
ssS'formatStringV'
p3325
(dp3326
g8
g5
(g9
Ng13
tp3327
Rp3328
sg18
g5
(g9
Ng13
tp3329
Rp3330
sg23
g5
(g9
Ng13
tp3331
Rp3332
sg28
g5
(g9
Ng13
tp3333
Rp3334
sg33
g5
(g9
Ng13
tp3335
Rp3336
sg38
g5
(g9
Ng13
tp3337
Rp3338
sg43
g5
(g9
Ng13
tp3339
Rp3340
sg48
g5
(g9
Ng13
tp3341
Rp3342
sg53
g5
(g9
Ng13
tp3343
Rp3344
sg58
g5
(g9
Ng13
tp3345
Rp3346
sg63
g5
(g9
Ng13
tp3347
Rp3348
sg68
g5
(g9
Ng13
tp3349
Rp3350
sg73
g5
(g9
Ng13
tp3351
Rp3352
sg78
g5
(g9
Ng13
tp3353
Rp3354
sg83
g5
(g9
Ng13
tp3355
Rp3356
sg88
g5
(g9
Ng13
tp3357
Rp3358
sg93
g5
(g9
Ng13
tp3359
Rp3360
sg98
g5
(g9
Ng13
tp3361
Rp3362
sg103
g5
(g9
Ng13
tp3363
Rp3364
ssS'indent_'
p3365
(dp3366
g23
g5
(g9
Ng13
tp3367
Rp3368
ssS'inputStream_'
p3369
(dp3370
g53
g5
(g9
Ng13
tp3371
Rp3372
ssS'ptr_'
p3373
(dp3374
g88
g5
(g9
Ng13
tp3375
Rp3376
ssS'compare'
p3377
(dp3378
g8
g5
(g9
Ng13
tp3379
Rp3380
sg18
g5
(g9
Ng13
tp3381
Rp3382
sg23
g5
(g9
Ng13
tp3383
Rp3384
sg28
g5
(g9
Ng13
tp3385
Rp3386
sg33
g5
(g9
Ng13
tp3387
Rp3388
sg38
g5
(g9
Ng13
tp3389
Rp3390
sg43
g5
(g9
Ng13
tp3391
Rp3392
sg48
g5
(g9
Ng13
tp3393
Rp3394
sg53
g5
(g9
Ng13
tp3395
Rp3396
sg58
g5
(g9
Ng13
tp3397
Rp3398
sg63
g5
(g9
Ng13
tp3399
Rp3400
sg68
g5
(g9
Ng13
tp3401
Rp3402
sg73
g5
(g9
Ng13
tp3403
Rp3404
sg78
g5
(g9
Ng13
tp3405
Rp3406
sg83
g5
(g9
Ng13
tp3407
Rp3408
sg88
g5
(g9
Ng13
tp3409
Rp3410
sg93
g5
(g9
Ng13
tp3411
Rp3412
sg98
g5
(g9
Ng13
tp3413
Rp3414
sg103
g5
(g9
Ng13
tp3415
Rp3416
ssS'addOutput'
p3417
(dp3418
g53
g5
(g9
Ng13
tp3419
Rp3420
ssS'rend'
p3421
(dp3422
g78
g5
(g9
Ng13
tp3423
Rp3424
ssS'MockTextInputStream'
p3425
(dp3426
g53
g5
(g9
Ng13
tp3427
Rp3428
ssS'delim'
p3429
(dp3430
g23
g5
(g114
Ng13
tp3431
Rp3432
ssS'checkBoolean'
p3433
(dp3434
g8
g5
(g9
Ng13
tp3435
Rp3436
sg18
g5
(g9
Ng13
tp3437
Rp3438
sg23
g5
(g9
Ng13
tp3439
Rp3440
sg28
g5
(g9
Ng13
tp3441
Rp3442
sg33
g5
(g9
Ng13
tp3443
Rp3444
sg38
g5
(g9
Ng13
tp3445
Rp3446
sg43
g5
(g9
Ng13
tp3447
Rp3448
sg48
g5
(g9
Ng13
tp3449
Rp3450
sg53
g5
(g9
Ng13
tp3451
Rp3452
sg58
g5
(g9
Ng13
tp3453
Rp3454
sg63
g5
(g9
Ng13
tp3455
Rp3456
sg68
g5
(g9
Ng13
tp3457
Rp3458
sg73
g5
(g9
Ng13
tp3459
Rp3460
sg78
g5
(g9
Ng13
tp3461
Rp3462
sg83
g5
(g9
Ng13
tp3463
Rp3464
sg88
g5
(g9
Ng13
tp3465
Rp3466
sg93
g5
(g9
Ng13
tp3467
Rp3468
sg98
g5
(g9
Ng13
tp3469
Rp3470
sg103
g5
(g9
Ng13
tp3471
Rp3472
ssS'ap'
p3473
(dp3474
g23
g5
(g9
Ng13
tp3475
Rp3476
ssS'currentLine_'
p3477
(dp3478
g53
g5
(g9
Ng13
tp3479
Rp3480
ssS'o'
p3481
(dp3482
g78
g5
(g9
Ng13
tp3483
Rp3484
ssS'file'
p3485
(dp3486
g58
g5
(g9
Ng13
tp3487
Rp3488
ssS'firstLineIndent_'
p3489
(dp3490
g23
g5
(g9
Ng13
tp3491
Rp3492
ssS'bHasOutput_'
p3493
(dp3494
g53
g5
(g9
Ng13
tp3495
Rp3496
ssS'strlen'
p3497
(dp3498
g23
g5
(g9
Ng13
tp3499
Rp3500
sg1159
g5
(g9
Ng13
tp3501
Rp3502
ssS'ssize'
p3503
(dp3504
g78
g5
(g9
Ng13
tp3505
Rp3506
sg83
g5
(g9
Ng13
tp3507
Rp3508
ssS'inputLines'
p3509
(dp3510
g166
g5
(g9
Ng13
tp3511
Rp3512
sg53
g5
(g9
Ng13
tp3513
Rp3514
ssS'KeyValueTreeObject'
p3515
(dp3516
g8
g5
(g9
Ng13
tp3517
Rp3518
sg18
g5
(g9
Ng13
tp3519
Rp3520
sg23
g5
(g9
Ng13
tp3521
Rp3522
sg28
g5
(g9
Ng13
tp3523
Rp3524
sg33
g5
(g9
Ng13
tp3525
Rp3526
sg38
g5
(g9
Ng13
tp3527
Rp3528
sg43
g5
(g9
Ng13
tp3529
Rp3530
sg48
g5
(g9
Ng13
tp3531
Rp3532
sg53
g5
(g9
Ng13
tp3533
Rp3534
sg58
g5
(g9
Ng13
tp3535
Rp3536
sg63
g5
(g9
Ng13
tp3537
Rp3538
sg68
g5
(g9
Ng13
tp3539
Rp3540
sg73
g5
(g9
Ng13
tp3541
Rp3542
sg78
g5
(g9
Ng13
tp3543
Rp3544
sg83
g5
(g9
Ng13
tp3545
Rp3546
sg88
g5
(g9
Ng13
tp3547
Rp3548
sg93
g5
(g9
Ng13
tp3549
Rp3550
sg98
g5
(g9
Ng13
tp3551
Rp3552
sg103
g5
(g9
Ng13
tp3553
Rp3554
ssS'end'
p3555
(dp3556
g78
g5
(g114
Ng13
tp3557
Rp3558
sg23
g5
(g114
Ng13
tp3559
Rp3560
sg103
g5
(g114
Ng13
tp3561
Rp3562
ssS'TextOutputStream'
p3563
(dp3564
g38
g5
(g9
Ng13
tp3565
Rp3566
sg166
g5
(g9
Ng13
tp3567
Rp3568
sg53
g5
(g9
Ng13
tp3569
Rp3570
ssS'stripString'
p3571
(dp3572
g8
g5
(g9
Ng13
tp3573
Rp3574
sg18
g5
(g9
Ng13
tp3575
Rp3576
sg23
g5
(g9
Ng13
tp3577
Rp3578
sg28
g5
(g9
Ng13
tp3579
Rp3580
sg33
g5
(g9
Ng13
tp3581
Rp3582
sg38
g5
(g9
Ng13
tp3583
Rp3584
sg43
g5
(g9
Ng13
tp3585
Rp3586
sg48
g5
(g9
Ng13
tp3587
Rp3588
sg53
g5
(g9
Ng13
tp3589
Rp3590
sg58
g5
(g9
Ng13
tp3591
Rp3592
sg63
g5
(g9
Ng13
tp3593
Rp3594
sg68
g5
(g9
Ng13
tp3595
Rp3596
sg73
g5
(g9
Ng13
tp3597
Rp3598
sg78
g5
(g9
Ng13
tp3599
Rp3600
sg83
g5
(g9
Ng13
tp3601
Rp3602
sg88
g5
(g9
Ng13
tp3603
Rp3604
sg93
g5
(g9
Ng13
tp3605
Rp3606
sg98
g5
(g9
Ng13
tp3607
Rp3608
sg103
g5
(g9
Ng13
tp3609
Rp3610
ssS'equalCaseInsensitive'
p3611
(dp3612
g8
g5
(g9
Ng13
tp3613
Rp3614
sg18
g5
(g9
Ng13
tp3615
Rp3616
sg23
g5
(g9
Ng13
tp3617
Rp3618
sg28
g5
(g9
Ng13
tp3619
Rp3620
sg33
g5
(g9
Ng13
tp3621
Rp3622
sg38
g5
(g9
Ng13
tp3623
Rp3624
sg43
g5
(g9
Ng13
tp3625
Rp3626
sg48
g5
(g9
Ng13
tp3627
Rp3628
sg53
g5
(g9
Ng13
tp3629
Rp3630
sg58
g5
(g9
Ng13
tp3631
Rp3632
sg63
g5
(g9
Ng13
tp3633
Rp3634
sg68
g5
(g9
Ng13
tp3635
Rp3636
sg73
g5
(g9
Ng13
tp3637
Rp3638
sg78
g5
(g9
Ng13
tp3639
Rp3640
sg83
g5
(g9
Ng13
tp3641
Rp3642
sg88
g5
(g9
Ng13
tp3643
Rp3644
sg93
g5
(g9
Ng13
tp3645
Rp3646
sg98
g5
(g9
Ng13
tp3647
Rp3648
sg103
g5
(g9
Ng13
tp3649
Rp3650
ssS'checkDouble'
p3651
(dp3652
g8
g5
(g9
Ng13
tp3653
Rp3654
sg18
g5
(g9
Ng13
tp3655
Rp3656
sg23
g5
(g9
Ng13
tp3657
Rp3658
sg28
g5
(g9
Ng13
tp3659
Rp3660
sg33
g5
(g9
Ng13
tp3661
Rp3662
sg38
g5
(g9
Ng13
tp3663
Rp3664
sg43
g5
(g9
Ng13
tp3665
Rp3666
sg48
g5
(g9
Ng13
tp3667
Rp3668
sg53
g5
(g9
Ng13
tp3669
Rp3670
sg58
g5
(g9
Ng13
tp3671
Rp3672
sg63
g5
(g9
Ng13
tp3673
Rp3674
sg68
g5
(g9
Ng13
tp3675
Rp3676
sg73
g5
(g9
Ng13
tp3677
Rp3678
sg78
g5
(g9
Ng13
tp3679
Rp3680
sg83
g5
(g9
Ng13
tp3681
Rp3682
sg88
g5
(g9
Ng13
tp3683
Rp3684
sg93
g5
(g9
Ng13
tp3685
Rp3686
sg98
g5
(g9
Ng13
tp3687
Rp3688
sg103
g5
(g9
Ng13
tp3689
Rp3690
ssS'TestReferenceDataImpl'
p3691
(dp3692
g8
g5
(g9
Ng13
tp3693
Rp3694
sg18
g5
(g9
Ng13
tp3695
Rp3696
sg23
g5
(g9
Ng13
tp3697
Rp3698
sg28
g5
(g9
Ng13
tp3699
Rp3700
sg33
g5
(g9
Ng13
tp3701
Rp3702
sg38
g5
(g9
Ng13
tp3703
Rp3704
sg43
g5
(g9
Ng13
tp3705
Rp3706
sg48
g5
(g9
Ng13
tp3707
Rp3708
sg53
g5
(g9
Ng13
tp3709
Rp3710
sg58
g5
(g9
Ng13
tp3711
Rp3712
sg63
g5
(g9
Ng13
tp3713
Rp3714
sg68
g5
(g9
Ng13
tp3715
Rp3716
sg73
g5
(g9
Ng13
tp3717
Rp3718
sg78
g5
(g9
Ng13
tp3719
Rp3720
sg83
g5
(g9
Ng13
tp3721
Rp3722
sg88
g5
(g9
Ng13
tp3723
Rp3724
sg93
g5
(g9
Ng13
tp3725
Rp3726
sg98
g5
(g9
Ng13
tp3727
Rp3728
sg103
g5
(g9
Ng13
tp3729
Rp3730
ssS'settings_'
p3731
(dp3732
g23
g5
(g9
Ng13
tp3733
Rp3734
ssS'readFloat'
p3735
(dp3736
g8
g5
(g9
Ng13
tp3737
Rp3738
sg18
g5
(g9
Ng13
tp3739
Rp3740
sg23
g5
(g9
Ng13
tp3741
Rp3742
sg28
g5
(g9
Ng13
tp3743
Rp3744
sg33
g5
(g9
Ng13
tp3745
Rp3746
sg38
g5
(g9
Ng13
tp3747
Rp3748
sg43
g5
(g9
Ng13
tp3749
Rp3750
sg48
g5
(g9
Ng13
tp3751
Rp3752
sg53
g5
(g9
Ng13
tp3753
Rp3754
sg58
g5
(g9
Ng13
tp3755
Rp3756
sg63
g5
(g9
Ng13
tp3757
Rp3758
sg68
g5
(g9
Ng13
tp3759
Rp3760
sg73
g5
(g9
Ng13
tp3761
Rp3762
sg78
g5
(g9
Ng13
tp3763
Rp3764
sg83
g5
(g9
Ng13
tp3765
Rp3766
sg88
g5
(g9
Ng13
tp3767
Rp3768
sg93
g5
(g9
Ng13
tp3769
Rp3770
sg98
g5
(g9
Ng13
tp3771
Rp3772
sg103
g5
(g9
Ng13
tp3773
Rp3774
ssS'findNextLine'
p3775
(dp3776
g8
g5
(g9
Ng13
tp3777
Rp3778
sg18
g5
(g9
Ng13
tp3779
Rp3780
sg23
g5
(g9
Ng13
tp3781
Rp3782
sg28
g5
(g9
Ng13
tp3783
Rp3784
sg33
g5
(g9
Ng13
tp3785
Rp3786
sg38
g5
(g9
Ng13
tp3787
Rp3788
sg43
g5
(g9
Ng13
tp3789
Rp3790
sg48
g5
(g9
Ng13
tp3791
Rp3792
sg53
g5
(g9
Ng13
tp3793
Rp3794
sg58
g5
(g9
Ng13
tp3795
Rp3796
sg63
g5
(g9
Ng13
tp3797
Rp3798
sg68
g5
(g9
Ng13
tp3799
Rp3800
sg73
g5
(g9
Ng13
tp3801
Rp3802
sg78
g5
(g9
Ng13
tp3803
Rp3804
sg83
g5
(g9
Ng13
tp3805
Rp3806
sg88
g5
(g9
Ng13
tp3807
Rp3808
sg93
g5
(g9
Ng13
tp3809
Rp3810
sg98
g5
(g9
Ng13
tp3811
Rp3812
sg103
g5
(g9
Ng13
tp3813
Rp3814
ssS's'
p3815
(dp3816
g23
g5
(g9
Ng13
tp3817
Rp3818
ssS'checkUChar'
p3819
(dp3820
g8
g5
(g9
Ng13
tp3821
Rp3822
sg18
g5
(g9
Ng13
tp3823
Rp3824
sg23
g5
(g9
Ng13
tp3825
Rp3826
sg28
g5
(g9
Ng13
tp3827
Rp3828
sg33
g5
(g9
Ng13
tp3829
Rp3830
sg38
g5
(g9
Ng13
tp3831
Rp3832
sg43
g5
(g9
Ng13
tp3833
Rp3834
sg48
g5
(g9
Ng13
tp3835
Rp3836
sg53
g5
(g9
Ng13
tp3837
Rp3838
sg58
g5
(g9
Ng13
tp3839
Rp3840
sg63
g5
(g9
Ng13
tp3841
Rp3842
sg68
g5
(g9
Ng13
tp3843
Rp3844
sg73
g5
(g9
Ng13
tp3845
Rp3846
sg78
g5
(g9
Ng13
tp3847
Rp3848
sg83
g5
(g9
Ng13
tp3849
Rp3850
sg88
g5
(g9
Ng13
tp3851
Rp3852
sg93
g5
(g9
Ng13
tp3853
Rp3854
sg98
g5
(g9
Ng13
tp3855
Rp3856
sg103
g5
(g9
Ng13
tp3857
Rp3858
ssS'write'
p3859
(dp3860
g8
g5
(g9
Ng13
tp3861
Rp3862
sg18
g5
(g9
Ng13
tp3863
Rp3864
sg23
g5
(g9
Ng13
tp3865
Rp3866
sg28
g5
(g9
Ng13
tp3867
Rp3868
sg33
g5
(g9
Ng13
tp3869
Rp3870
sg38
g5
(g9
Ng13
tp3871
Rp3872
sg43
g5
(g9
Ng13
tp3873
Rp3874
sg48
g5
(g9
Ng13
tp3875
Rp3876
sg53
g5
(g114
Ng13
tp3877
Rp3878
sg58
g5
(g9
Ng13
tp3879
Rp3880
sg63
g5
(g9
Ng13
tp3881
Rp3882
sg68
g5
(g9
Ng13
tp3883
Rp3884
sg73
g5
(g9
Ng13
tp3885
Rp3886
sg78
g5
(g9
Ng13
tp3887
Rp3888
sg83
g5
(g9
Ng13
tp3889
Rp3890
sg88
g5
(g9
Ng13
tp3891
Rp3892
sg93
g5
(g9
Ng13
tp3893
Rp3894
sg98
g5
(g9
Ng13
tp3895
Rp3896
sg103
g5
(g9
Ng13
tp3897
Rp3898
ssS'other'
p3899
(dp3900
g78
g5
(g9
Ng13
tp3901
Rp3902
sg88
g5
(g301
Ng13
tp3903
Rp3904
sg103
g5
(g594
Ng13
tp3905
Rp3906
ssS'setInputLines'
p3907
(dp3908
g166
g5
(g9
Ng13
tp3909
Rp3910
sg53
g5
(g9
Ng13
tp3911
Rp3912
ssS'With'
p3913
(dp3914
g8
g5
(g9
Ng13
tp3915
Rp3916
sg18
g5
(g9
Ng13
tp3917
Rp3918
sg23
g5
(g9
Ng13
tp3919
Rp3920
sg28
g5
(g9
Ng13
tp3921
Rp3922
sg33
g5
(g9
Ng13
tp3923
Rp3924
sg38
g5
(g9
Ng13
tp3925
Rp3926
sg43
g5
(g9
Ng13
tp3927
Rp3928
sg48
g5
(g9
Ng13
tp3929
Rp3930
sg53
g5
(g9
Ng13
tp3931
Rp3932
sg58
g5
(g9
Ng13
tp3933
Rp3934
sg63
g5
(g9
Ng13
tp3935
Rp3936
sg68
g5
(g9
Ng13
tp3937
Rp3938
sg73
g5
(g9
Ng13
tp3939
Rp3940
sg78
g5
(g9
Ng13
tp3941
Rp3942
sg83
g5
(g9
Ng13
tp3943
Rp3944
sg88
g5
(g9
Ng13
tp3945
Rp3946
sg93
g5
(g9
Ng13
tp3947
Rp3948
sg98
g5
(g9
Ng13
tp3949
Rp3950
sg103
g5
(g9
Ng13
tp3951
Rp3952
ssS'bInclude'
p3953
(dp3954
g166
g5
(g9
Ng13
tp3955
Rp3956
sg53
g5
(g9
Ng13
tp3957
Rp3958
ssS'begin'
p3959
(dp3960
g78
g5
(g301
Ng13
tp3961
Rp3962
sg23
g5
(g114
Ng13
tp3963
Rp3964
sg103
g5
(g114
Ng13
tp3965
Rp3966
ssS'gmock1_write_79'
p3967
(dp3968
g53
g5
(g9
Ng13
tp3969
Rp3970
ssS'setLineLength'
p3971
(dp3972
g23
g5
(g9
Ng13
tp3973
Rp3974
ssS'isValid'
p3975
(dp3976
g8
g5
(g9
Ng13
tp3977
Rp3978
sg18
g5
(g9
Ng13
tp3979
Rp3980
sg23
g5
(g9
Ng13
tp3981
Rp3982
sg28
g5
(g9
Ng13
tp3983
Rp3984
sg33
g5
(g9
Ng13
tp3985
Rp3986
sg38
g5
(g9
Ng13
tp3987
Rp3988
sg43
g5
(g9
Ng13
tp3989
Rp3990
sg48
g5
(g9
Ng13
tp3991
Rp3992
sg53
g5
(g9
Ng13
tp3993
Rp3994
sg58
g5
(g9
Ng13
tp3995
Rp3996
sg63
g5
(g9
Ng13
tp3997
Rp3998
sg68
g5
(g9
Ng13
tp3999
Rp4000
sg73
g5
(g9
Ng13
tp4001
Rp4002
sg78
g5
(g9
Ng13
tp4003
Rp4004
sg83
g5
(g9
Ng13
tp4005
Rp4006
sg88
g5
(g9
Ng13
tp4007
Rp4008
sg93
g5
(g9
Ng13
tp4009
Rp4010
sg98
g5
(g9
Ng13
tp4011
Rp4012
sg103
g5
(g9
Ng13
tp4013
Rp4014
ssS'rootChecker'
p4015
(dp4016
g8
g5
(g9
Ng13
tp4017
Rp4018
sg18
g5
(g9
Ng13
tp4019
Rp4020
sg23
g5
(g9
Ng13
tp4021
Rp4022
sg28
g5
(g9
Ng13
tp4023
Rp4024
sg33
g5
(g9
Ng13
tp4025
Rp4026
sg38
g5
(g9
Ng13
tp4027
Rp4028
sg43
g5
(g9
Ng13
tp4029
Rp4030
sg48
g5
(g9
Ng13
tp4031
Rp4032
sg53
g5
(g9
Ng13
tp4033
Rp4034
sg58
g5
(g9
Ng13
tp4035
Rp4036
sg63
g5
(g9
Ng13
tp4037
Rp4038
sg68
g5
(g9
Ng13
tp4039
Rp4040
sg73
g5
(g9
Ng13
tp4041
Rp4042
sg78
g5
(g9
Ng13
tp4043
Rp4044
sg83
g5
(g9
Ng13
tp4045
Rp4046
sg88
g5
(g9
Ng13
tp4047
Rp4048
sg93
g5
(g9
Ng13
tp4049
Rp4050
sg98
g5
(g9
Ng13
tp4051
Rp4052
sg103
g5
(g9
Ng13
tp4053
Rp4054
ssS'TextInputStream'
p4055
(dp4056
g38
g5
(g9
Ng13
tp4057
Rp4058
sg166
g5
(g9
Ng13
tp4059
Rp4060
sg53
g5
(g9
Ng13
tp4061
Rp4062
ssS'container'
p4063
(dp4064
g23
g5
(g114
Ng13
tp4065
Rp4066
ssS'gmock1_readLine_72'
p4067
(dp4068
g53
g5
(g9
Ng13
tp4069
Rp4070
ssS'data'
p4071
(dp4072
g78
g5
(g9
Ng13
tp4073
Rp4074
ssS'Impl'
p4075
(dp4076
g8
g5
(g9
Ng13
tp4077
Rp4078
sg18
g5
(g9
Ng13
tp4079
Rp4080
sg23
g5
(g9
Ng13
tp4081
Rp4082
sg28
g5
(g9
Ng13
tp4083
Rp4084
sg33
g5
(g9
Ng13
tp4085
Rp4086
sg38
g5
(g9
Ng13
tp4087
Rp4088
sg43
g5
(g9
Ng13
tp4089
Rp4090
sg48
g5
(g9
Ng13
tp4091
Rp4092
sg166
g5
(g9
Ng13
tp4093
Rp4094
sg53
g5
(g594
Ng13
tp4095
Rp4096
sg58
g5
(g9
Ng13
tp4097
Rp4098
sg63
g5
(g9
Ng13
tp4099
Rp4100
sg68
g5
(g9
Ng13
tp4101
Rp4102
sg73
g5
(g9
Ng13
tp4103
Rp4104
sg78
g5
(g9
Ng13
tp4105
Rp4106
sg83
g5
(g9
Ng13
tp4107
Rp4108
sg88
g5
(g114
Ng13
tp4109
Rp4110
sg93
g5
(g9
Ng13
tp4111
Rp4112
sg98
g5
(g9
Ng13
tp4113
Rp4114
sg103
g5
(g9
Ng13
tp4115
Rp4116
ssS'lineStart'
p4117
(dp4118
g23
g5
(g594
Ng13
tp4119
Rp4120
ssS'a'
p4121
(dp4122
g78
g5
(g9
Ng13
tp4123
Rp4124
ssS'readInt32'
p4125
(dp4126
g8
g5
(g9
Ng13
tp4127
Rp4128
sg18
g5
(g9
Ng13
tp4129
Rp4130
sg23
g5
(g9
Ng13
tp4131
Rp4132
sg28
g5
(g9
Ng13
tp4133
Rp4134
sg33
g5
(g9
Ng13
tp4135
Rp4136
sg38
g5
(g9
Ng13
tp4137
Rp4138
sg43
g5
(g9
Ng13
tp4139
Rp4140
sg48
g5
(g9
Ng13
tp4141
Rp4142
sg53
g5
(g9
Ng13
tp4143
Rp4144
sg58
g5
(g9
Ng13
tp4145
Rp4146
sg63
g5
(g9
Ng13
tp4147
Rp4148
sg68
g5
(g9
Ng13
tp4149
Rp4150
sg73
g5
(g9
Ng13
tp4151
Rp4152
sg78
g5
(g9
Ng13
tp4153
Rp4154
sg83
g5
(g9
Ng13
tp4155
Rp4156
sg88
g5
(g9
Ng13
tp4157
Rp4158
sg93
g5
(g9
Ng13
tp4159
Rp4160
sg98
g5
(g9
Ng13
tp4161
Rp4162
sg103
g5
(g9
Ng13
tp4163
Rp4164
ssS'checkItem'
p4165
(dp4166
g103
g5
(g9
Ng13
tp4167
Rp4168
ssS'Invoke'
p4169
(dp4170
g8
g5
(g9
Ng13
tp4171
Rp4172
sg18
g5
(g9
Ng13
tp4173
Rp4174
sg23
g5
(g9
Ng13
tp4175
Rp4176
sg28
g5
(g9
Ng13
tp4177
Rp4178
sg33
g5
(g9
Ng13
tp4179
Rp4180
sg38
g5
(g9
Ng13
tp4181
Rp4182
sg43
g5
(g9
Ng13
tp4183
Rp4184
sg48
g5
(g9
Ng13
tp4185
Rp4186
sg53
g5
(g9
Ng13
tp4187
Rp4188
sg58
g5
(g9
Ng13
tp4189
Rp4190
sg63
g5
(g9
Ng13
tp4191
Rp4192
sg68
g5
(g9
Ng13
tp4193
Rp4194
sg73
g5
(g9
Ng13
tp4195
Rp4196
sg78
g5
(g9
Ng13
tp4197
Rp4198
sg83
g5
(g9
Ng13
tp4199
Rp4200
sg88
g5
(g9
Ng13
tp4201
Rp4202
sg93
g5
(g9
Ng13
tp4203
Rp4204
sg98
g5
(g9
Ng13
tp4205
Rp4206
sg103
g5
(g9
Ng13
tp4207
Rp4208
ssS'bKeepFinalSpaces_'
p4209
(dp4210
g23
g5
(g9
Ng13
tp4211
Rp4212
ssS'i'
p4213
(dp4214
g23
g5
(g9
Ng13
tp4215
Rp4216
sg103
g5
(g114
Ng13
tp4217
Rp4218
ssS'clear'
p4219
(dp4220
g8
g5
(g9
Ng13
tp4221
Rp4222
sg18
g5
(g9
Ng13
tp4223
Rp4224
sg23
g5
(g9
Ng13
tp4225
Rp4226
sg28
g5
(g9
Ng13
tp4227
Rp4228
sg33
g5
(g9
Ng13
tp4229
Rp4230
sg38
g5
(g9
Ng13
tp4231
Rp4232
sg43
g5
(g9
Ng13
tp4233
Rp4234
sg48
g5
(g9
Ng13
tp4235
Rp4236
sg53
g5
(g9
Ng13
tp4237
Rp4238
sg58
g5
(g9
Ng13
tp4239
Rp4240
sg63
g5
(g9
Ng13
tp4241
Rp4242
sg68
g5
(g9
Ng13
tp4243
Rp4244
sg73
g5
(g9
Ng13
tp4245
Rp4246
sg78
g5
(g9
Ng13
tp4247
Rp4248
sg83
g5
(g9
Ng13
tp4249
Rp4250
sg88
g5
(g9
Ng13
tp4251
Rp4252
sg93
g5
(g9
Ng13
tp4253
Rp4254
sg98
g5
(g9
Ng13
tp4255
Rp4256
sg103
g5
(g9
Ng13
tp4257
Rp4258
ssS'checkRealFromString'
p4259
(dp4260
g8
g5
(g9
Ng13
tp4261
Rp4262
sg18
g5
(g9
Ng13
tp4263
Rp4264
sg23
g5
(g9
Ng13
tp4265
Rp4266
sg28
g5
(g9
Ng13
tp4267
Rp4268
sg33
g5
(g9
Ng13
tp4269
Rp4270
sg38
g5
(g9
Ng13
tp4271
Rp4272
sg43
g5
(g9
Ng13
tp4273
Rp4274
sg48
g5
(g9
Ng13
tp4275
Rp4276
sg53
g5
(g9
Ng13
tp4277
Rp4278
sg58
g5
(g9
Ng13
tp4279
Rp4280
sg63
g5
(g9
Ng13
tp4281
Rp4282
sg68
g5
(g9
Ng13
tp4283
Rp4284
sg73
g5
(g9
Ng13
tp4285
Rp4286
sg78
g5
(g9
Ng13
tp4287
Rp4288
sg83
g5
(g9
Ng13
tp4289
Rp4290
sg88
g5
(g9
Ng13
tp4291
Rp4292
sg93
g5
(g9
Ng13
tp4293
Rp4294
sg98
g5
(g9
Ng13
tp4295
Rp4296
sg103
g5
(g9
Ng13
tp4297
Rp4298
ssS'checkEmptySequence'
p4299
(dp4300
g8
g5
(g9
Ng13
tp4301
Rp4302
sg18
g5
(g9
Ng13
tp4303
Rp4304
sg23
g5
(g9
Ng13
tp4305
Rp4306
sg28
g5
(g9
Ng13
tp4307
Rp4308
sg33
g5
(g9
Ng13
tp4309
Rp4310
sg38
g5
(g9
Ng13
tp4311
Rp4312
sg43
g5
(g9
Ng13
tp4313
Rp4314
sg48
g5
(g9
Ng13
tp4315
Rp4316
sg53
g5
(g9
Ng13
tp4317
Rp4318
sg58
g5
(g9
Ng13
tp4319
Rp4320
sg63
g5
(g9
Ng13
tp4321
Rp4322
sg68
g5
(g9
Ng13
tp4323
Rp4324
sg73
g5
(g9
Ng13
tp4325
Rp4326
sg78
g5
(g9
Ng13
tp4327
Rp4328
sg83
g5
(g9
Ng13
tp4329
Rp4330
sg88
g5
(g9
Ng13
tp4331
Rp4332
sg93
g5
(g9
Ng13
tp4333
Rp4334
sg98
g5
(g9
Ng13
tp4335
Rp4336
sg103
g5
(g9
Ng13
tp4337
Rp4338
ssS'assign'
p4339
(dp4340
g8
g5
(g9
Ng13
tp4341
Rp4342
sg18
g5
(g9
Ng13
tp4343
Rp4344
sg23
g5
(g9
Ng13
tp4345
Rp4346
sg28
g5
(g9
Ng13
tp4347
Rp4348
sg33
g5
(g9
Ng13
tp4349
Rp4350
sg38
g5
(g9
Ng13
tp4351
Rp4352
sg43
g5
(g9
Ng13
tp4353
Rp4354
sg48
g5
(g9
Ng13
tp4355
Rp4356
sg53
g5
(g9
Ng13
tp4357
Rp4358
sg58
g5
(g9
Ng13
tp4359
Rp4360
sg63
g5
(g9
Ng13
tp4361
Rp4362
sg68
g5
(g9
Ng13
tp4363
Rp4364
sg73
g5
(g9
Ng13
tp4365
Rp4366
sg78
g5
(g9
Ng13
tp4367
Rp4368
sg83
g5
(g9
Ng13
tp4369
Rp4370
sg88
g5
(g9
Ng13
tp4371
Rp4372
sg93
g5
(g9
Ng13
tp4373
Rp4374
sg98
g5
(g9
Ng13
tp4375
Rp4376
sg103
g5
(g9
Ng13
tp4377
Rp4378
ssS'checkKeyValueTreeValue'
p4379
(dp4380
g8
g5
(g9
Ng13
tp4381
Rp4382
sg18
g5
(g9
Ng13
tp4383
Rp4384
sg23
g5
(g9
Ng13
tp4385
Rp4386
sg28
g5
(g9
Ng13
tp4387
Rp4388
sg33
g5
(g9
Ng13
tp4389
Rp4390
sg38
g5
(g9
Ng13
tp4391
Rp4392
sg43
g5
(g9
Ng13
tp4393
Rp4394
sg48
g5
(g9
Ng13
tp4395
Rp4396
sg53
g5
(g9
Ng13
tp4397
Rp4398
sg58
g5
(g9
Ng13
tp4399
Rp4400
sg63
g5
(g9
Ng13
tp4401
Rp4402
sg68
g5
(g9
Ng13
tp4403
Rp4404
sg73
g5
(g9
Ng13
tp4405
Rp4406
sg78
g5
(g9
Ng13
tp4407
Rp4408
sg83
g5
(g9
Ng13
tp4409
Rp4410
sg88
g5
(g9
Ng13
tp4411
Rp4412
sg93
g5
(g9
Ng13
tp4413
Rp4414
sg98
g5
(g9
Ng13
tp4415
Rp4416
sg103
g5
(g9
Ng13
tp4417
Rp4418
ssS'endsWith'
p4419
(dp4420
g8
g5
(g9
Ng13
tp4421
Rp4422
sg18
g5
(g9
Ng13
tp4423
Rp4424
sg23
g5
(g594
Ng13
tp4425
Rp4426
sg28
g5
(g9
Ng13
tp4427
Rp4428
sg33
g5
(g9
Ng13
tp4429
Rp4430
sg38
g5
(g9
Ng13
tp4431
Rp4432
sg43
g5
(g9
Ng13
tp4433
Rp4434
sg48
g5
(g9
Ng13
tp4435
Rp4436
sg53
g5
(g9
Ng13
tp4437
Rp4438
sg58
g5
(g9
Ng13
tp4439
Rp4440
sg63
g5
(g9
Ng13
tp4441
Rp4442
sg68
g5
(g9
Ng13
tp4443
Rp4444
sg73
g5
(g9
Ng13
tp4445
Rp4446
sg78
g5
(g9
Ng13
tp4447
Rp4448
sg83
g5
(g9
Ng13
tp4449
Rp4450
sg88
g5
(g9
Ng13
tp4451
Rp4452
sg93
g5
(g9
Ng13
tp4453
Rp4454
sg98
g5
(g9
Ng13
tp4455
Rp4456
sg103
g5
(g9
Ng13
tp4457
Rp4458
ssS'npos'
p4459
(dp4460
g5
(Vbasic_string.tcc
p4461
NNtp4462
Rp4463
g5
(g9
Ng13
tp4464
Rp4465
sg23
g5
(g9
Ng13
tp4466
Rp4467
ssS'splitString'
p4468
(dp4469
g8
g5
(g9
Ng13
tp4470
Rp4471
sg18
g5
(g9
Ng13
tp4472
Rp4473
sg23
g5
(g9
Ng13
tp4474
Rp4475
sg28
g5
(g9
Ng13
tp4476
Rp4477
sg33
g5
(g9
Ng13
tp4478
Rp4479
sg38
g5
(g9
Ng13
tp4480
Rp4481
sg43
g5
(g9
Ng13
tp4482
Rp4483
sg48
g5
(g9
Ng13
tp4484
Rp4485
sg53
g5
(g9
Ng13
tp4486
Rp4487
sg58
g5
(g9
Ng13
tp4488
Rp4489
sg63
g5
(g9
Ng13
tp4490
Rp4491
sg68
g5
(g9
Ng13
tp4492
Rp4493
sg73
g5
(g9
Ng13
tp4494
Rp4495
sg78
g5
(g9
Ng13
tp4496
Rp4497
sg83
g5
(g9
Ng13
tp4498
Rp4499
sg88
g5
(g9
Ng13
tp4500
Rp4501
sg93
g5
(g9
Ng13
tp4502
Rp4503
sg98
g5
(g9
Ng13
tp4504
Rp4505
sg103
g5
(g9
Ng13
tp4506
Rp4507
ssS'at'
p4508
(dp4509
g78
g5
(g9
Ng13
tp4510
Rp4511
ssS'checkFileContents'
p4512
(dp4513
g8
g5
(g9
Ng13
tp4514
Rp4515
sg18
g5
(g9
Ng13
tp4516
Rp4517
sg23
g5
(g9
Ng13
tp4518
Rp4519
sg28
g5
(g9
Ng13
tp4520
Rp4521
sg33
g5
(g9
Ng13
tp4522
Rp4523
sg38
g5
(g9
Ng13
tp4524
Rp4525
sg43
g5
(g9
Ng13
tp4526
Rp4527
sg48
g5
(g9
Ng13
tp4528
Rp4529
sg53
g5
(g9
Ng13
tp4530
Rp4531
sg58
g5
(g9
Ng13
tp4532
Rp4533
sg63
g5
(g9
Ng13
tp4534
Rp4535
sg68
g5
(g9
Ng13
tp4536
Rp4537
sg73
g5
(g9
Ng13
tp4538
Rp4539
sg78
g5
(g9
Ng13
tp4540
Rp4541
sg83
g5
(g9
Ng13
tp4542
Rp4543
sg88
g5
(g9
Ng13
tp4544
Rp4545
sg93
g5
(g9
Ng13
tp4546
Rp4547
sg98
g5
(g9
Ng13
tp4548
Rp4549
sg103
g5
(g9
Ng13
tp4550
Rp4551
ss.