(dp0
S'problem_domain'
p1
ccollections
defaultdict
p2
(c__builtin__
set
p3
tp4
Rp5
sS'symbol'
p6
g2
(g3
tp7
Rp8
S''
p9
g3
((lp10
VParmDecl
p11
atp12
Rp13
sS'setDefaultTolerance'
p14
g3
((lp15
VCXXMethod
p16
atp17
Rp18
sS'func'
p19
g3
((lp20
g11
atp21
Rp22
sS'text'
p23
g3
((lp24
g11
atp25
Rp26
sS'move'
p27
g3
((lp28
VFunctionDecl
p29
atp30
Rp31
sS'InteractiveTestHelper'
p32
g3
((lp33
VClassDecl
p34
aVCXXConstructor
p35
atp36
Rp37
sS'KeyValueTreeValue'
p38
g3
((lp39
g34
atp40
Rp41
sS'rbegin'
p42
g3
((lp43
g16
atp44
Rp45
sS'prefix'
p46
g3
((lp47
g11
atp48
Rp49
sS'checkUnusedEntries'
p50
g3
((lp51
g16
atp52
Rp53
sS'checkUInt32'
p54
g3
((lp55
g16
atp56
Rp57
sS'FloatingPointTolerance'
p58
g3
((lp59
g34
atp60
Rp61
sS'filename'
p62
g3
((lp63
g11
atp64
Rp65
sS'find'
p66
g3
((lp67
g16
atp68
Rp69
sS'outputStream_'
p70
g3
((lp71
VFieldDecl
p72
atp73
Rp74
sS'gmock_readLine'
p75
g3
((lp76
g16
atp77
Rp78
sS'o'
p79
g3
((lp80
g11
atp81
Rp82
sS'outputStream'
p83
g3
((lp84
g16
atp85
Rp86
sS'stripSuffixIfPresent'
p87
g3
((lp88
g29
atp89
Rp90
sS'checkAny'
p91
g3
((lp92
g16
atp93
Rp94
sS'to'
p95
g3
((lp96
g11
atp97
Rp98
sS'InternalExpectedAt'
p99
g3
((lp100
g16
atp101
Rp102
sS'checkInt64'
p103
g3
((lp104
g16
atp105
Rp106
sS'bLastNewline_'
p107
g3
((lp108
g72
atp109
Rp110
sS'swap'
p111
g3
((lp112
g16
atp113
Rp114
sS'input'
p115
g3
((lp116
g11
atp117
Rp118
sS'lineEnd'
p119
g3
((lp120
g11
atp121
Rp122
sS'replaceAllWords'
p123
g3
((lp124
g29
atp125
Rp126
sS'count'
p127
g3
((lp128
g11
atp129
Rp130
sS'splitDelimitedString'
p131
g3
((lp132
g29
atp133
Rp134
sS'get'
p135
g3
((lp136
g16
atp137
Rp138
sS'checkValue'
p139
g3
((lp140
g16
atp141
Rp142
sS'setIndent'
p143
g3
((lp144
g16
atp145
Rp146
sS'checkTextBlock'
p147
g3
((lp148
g16
atp149
Rp150
sS'operator=='
p151
g3
((lp152
g16
atp153
Rp154
sS'TestReferenceData'
p155
g3
((lp156
g34
ag35
atp157
Rp158
sS'replaceAll'
p159
g3
((lp160
g29
atp161
Rp162
sS'initReferenceData'
p163
g3
((lp164
g29
atp165
Rp166
sS'checkKeyValueTreeObject'
p167
g3
((lp168
g16
atp169
Rp170
sS'compound'
p171
g3
((lp172
VVarDecl
p173
atp174
Rp175
sS'front'
p176
g3
((lp177
g16
atp178
Rp179
sS'readString'
p180
g3
((lp181
g16
atp182
Rp183
sS'inputLines_'
p184
g3
((lp185
g72
atp186
Rp187
sS'setLastNewline'
p188
g3
((lp189
g16
atp190
Rp191
sS'TextLineWrapper'
p192
g3
((lp193
g34
ag35
atp194
Rp195
sS'settings'
p196
g3
((lp197
g16
ag11
atp198
Rp199
sS'testFilename'
p200
g3
((lp201
g11
atp202
Rp203
sS't'
p204
g3
((lp205
g11
atp206
Rp207
sS'TextLineWrapperSettings'
p208
g3
((lp209
g34
ag35
atp210
Rp211
sS'checkCompound'
p212
g3
((lp213
g16
atp214
Rp215
sS'bKeep'
p216
g3
((lp217
g11
atp218
Rp219
sS'IOptionsContainer'
p220
g3
((lp221
g34
atp222
Rp223
sS'strncmp'
p224
g3
((lp225
g29
atp226
Rp227
sS'maxLengthOfComparison'
p228
g3
((lp229
g11
atp230
Rp231
sS'checkInt32'
p232
g3
((lp233
g16
atp234
Rp235
sS'checker_'
p236
g3
((lp237
g72
atp238
Rp239
sS'formatLine'
p240
g3
((lp241
g16
atp242
Rp243
sS'countWords'
p244
g3
((lp245
g29
atp246
Rp247
sS'checkOutput'
p248
g3
((lp249
g16
atp250
Rp251
sS'WillRepeatedly'
p252
g3
((lp253
g16
atp254
Rp255
sS'testFilesEqual'
p256
g3
((lp257
g16
atp258
Rp259
sS'Test'
p260
g3
((lp261
g34
atp262
Rp263
sS'PrivateImplPointer'
p264
g3
((lp265
g34
ag35
atp266
Rp267
sS'result'
p268
g3
((lp269
g173
atp270
Rp271
sS'checkVector'
p272
g3
((lp273
g16
atp274
Rp275
sS'id'
p276
g3
((lp277
g173
ag11
atp278
Rp279
sS'close'
p280
g3
((lp281
g16
atp282
Rp283
sS'n'
p284
g3
((lp285
g11
atp286
Rp287
sS'append'
p288
g3
((lp289
g16
atp290
Rp291
sS'lineLength'
p292
g3
((lp293
g16
atp294
Rp295
sS'startsWith'
p296
g3
((lp297
g29
atp298
Rp299
sS'operator->'
p300
g3
((lp301
g16
atp302
Rp303
sS'capacity'
p304
g3
((lp305
g16
atp306
Rp307
sS'refFilename'
p308
g3
((lp309
g11
atp310
Rp311
sS'continuationChar'
p312
g3
((lp313
g11
atp314
Rp315
sS'SetOwnerAndName'
p316
g3
((lp317
g16
atp318
Rp319
sS'ptr'
p320
g3
((lp321
g11
atp322
Rp323
sS'readInteger'
p324
g3
((lp325
g16
atp326
Rp327
sS'impl_'
p328
g3
((lp329
g72
atp330
Rp331
sS'gmock0_close_80'
p332
g3
((lp333
g72
atp334
Rp335
sS'values'
p336
g3
((lp337
g11
atp338
Rp339
sS'formatter'
p340
g3
((lp341
g11
atp342
Rp343
sS'tolerance'
p344
g3
((lp345
g11
atp346
Rp347
sS'mode'
p348
g3
((lp349
g11
atp350
Rp351
sS'out_of_range'
p352
g3
((lp353
g34
ag35
atp354
Rp355
sS'splitAndTrimDelimitedString'
p356
g3
((lp357
g29
atp358
Rp359
sS'firstLineIndent'
p360
g3
((lp361
g16
atp362
Rp363
sS'gmock_close'
p364
g3
((lp365
g16
atp366
Rp367
sS'RegisterOwner'
p368
g3
((lp369
g16
atp370
Rp371
sS'PrivateImplPointer<Impl>'
p372
g3
((lp373
g35
atp374
Rp375
sS'Times'
p376
g3
((lp377
g16
atp378
Rp379
sS'checkString'
p380
g3
((lp381
g16
atp382
Rp383
sS'end_'
p384
g3
((lp385
g72
atp386
Rp387
sS'checkUInt64'
p388
g3
((lp389
g16
atp390
Rp391
sS'gmock0_close_73'
p392
g3
((lp393
g72
atp394
Rp395
sS'subArray'
p396
g3
((lp397
g16
atp398
Rp399
sS'maxLength_'
p400
g3
((lp401
g72
atp402
Rp403
sS'b'
p404
g3
((lp405
g11
atp406
Rp407
sS'readLine'
p408
g3
((lp409
g16
atp410
Rp411
sS'gmock_a1'
p412
g3
((lp413
g11
atp414
Rp415
sS'checkSession'
p416
g3
((lp417
g16
atp418
Rp419
sS'c_str'
p420
g3
((lp421
g16
atp422
Rp423
sS'indent'
p424
g3
((lp425
g16
ag11
atp426
Rp427
sS'isTrivial'
p428
g3
((lp429
g16
atp430
Rp431
sS'formatString'
p432
g3
((lp433
g29
atp434
Rp435
sS'Any'
p436
g3
((lp437
g34
atp438
Rp439
sS'length'
p440
g3
((lp441
g173
ag16
ag11
atp442
Rp443
sS'separator'
p444
g3
((lp445
g11
atp446
Rp447
sS'impl'
p448
g3
((lp449
g11
atp450
Rp451
sS'MockTextOutputStream'
p452
g3
((lp453
g34
atp454
Rp455
sS'checkPresent'
p456
g3
((lp457
g16
atp458
Rp459
sS'readUChar'
p460
g3
((lp461
g16
atp462
Rp463
sS'assertHandler'
p464
g3
((lp465
g29
atp466
Rp467
sS'operator='
p468
g3
((lp469
g16
atp470
Rp471
sS'checkReal'
p472
g3
((lp473
g16
atp474
Rp475
sS'begin_'
p476
g3
((lp477
g72
atp478
Rp479
sS'format'
p480
g3
((lp481
g11
atp482
Rp483
sS'TestReferenceChecker'
p484
g3
((lp485
g34
ag35
atp486
Rp487
sS'IdentityFormatter'
p488
g3
((lp489
g34
ag35
atp490
Rp491
sS'setKeepFinalSpaces'
p492
g3
((lp493
g16
atp494
Rp495
sS'ReferenceDataMode'
p496
g3
((lp497
VEnumDecl
p498
atp499
Rp500
sS'substr'
p501
g3
((lp502
g11
atp503
Rp504
sS'operator*'
p505
g3
((lp506
g16
atp507
Rp508
sS'currentSeparator'
p509
g3
((lp510
g173
atp511
Rp512
sS'type'
p513
g3
((lp514
g11
atp515
Rp516
sS'array'
p517
g3
((lp518
g11
atp519
Rp520
sS'readInputLine'
p521
g3
((lp522
g16
atp523
Rp524
sS'size'
p525
g3
((lp526
g16
ag11
atp527
Rp528
sS'wrapToVector'
p529
g3
((lp530
g16
atp531
Rp532
sS'from'
p533
g3
((lp534
g11
atp535
Rp536
sS'basic_string'
p537
g3
((lp538
g35
atp539
Rp540
sS'source'
p541
g3
((lp542
g11
atp543
Rp544
sS'fmt'
p545
g3
((lp546
g11
atp547
Rp548
sS'contains'
p549
g3
((lp550
g29
atp551
Rp552
sS'readInt64'
p553
g3
((lp554
g16
atp555
Rp556
sS'gmock_write'
p557
g3
((lp558
g16
atp559
Rp560
sS'tree'
p561
g3
((lp562
g11
atp563
Rp564
sS'start'
p565
g3
((lp566
g11
atp567
Rp568
sS'checker'
p569
g3
((lp570
g16
ag11
atp571
Rp572
sS'options'
p573
g3
((lp574
g11
atp575
Rp576
sS'setFirstLineIndent'
p577
g3
((lp578
g16
atp579
Rp580
sS'_'
p581
g3
((lp582
g173
atp583
Rp584
sS'arrayRef'
p585
g3
((lp586
g11
atp587
Rp588
sS'msg'
p589
g3
((lp590
g11
atp591
Rp592
sS'continuationChar_'
p593
g3
((lp594
g72
atp595
Rp596
sS'StringTestBase'
p597
g3
((lp598
g34
ag35
atp599
Rp600
sS'bPresent'
p601
g3
((lp602
g173
ag11
atp603
Rp604
sS'checkFloat'
p605
g3
((lp606
g16
atp607
Rp608
sS'empty'
p609
g3
((lp610
g16
atp611
Rp612
sS'checkSequenceCompound'
p613
g3
((lp614
g16
atp615
Rp616
sS'operator!='
p617
g3
((lp618
g16
atp619
Rp620
sS'current_function_helper'
p621
g3
((lp622
g29
atp623
Rp624
sS'ArrayRef<T>'
p625
g3
((lp626
g35
atp627
Rp628
sS'delim'
p629
g3
((lp630
g11
atp631
Rp632
sS'bInclude'
p633
g3
((lp634
g11
atp635
Rp636
sS'checkDouble'
p637
g3
((lp638
g16
atp639
Rp640
sS'c'
p641
g3
((lp642
g11
atp643
Rp644
sS'setContinuationChar'
p645
g3
((lp646
g16
atp647
Rp648
sS'back'
p649
g3
((lp650
g16
atp651
Rp652
sS'operator[]'
p653
g3
((lp654
g16
atp655
Rp656
sS'readDouble'
p657
g3
((lp658
g16
atp659
Rp660
sS'isNullOrEmpty'
p661
g3
((lp662
g29
atp663
Rp664
sS'format_'
p665
g3
((lp666
g72
atp667
Rp668
sS'currentOutput_'
p669
g3
((lp670
g72
atp671
Rp672
sS'reset'
p673
g3
((lp674
g16
atp675
Rp676
sS'KeyValueTreeObject'
p677
g3
((lp678
g34
atp679
Rp680
sS'StringFormatter'
p681
g3
((lp682
g34
ag35
atp683
Rp684
sS'target'
p685
g3
((lp686
g11
atp687
Rp688
sS'ArrayRef'
p689
g3
((lp690
g34
atp691
Rp692
sS'checkText'
p693
g3
((lp694
g16
atp695
Rp696
sS'checkInteger'
p697
g3
((lp698
g16
atp699
Rp700
sS'operator()'
p701
g3
((lp702
g16
atp703
Rp704
sS'wrapToString'
p705
g3
((lp706
g16
atp707
Rp708
sS'value'
p709
g3
((lp710
g173
ag11
atp711
Rp712
sS'inputStream'
p713
g3
((lp714
g16
atp715
Rp716
sS'i'
p717
g3
((lp718
g173
atp719
Rp720
sS'suffix'
p721
g3
((lp722
g11
atp723
Rp724
sS'str'
p725
g3
((lp726
g11
atp727
Rp728
sS'formatStringV'
p729
g3
((lp730
g29
atp731
Rp732
sS'indent_'
p733
g3
((lp734
g72
atp735
Rp736
sS'inputStream_'
p737
g3
((lp738
g72
atp739
Rp740
sS'ptr_'
p741
g3
((lp742
g72
atp743
Rp744
sS'compare'
p745
g3
((lp746
g16
atp747
Rp748
sS'addOutput'
p749
g3
((lp750
g16
atp751
Rp752
sS'rend'
p753
g3
((lp754
g16
atp755
Rp756
sS'MockTextInputStream'
p757
g3
((lp758
g34
atp759
Rp760
sS'condition'
p761
g3
((lp762
g11
atp763
Rp764
sS'checkBoolean'
p765
g3
((lp766
g16
atp767
Rp768
sS'ap'
p769
g3
((lp770
g11
atp771
Rp772
sS'currentLine_'
p773
g3
((lp774
g72
atp775
Rp776
sS'at'
p777
g3
((lp778
g16
atp779
Rp780
sS'file'
p781
g3
((lp782
g11
atp783
Rp784
sS'firstLineIndent_'
p785
g3
((lp786
g72
atp787
Rp788
sS'bHasOutput_'
p789
g3
((lp790
g72
atp791
Rp792
sS'strlen'
p793
g3
((lp794
g29
atp795
Rp796
sS'ssize'
p797
g3
((lp798
g16
atp799
Rp800
sS'inputLines'
p801
g3
((lp802
g11
atp803
Rp804
sS'end'
p805
g3
((lp806
g16
ag11
atp807
Rp808
sS'TextOutputStream'
p809
g3
((lp810
g34
atp811
Rp812
sS'Invoke'
p813
g3
((lp814
g29
ag16
atp815
Rp816
sS'equalCaseInsensitive'
p817
g3
((lp818
g29
atp819
Rp820
sS'TestReferenceDataImpl'
p821
g3
((lp822
g34
atp823
Rp824
sS'settings_'
p825
g3
((lp826
g72
atp827
Rp828
sS'readFloat'
p829
g3
((lp830
g16
atp831
Rp832
sS'findNextLine'
p833
g3
((lp834
g16
atp835
Rp836
sS's'
p837
g3
((lp838
g11
atp839
Rp840
sS'checkUChar'
p841
g3
((lp842
g16
atp843
Rp844
sS'write'
p845
g3
((lp846
g16
atp847
Rp848
sS'other'
p849
g3
((lp850
g11
atp851
Rp852
sS'setInputLines'
p853
g3
((lp854
g16
atp855
Rp856
sS'With'
p857
g3
((lp858
g16
atp859
Rp860
sS'begin'
p861
g3
((lp862
g16
ag11
atp863
Rp864
sS'gmock1_write_79'
p865
g3
((lp866
g72
atp867
Rp868
sS'setLineLength'
p869
g3
((lp870
g16
atp871
Rp872
sS'isValid'
p873
g3
((lp874
g16
atp875
Rp876
sS'rootChecker'
p877
g3
((lp878
g16
atp879
Rp880
sS'TextInputStream'
p881
g3
((lp882
g34
atp883
Rp884
sS'container'
p885
g3
((lp886
g11
atp887
Rp888
sS'gmock1_readLine_72'
p889
g3
((lp890
g72
atp891
Rp892
sS'data'
p893
g3
((lp894
g16
atp895
Rp896
sS'Impl'
p897
g3
((lp898
g34
ag35
atp899
Rp900
sS'lineStart'
p901
g3
((lp902
g11
atp903
Rp904
sS'a'
p905
g3
((lp906
g11
atp907
Rp908
sS'readInt32'
p909
g3
((lp910
g16
atp911
Rp912
sS'checkItem'
p913
g3
((lp914
g11
atp915
Rp916
sS'stripString'
p917
g3
((lp918
g29
atp919
Rp920
sS'bKeepFinalSpaces_'
p921
g3
((lp922
g72
atp923
Rp924
sS'line'
p925
g3
((lp926
g11
atp927
Rp928
sS'clear'
p929
g3
((lp930
g16
atp931
Rp932
sS'checkRealFromString'
p933
g3
((lp934
g16
atp935
Rp936
sS'checkEmptySequence'
p937
g3
((lp938
g16
atp939
Rp940
sS'assign'
p941
g3
((lp942
g16
atp943
Rp944
sS'checkKeyValueTreeValue'
p945
g3
((lp946
g16
atp947
Rp948
sS'endsWith'
p949
g3
((lp950
g29
atp951
Rp952
sS'npos'
p953
g3
((lp954
g173
atp955
Rp956
sS'splitString'
p957
g3
((lp958
g29
atp959
Rp960
sS'checkFileContents'
p961
g3
((lp962
g16
atp963
Rp964
ssS'static_attribute'
p965
g2
(g3
tp966
Rp967
S'comment'
p968
g3
((lp969
S'comment_token'
p970
atp971
Rp972
sS'predecessor'
p973
g3
((lp974
S'has_parent'
p975
atp976
Rp977
sS'linkage_kind'
p978
g3
((lp979
S'linkage_kind'
p980
atp981
Rp982
sS'defined'
p983
g3
((lp984
S'is_defined_file'
p985
atp986
Rp987
sS'parameter types'
p988
g3
((lp989
S'param_type'
p990
atp991
Rp992
sS'target application'
p993
g3
((lp994
S'PROBLEM_DOMAIN'
p995
atp996
Rp997
sS'isCXXStatic'
p998
g3
((lp999
S'isCXXStatic'
p1000
atp1001
Rp1002
sS'primitive data type'
p1003
g3
((lp1004
S'type'
p1005
atp1006
Rp1007
sS'used'
p1008
g3
((lp1009
S'is_called_file'
p1010
atp1011
Rp1012
sS'comments'
p1013
g3
((lp1014
g970
atp1015
Rp1016
sS'possibly read'
p1017
g3
((lp1018
S'isRead_file_line'
p1019
atp1020
Rp1021
sS'return'
p1022
g3
((lp1023
S'return_type'
p1024
atp1025
Rp1026
sS'may be written'
p1027
g3
((lp1028
S'isWritten_file_line'
p1029
atp1030
Rp1031
sS'access_specifier'
p1032
g3
((lp1033
S'access_specifier'
p1034
atp1035
Rp1036
sS'pointer'
p1037
g3
((lp1038
S'is_pointer'
p1039
atp1040
Rp1041
sS'return_type'
p1042
g3
((lp1043
S'return_type'
p1044
atp1045
Rp1046
sS'defined file'
p1047
g3
((lp1048
g985
atp1049
Rp1050
sS'child class'
p1051
g3
((lp1052
S'is_subclass_of'
p1053
atp1054
Rp1055
sS'application specific'
p1056
g3
((lp1057
g995
atp1058
Rp1059
sS'invoked'
p1060
g3
((lp1061
g1010
atp1062
Rp1063
sS'display_name'
p1064
g3
((lp1065
S'display_name'
p1066
atp1067
Rp1068
sS'belongs to'
p1069
g3
((lp1070
g985
atp1071
Rp1072
sS'ref_tmp'
p1073
g3
((lp1074
S'ref_tmp'
p1075
atp1076
Rp1077
sS'parent function'
p1078
g3
((lp1079
g975
atp1080
Rp1081
sS'called in'
p1082
g3
((lp1083
g1010
atp1084
Rp1085
sS'task specific'
p1086
g3
((lp1087
g995
atp1088
Rp1089
sS'subclass'
p1090
g3
((lp1091
g1053
atp1092
Rp1093
sS'id'
p1094
g3
((lp1095
S'id'
p1096
atp1097
Rp1098
sS'start line'
p1099
g3
((lp1100
S'isDef_file_line'
p1101
atp1102
Rp1103
sS'call'
p1104
g3
((lp1105
g1010
atp1106
Rp1107
sS'usr'
p1108
g3
((lp1109
S'usr'
p1110
atp1111
Rp1112
sS'call expression'
p1113
g3
((lp1114
g1010
atp1115
Rp1116
sS'scope'
p1117
g3
((lp1118
S'storage_class'
p1119
atp1120
Rp1121
sS'isDecl'
p1122
g3
((lp1123
S'isDecl'
p1124
atp1125
Rp1126
sS'descendant'
p1127
g3
((lp1128
S'has_child'
p1129
atp1130
Rp1131
sS'type'
p1132
g3
((lp1133
S'type'
p1134
atp1135
Rp1136
sS'funcargs'
p1137
g3
((lp1138
S'funcargs'
p1139
atp1140
Rp1141
sS'return value'
p1142
g3
((lp1143
g1024
atp1144
Rp1145
sS'call location'
p1146
g3
((lp1147
S'isCall_file_line'
p1148
atp1149
Rp1150
sS'may be read'
p1151
g3
((lp1152
g1019
atp1153
Rp1154
sS'size array'
p1155
g3
((lp1156
S'array_size'
p1157
atp1158
Rp1159
sS'lex_parent_id'
p1160
g3
((lp1161
S'lex_parent_id'
p1162
atp1163
Rp1164
sS'isCXXVirtual'
p1165
g3
((lp1166
S'isCXXVirtual'
p1167
atp1168
Rp1169
sS'parent'
p1170
g3
((lp1171
g975
atp1172
Rp1173
sS'primitive type'
p1174
g3
((lp1175
g1005
atp1176
Rp1177
sS'application domain'
p1178
g3
((lp1179
g995
atp1180
Rp1181
sS'application task'
p1182
g3
((lp1183
g995
atp1184
Rp1185
sS'friend of'
p1186
g3
((lp1187
S'is_friend_of'
p1188
atp1189
Rp1190
sS'range.end'
p1191
g3
((lp1192
S'range.end'
p1193
atp1194
Rp1195
sS'friend class'
p1196
g3
((lp1197
g1188
atp1198
Rp1199
sS'pointers'
p1200
g3
((lp1201
g1039
atp1202
Rp1203
sS'visibility'
p1204
g3
((lp1205
g1119
atp1206
Rp1207
sS'def_id'
p1208
g3
((lp1209
S'def_id'
p1210
atp1211
Rp1212
sS'multiple inheritance'
p1213
g3
((lp1214
S'multiple_inheritance'
p1215
atp1216
Rp1217
sS'defined in'
p1218
g3
((lp1219
g985
atp1220
Rp1221
sS'isCXXPureVirtual'
p1222
g3
((lp1223
S'isCXXPureVirtual'
p1224
atp1225
Rp1226
sS'child'
p1227
g3
((lp1228
g1129
atp1229
Rp1230
sS'data type'
p1231
g3
((lp1232
g1005
atp1233
Rp1234
sS'line'
p1235
g3
((lp1236
S'line'
p1237
atp1238
Rp1239
sS'present'
p1240
g3
((lp1241
g985
atp1242
Rp1243
sS'successor'
p1244
g3
((lp1245
g1129
atp1246
Rp1247
sS'spelling'
p1248
g3
((lp1249
S'spelling'
p1250
atp1251
Rp1252
sS'sem_parent_id'
p1253
g3
((lp1254
S'sem_parent_id'
p1255
atp1256
Rp1257
sS'name'
p1258
g3
((lp1259
S'spelling'
p1260
atp1261
Rp1262
sS'linkage_name'
p1263
g3
((lp1264
S'linkage_name'
p1265
atp1266
Rp1267
sS'datatype'
p1268
g3
((lp1269
g1005
atp1270
Rp1271
sS'range.start'
p1272
g3
((lp1273
S'range.start'
p1274
atp1275
Rp1276
sS'return type'
p1277
g3
((lp1278
g1024
atp1279
Rp1280
sS'array'
p1281
g3
((lp1282
S'is_array'
p1283
atp1284
Rp1285
sS'called'
p1286
g3
((lp1287
g1010
atp1288
Rp1289
sS'isDef'
p1290
g3
((lp1291
S'isDef'
p1292
atp1293
Rp1294
sS'arrays'
p1295
g3
((lp1296
g1283
atp1297
Rp1298
sS'storage_class'
p1299
g3
((lp1300
S'storage_class'
p1301
atp1302
Rp1303
sS'storage class'
p1304
g3
((lp1305
g1119
atp1306
Rp1307
sS'possible read-write'
p1308
g3
((lp1309
g1029
ag1019
atp1310
Rp1311
sS'signature'
p1312
g3
((lp1313
g1005
atp1314
Rp1315
sS'friend function'
p1316
g3
((lp1317
g1188
atp1318
Rp1319
sS'accessed'
p1320
g3
((lp1321
g1010
atp1322
Rp1323
sS'abstract type'
p1324
g3
((lp1325
g1005
atp1326
Rp1327
sS'possibly written'
p1328
g3
((lp1329
g1029
atp1330
Rp1331
sS'col'
p1332
g3
((lp1333
S'col'
p1334
atp1335
Rp1336
sS'multidimensional arrays'
p1337
g3
((lp1338
S'is_multi_dimensional_array'
p1339
atp1340
Rp1341
ssS'dynamic_attribute'
p1342
g2
(g3
tp1343
Rp1344
S'CALLERNAME'
p1345
g3
((lp1346
g1345
atp1347
Rp1348
sS'synchronous'
p1349
g3
((lp1350
S'sync'
p1351
atp1352
Rp1353
sS'write count'
p1354
g3
((lp1355
S'WRITECOUNT'
p1356
atp1357
Rp1358
sS'call sequence'
p1359
g3
((lp1360
S'callee_name'
p1361
atp1362
Rp1363
sS'asynchronous'
p1364
g3
((lp1365
g1351
atp1366
Rp1367
sS'thread id'
p1368
g3
((lp1369
S'thread_id'
p1370
atp1371
Rp1372
sS'synchronised'
p1373
g3
((lp1374
g1351
atp1375
Rp1376
sg1060
g3
((lp1377
g1361
atp1378
Rp1379
sS'thread number'
p1380
g3
((lp1381
g1370
atp1382
Rp1383
sS'unsynchronized'
p1384
g3
((lp1385
g1351
atp1386
Rp1387
sS'asynchronised'
p1388
g3
((lp1389
g1351
atp1390
Rp1391
sS'invocation graph'
p1392
g3
((lp1393
g1361
atp1394
Rp1395
sS'write'
p1396
g3
((lp1397
S'NONLOCALWRITE'
p1398
aS'write_count'
p1399
atp1400
Rp1401
sS'written'
p1402
g3
((lp1403
g1398
ag1399
atp1404
Rp1405
sS'mutex'
p1406
g3
((lp1407
S'posix_lock'
p1408
atp1409
Rp1410
sS'invoker'
p1411
g3
((lp1412
S'caller_name'
p1413
atp1414
Rp1415
sS'call graph'
p1416
g3
((lp1417
g1361
atp1418
Rp1419
sS'invocation sequence'
p1420
g3
((lp1421
g1361
atp1422
Rp1423
sS'thread access'
p1424
g3
((lp1425
g1370
atp1426
Rp1427
sS'updated'
p1428
g3
((lp1429
g1398
ag1399
atp1430
Rp1431
sS'CALLEENAME'
p1432
g3
((lp1433
g1432
atp1434
Rp1435
sS'synchronized'
p1436
g3
((lp1437
g1351
atp1438
Rp1439
sS'thread-id'
p1440
g3
((lp1441
S'THREADID'
p1442
atp1443
Rp1444
sS'read'
p1445
g3
((lp1446
S'NONLOCALREAD'
p1447
aS'read_count'
p1448
atp1449
Rp1450
sS'child function'
p1451
g3
((lp1452
g1361
atp1453
Rp1454
sS'update'
p1455
g3
((lp1456
g1398
ag1399
atp1457
Rp1458
sS'read-write'
p1459
g3
((lp1460
g1447
ag1398
ag1448
ag1399
atp1461
Rp1462
sS'read write'
p1463
g3
((lp1464
g1447
ag1398
ag1448
ag1399
atp1465
Rp1466
sS'threads'
p1467
g3
((lp1468
g1370
atp1469
Rp1470
sS'function call graph'
p1471
g3
((lp1472
g1361
atp1473
Rp1474
sS'asynchronized'
p1475
g3
((lp1476
g1351
atp1477
Rp1478
sS'unsynchronous'
p1479
g3
((lp1480
g1351
atp1481
Rp1482
sS'thread'
p1483
g3
((lp1484
g1370
atp1485
Rp1486
sS'caller'
p1487
g3
((lp1488
g1413
atp1489
Rp1490
sS'return value'
p1491
g3
((lp1492
S'RETVAL'
p1493
atp1494
Rp1495
sS'unsynchronised'
p1496
g3
((lp1497
g1351
atp1498
Rp1499
sS'read count'
p1500
g3
((lp1501
S'READCOUNT'
p1502
atp1503
Rp1504
sS'callee'
p1505
g3
((lp1506
g1361
atp1507
Rp1508
sg1286
g3
((lp1509
g1361
atp1510
Rp1511
ssS'values'
p1512
g2
(g3
tp1513
Rp1514
S'gmx::KeyValueTreeObject'
p1515
g3
((lp1516
S'type'
p1517
atp1518
Rp1519
sS'const Impl &() const'
p1520
g3
((lp1521
S'type'
p1522
atp1523
Rp1524
sS'std::string (const std::string &, size_t, size_t) const'
p1525
g3
((lp1526
S'type'
p1527
atp1528
Rp1529
sS'ItemChecker'
p1530
g3
((lp1531
S'type'
p1532
atp1533
Rp1534
sS'gmx::test::TestReferenceChecker &&'
p1535
g3
((lp1536
S'type'
p1537
atp1538
Rp1539
sS'gmx::TextLineWrapperSettings'
p1540
g3
((lp1541
S'type'
p1542
atp1543
Rp1544
sS'gmx::TextOutputStream &()'
p1545
g3
((lp1546
S'type'
p1547
atp1548
Rp1549
sS'::testing::MockSpec<void (const char *)> &'
p1550
g3
((lp1551
S'return_type'
p1552
atp1553
Rp1554
sS'const ArrayRef<const char *const> &'
p1555
g3
((lp1556
S'type'
p1557
atp1558
Rp1559
sS'void (const float *, const char *)'
p1560
g3
((lp1561
S'type'
p1562
atp1563
Rp1564
sS'void () noexcept'
p1565
g3
((lp1566
S'type'
p1567
atp1568
Rp1569
sS'gmx::TextInputStream &()'
p1570
g3
((lp1571
S'type'
p1572
atp1573
Rp1574
sS'size_t'
p1575
g3
((lp1576
S'return_type'
p1577
aS'type'
p1578
atp1579
Rp1580
sS'const unsigned long'
p1581
g3
((lp1582
S'type'
p1583
atp1584
Rp1585
sS'std::basic_string<char, std::char_traits<char>, std::allocator<char> >::size_type () const noexcept'
p1586
g3
((lp1587
S'type'
p1588
atp1589
Rp1590
sS'const typename basic_string<char, char_traits<char>, allocator<char> >::size_type'
p1591
g3
((lp1592
S'type'
p1593
atp1594
Rp1595
sS'gmx::test::TestReferenceData &'
p1596
g3
((lp1597
S'return_type'
p1598
atp1599
Rp1600
sS'MockSpec<testing::internal::FunctionMocker<void (const char *)>::F> &'
p1601
g3
((lp1602
S'return_type'
p1603
atp1604
Rp1605
sS'std::basic_string<char> &'
p1606
g3
((lp1607
S'return_type'
p1608
atp1609
Rp1610
sS'Impl &()'
p1611
g3
((lp1612
S'type'
p1613
atp1614
Rp1615
sS'Impl *'
p1616
g3
((lp1617
S'return_type'
p1618
aS'type'
p1619
atp1620
Rp1621
sS'void (int)'
p1622
g3
((lp1623
S'type'
p1624
atp1625
Rp1626
sS'Impl &'
p1627
g3
((lp1628
S'return_type'
p1629
atp1630
Rp1631
sS'int64_t (const char *)'
p1632
g3
((lp1633
S'type'
p1634
atp1635
Rp1636
sS'void (const gmx::test::FloatingPointTolerance &)'
p1637
g3
((lp1638
S'type'
p1639
atp1640
Rp1641
sS'size_t (const std::string &, size_t) const'
p1642
g3
((lp1643
S'type'
p1644
atp1645
Rp1646
sS'::testing::MockSpec<bool (std::string *)> &(const ::testing::Matcher< ::testing::internal::Function<bool (std::string *)>::Argument1> &)'
p1647
g3
((lp1648
S'type'
p1649
atp1650
Rp1651
sS'::testing::internal::Function<bool (std::string *)>::Argument1'
p1652
g3
((lp1653
S'type'
p1654
atp1655
Rp1656
sS'void (const char *)'
p1657
g3
((lp1658
S'type'
p1659
atp1660
Rp1661
sS'std::string (const std::string &, const char *, const char *)'
p1662
g3
((lp1663
S'type'
p1664
atp1665
Rp1666
sS'gmx::test::TestReferenceChecker *'
p1667
g3
((lp1668
S'type'
p1669
atp1670
Rp1671
sS'bool (const PrivateImplPointer<Impl> &) const'
p1672
g3
((lp1673
S'type'
p1674
atp1675
Rp1676
sS'void (gmx::test::ReferenceDataMode)'
p1677
g3
((lp1678
S'type'
p1679
atp1680
Rp1681
sS'const ContainerType &'
p1682
g3
((lp1683
S'type'
p1684
atp1685
Rp1686
sS'size_t (const char *, size_t) const'
p1687
g3
((lp1688
S'type'
p1689
atp1690
Rp1691
sS'int32_t'
p1692
g3
((lp1693
S'return_type'
p1694
aS'type'
p1695
atp1696
Rp1697
sS'gmx::test::TestReferenceData &(const gmx::test::TestReferenceData &)'
p1698
g3
((lp1699
S'type'
p1700
atp1701
Rp1702
sS'const gmx::test::FloatingPointTolerance &'
p1703
g3
((lp1704
S'type'
p1705
atp1706
Rp1707
sS'gmx::test::InteractiveTestHelper::Impl *()'
p1708
g3
((lp1709
S'type'
p1710
atp1711
Rp1712
sS'std::string'
p1713
g3
((lp1714
S'return_type'
p1715
aS'type'
p1716
atp1717
Rp1718
sS'void'
p1719
g3
((lp1720
S'return_type'
p1721
atp1722
Rp1723
sS'const Impl *() const'
p1724
g3
((lp1725
S'type'
p1726
atp1727
Rp1728
sS'gmx::ArrayRef<const char *const> &(const gmx::ArrayRef<const char *const> &) noexcept'
p1729
g3
((lp1730
S'type'
p1731
atp1732
Rp1733
sS'uint64_t'
p1734
g3
((lp1735
S'type'
p1736
atp1737
Rp1738
sS'const ::testing::Matcher< ::testing::internal::Function<void (const char *)>::Argument1> &'
p1739
g3
((lp1740
S'type'
p1741
atp1742
Rp1743
sS'const gmx::Any &'
p1744
g3
((lp1745
S'type'
p1746
atp1747
Rp1748
sS'MockSpec<testing::internal::FunctionMocker<void ()>::F> &'
p1749
g3
((lp1750
S'return_type'
p1751
atp1752
Rp1753
sS'MockSpec<testing::internal::FunctionMocker<void ()>::F> &()'
p1754
g3
((lp1755
S'type'
p1756
atp1757
Rp1758
sS'::testing::FunctionMocker<void ()>'
p1759
g3
((lp1760
S'type'
p1761
atp1762
Rp1763
sS'::testing::internal::Function<void (const char *)>::Result'
p1764
g3
((lp1765
S'return_type'
p1766
atp1767
Rp1768
sS'testing::internal::TypedExpectation<void (const char *)> &(const Action<void (const char *)> &)'
p1769
g3
((lp1770
S'type'
p1771
atp1772
Rp1773
sS'gmx::ArrayRef::reference () const'
p1774
g3
((lp1775
S'type'
p1776
atp1777
Rp1778
sS'gmx::ArrayRef<const char *const>::reference (gmx::ArrayRef::size_type) const'
p1779
g3
((lp1780
S'type'
p1781
atp1782
Rp1783
sS'void (const void *, const char *)'
p1784
g3
((lp1785
S'type'
p1786
atp1787
Rp1788
sS'void (const gmx::KeyValueTreeValue &, const char *)'
p1789
g3
((lp1790
S'type'
p1791
atp1792
Rp1793
sS'gmx::test::TestReferenceChecker'
p1794
g3
((lp1795
S'return_type'
p1796
aS'type'
p1797
atp1798
Rp1799
sS'Iterator'
p1800
g3
((lp1801
S'type'
p1802
atp1803
Rp1804
sS'std::basic_string<char, std::char_traits<char>, std::allocator<char> >::size_type (const char *, std::basic_string<char, std::char_traits<char>, std::allocator<char> >::size_type) const noexcept'
p1805
g3
((lp1806
S'type'
p1807
atp1808
Rp1809
sS'std::out_of_range'
p1810
g3
((lp1811
S'type'
p1812
atp1813
Rp1814
sS'void (gmx::test::TestReferenceChecker &&) noexcept'
p1815
g3
((lp1816
S'type'
p1817
atp1818
Rp1819
sS'void (double, const char *)'
p1820
g3
((lp1821
S'type'
p1822
atp1823
Rp1824
sS'std::string *'
p1825
g3
((lp1826
S'type'
p1827
atp1828
Rp1829
sS'gmx::test::TestReferenceChecker &(const gmx::test::TestReferenceChecker &)'
p1830
g3
((lp1831
S'type'
p1832
atp1833
Rp1834
sS'gmx::ArrayRef::reference'
p1835
g3
((lp1836
S'return_type'
p1837
atp1838
Rp1839
sS'gmx::test::TestReferenceChecker::Impl'
p1840
g3
((lp1841
S'type'
p1842
atp1843
Rp1844
sS'float'
p1845
g3
((lp1846
S'return_type'
p1847
aS'type'
p1848
atp1849
Rp1850
sS'PolymorphicAction<internal::InvokeMethodAction<Impl, bool (Impl::*)(basic_string<char> *)> >'
p1851
g3
((lp1852
S'return_type'
p1853
atp1854
Rp1855
sS'std::string (const std::string &) const'
p1856
g3
((lp1857
S'type'
p1858
atp1859
Rp1860
sS'gmx::test::TestReferenceChecker ()'
p1861
g3
((lp1862
S'type'
p1863
atp1864
Rp1865
sS'void (char)'
p1866
g3
((lp1867
S'type'
p1868
atp1869
Rp1870
sS'void (bool)'
p1871
g3
((lp1872
S'type'
p1873
atp1874
Rp1875
sS'std::string (const std::string &, const std::string &, const std::string &)'
p1876
g3
((lp1877
S'type'
p1878
atp1879
Rp1880
sS'void (int32_t, const char *)'
p1881
g3
((lp1882
S'type'
p1883
atp1884
Rp1885
sS'const gmx::test::TestReferenceChecker &'
p1886
g3
((lp1887
S'type'
p1888
atp1889
Rp1890
sS'void (gmx::ArrayRef::pointer, gmx::ArrayRef::pointer)'
p1891
g3
((lp1892
S'type'
p1893
atp1894
Rp1895
sS'gmx::ArrayRef::iterator () const'
p1896
g3
((lp1897
S'type'
p1898
atp1899
Rp1900
sS'PrivateImplPointer<gmx::test::StringTestBase::Impl>'
p1901
g3
((lp1902
S'type'
p1903
atp1904
Rp1905
sS'::testing::internal::Function<void (const char *)>::Argument1'
p1906
g3
((lp1907
S'type'
p1908
atp1909
Rp1910
sS'void (uint64_t, const char *)'
p1911
g3
((lp1912
S'type'
p1913
atp1914
Rp1915
sS'gmx::IOptionsContainer *'
p1916
g3
((lp1917
S'type'
p1918
atp1919
Rp1920
sS'void (const gmx::test::TestReferenceChecker &)'
p1921
g3
((lp1922
S'type'
p1923
atp1924
Rp1925
sS'double (const char *)'
p1926
g3
((lp1927
S'type'
p1928
atp1929
Rp1930
sS'gmx::index () const'
p1931
g3
((lp1932
S'type'
p1933
atp1934
Rp1935
sS'static'
p1936
g3
((lp1937
S'storage_class'
p1938
atp1939
Rp1940
sS'void (const std::basic_string<char> &)'
p1941
g3
((lp1942
S'type'
p1943
atp1944
Rp1945
sS'MockSpec<testing::internal::FunctionMocker<void (const char *)>::F> &(const Matcher<const char *> &)'
p1946
g3
((lp1947
S'type'
p1948
atp1949
Rp1950
sS'gmx::ArrayRef::size_type () const'
p1951
g3
((lp1952
S'type'
p1953
atp1954
Rp1955
sS'std::string (const std::string &, const char *)'
p1956
g3
((lp1957
S'type'
p1958
atp1959
Rp1960
sS'gmx::TextInputStream &'
p1961
g3
((lp1962
S'return_type'
p1963
atp1964
Rp1965
sS'void (const gmx::TextLineWrapperSettings &)'
p1966
g3
((lp1967
S'type'
p1968
atp1969
Rp1970
sS'const gmx::KeyValueTreeObject &'
p1971
g3
((lp1972
S'type'
p1973
atp1974
Rp1975
sS'gmx::Any'
p1976
g3
((lp1977
S'type'
p1978
atp1979
Rp1980
sS'void (PrivateImplPointer<Impl> &&) noexcept'
p1981
g3
((lp1982
S'type'
p1983
atp1984
Rp1985
sS'Public'
p1986
g3
((lp1987
S'access_specifier'
p1988
atp1989
Rp1990
sS'T &'
p1991
g3
((lp1992
S'type'
p1993
atp1994
Rp1995
sS'gmx::KeyValueTreeValue'
p1996
g3
((lp1997
S'type'
p1998
atp1999
Rp2000
sS'bool () const'
p2001
g3
((lp2002
S'type'
p2003
atp2004
Rp2005
sS'bool (bool, const char *)'
p2006
g3
((lp2007
S'type'
p2008
atp2009
Rp2010
sS'MockSpec<testing::internal::FunctionMocker<bool (std::basic_string<char> *)>::F> &(const Matcher<std::basic_string<char> *> &)'
p2011
g3
((lp2012
S'type'
p2013
atp2014
Rp2015
sS'gmx::test::MockTextInputStream'
p2016
g3
((lp2017
S'type'
p2018
atp2019
Rp2020
sS'const T &'
p2021
g3
((lp2022
S'type'
p2023
atp2024
Rp2025
sS'PolymorphicAction<internal::InvokeMethodAction<Impl, void (Impl::*)(const char *)> > (gmx::test::InteractiveTestHelper::Impl *, void (gmx::test::InteractiveTestHelper::Impl::*)(const char *))'
p2026
g3
((lp2027
S'type'
p2028
atp2029
Rp2030
sS'gmx::test::FloatingPointTolerance'
p2031
g3
((lp2032
S'type'
p2033
atp2034
Rp2035
sS'typename std::iterator_traits<Iterator>::difference_type'
p2036
g3
((lp2037
S'type'
p2038
atp2039
Rp2040
sS'gmx::index'
p2041
g3
((lp2042
S'return_type'
p2043
aS'type'
p2044
atp2045
Rp2046
sS'bool (const std::string &, const char *)'
p2047
g3
((lp2048
S'type'
p2049
atp2050
Rp2051
sS'const T *'
p2052
g3
((lp2053
S'type'
p2054
atp2055
Rp2056
sS'bool (const char *)'
p2057
g3
((lp2058
S'type'
p2059
atp2060
Rp2061
sS'unsigned char'
p2062
g3
((lp2063
S'return_type'
p2064
aS'type'
p2065
atp2066
Rp2067
sS'gmx::StringFormatter'
p2068
g3
((lp2069
S'type'
p2070
atp2071
Rp2072
sS'void (float, const char *)'
p2073
g3
((lp2074
S'type'
p2075
atp2076
Rp2077
sS'PrivateImplPointer<Impl>'
p2078
g3
((lp2079
S'type'
p2080
atp2081
Rp2082
sS'gmx::TextInputStream'
p2083
g3
((lp2084
S'type'
p2085
atp2086
Rp2087
sS'void (gmx::IOptionsContainer *)'
p2088
g3
((lp2089
S'type'
p2090
atp2091
Rp2092
sS'::testing::internal::Function<bool (std::string *)>::Result (::testing::internal::Function<bool (std::string *)>::Argument1)'
p2093
g3
((lp2094
S'type'
p2095
atp2096
Rp2097
sS'bool (const char *, const char *)'
p2098
g3
((lp2099
S'type'
p2100
atp2101
Rp2102
sS'const Impl *'
p2103
g3
((lp2104
S'return_type'
p2105
atp2106
Rp2107
sS'PrivateImplPointer<Impl> &'
p2108
g3
((lp2109
S'return_type'
p2110
atp2111
Rp2112
sS'const Impl &'
p2113
g3
((lp2114
S'return_type'
p2115
atp2116
Rp2117
sS'::testing::internal::Function<void ()>::Result ()'
p2118
g3
((lp2119
S'type'
p2120
atp2121
Rp2122
sS'::testing::MockSpec<void ()> &()'
p2123
g3
((lp2124
S'type'
p2125
atp2126
Rp2127
sS'T *'
p2128
g3
((lp2129
S'type'
p2130
atp2131
Rp2132
sS'internal::TypedExpectation<bool (basic_string<char> *)> &(const char *, int, const char *, const char *)'
p2133
g3
((lp2134
S'type'
p2135
atp2136
Rp2137
sS'size_t (const char *) throw()'
p2138
g3
((lp2139
S'type'
p2140
atp2141
Rp2142
sS'void (const void *)'
p2143
g3
((lp2144
S'type'
p2145
atp2146
Rp2147
sS'typename std::remove_reference<TestReferenceChecker &>::type &&(gmx::test::TestReferenceChecker &) noexcept'
p2148
g3
((lp2149
S'type'
p2150
atp2151
Rp2152
sS'void (const std::string &, const char *)'
p2153
g3
((lp2154
S'type'
p2155
atp2156
Rp2157
sS'void (uint32_t, const char *)'
p2158
g3
((lp2159
S'type'
p2160
atp2161
Rp2162
sS'void (ArrayRef<T> &)'
p2163
g3
((lp2164
S'type'
p2165
atp2166
Rp2167
sS'U &&'
p2168
g3
((lp2169
S'type'
p2170
atp2171
Rp2172
sS'void (const int *, const char *)'
p2173
g3
((lp2174
S'type'
p2175
atp2176
Rp2177
sS'std::basic_string<char, std::char_traits<char>, std::allocator<char> >::size_type'
p2178
g3
((lp2179
S'return_type'
p2180
atp2181
Rp2182
sS'const char *const (&)[count]'
p2183
g3
((lp2184
S'type'
p2185
atp2186
Rp2187
sS'gmx::test::InteractiveTestHelper::Impl *'
p2188
g3
((lp2189
S'return_type'
p2190
atp2191
Rp2192
sS'Impl *()'
p2193
g3
((lp2194
S'type'
p2195
atp2196
Rp2197
sS'const internal::AnythingMatcher'
p2198
g3
((lp2199
S'type'
p2200
atp2201
Rp2202
sS'const char *() const noexcept'
p2203
g3
((lp2204
S'type'
p2205
atp2206
Rp2207
sS'::testing::MockSpec<bool (std::string *)> &'
p2208
g3
((lp2209
S'return_type'
p2210
atp2211
Rp2212
sS'PrivateImplPointer<Impl> &&'
p2213
g3
((lp2214
S'type'
p2215
atp2216
Rp2217
sS'void (const gmx::Any &, const char *)'
p2218
g3
((lp2219
S'type'
p2220
atp2221
Rp2222
sS'gmx::IdentityFormatter'
p2223
g3
((lp2224
S'type'
p2225
atp2226
Rp2227
sS'gmx::ArrayRef<const char *const> &'
p2228
g3
((lp2229
S'return_type'
p2230
atp2231
Rp2232
sS'const gmx::KeyValueTreeValue &'
p2233
g3
((lp2234
S'type'
p2235
atp2236
Rp2237
sS'gmx::ArrayRef::pointer () const'
p2238
g3
((lp2239
S'type'
p2240
atp2241
Rp2242
sS'void (Impl *)'
p2243
g3
((lp2244
S'type'
p2245
atp2246
Rp2247
sS'gmx::ArrayRef::reverse_iterator () const'
p2248
g3
((lp2249
S'type'
p2250
atp2251
Rp2252
sS'::testing::MockSpec<void (const char *)> &(const ::testing::Matcher< ::testing::internal::Function<void (const char *)>::Argument1> &)'
p2253
g3
((lp2254
S'type'
p2255
atp2256
Rp2257
sS'default_auto'
p2258
g3
((lp2259
S'storage_class'
p2260
atp2261
Rp2262
sS'gmx::test::StringTestBase'
p2263
g3
((lp2264
S'type'
p2265
atp2266
Rp2267
sS'testing::internal::TypedExpectation<bool (std::basic_string<char> *)> &(const Action<bool (std::basic_string<char> *)> &)'
p2268
g3
((lp2269
S'type'
p2270
atp2271
Rp2272
sS'std::vector<std::string>'
p2273
g3
((lp2274
S'return_type'
p2275
atp2276
Rp2277
sS'ArrayRef<T> (gmx::ArrayRef::size_type, gmx::ArrayRef::size_type) const'
p2278
g3
((lp2279
S'type'
p2280
atp2281
Rp2282
sS'gmx::ArrayRef::iterator'
p2283
g3
((lp2284
S'return_type'
p2285
atp2286
Rp2287
sS'void (gmx::test::InteractiveTestHelper::Impl *)'
p2288
g3
((lp2289
S'type'
p2290
atp2291
Rp2292
sS'gmx::test::TestReferenceChecker (const char *, const std::string &)'
p2293
g3
((lp2294
S'type'
p2295
atp2296
Rp2297
sS'void (const double *, const char *)'
p2298
g3
((lp2299
S'type'
p2300
atp2301
Rp2302
sS'gmx::test::StringTestBase::Impl'
p2303
g3
((lp2304
S'type'
p2305
atp2306
Rp2307
sS'::testing::MockSpec<void ()> &'
p2308
g3
((lp2309
S'return_type'
p2310
atp2311
Rp2312
sS'std::string (const char *, ...)'
p2313
g3
((lp2314
S'type'
p2315
atp2316
Rp2317
sS'int32_t (const char *)'
p2318
g3
((lp2319
S'type'
p2320
atp2321
Rp2322
sS'void (const gmx::KeyValueTreeObject &, const char *)'
p2323
g3
((lp2324
S'type'
p2325
atp2326
Rp2327
sS'int (const char *, const char *, size_t) throw()'
p2328
g3
((lp2329
S'type'
p2330
atp2331
Rp2332
sS'const FormatterType &'
p2333
g3
((lp2334
S'type'
p2335
atp2336
Rp2337
sS'::testing::internal::Function<void ()>::Result'
p2338
g3
((lp2339
S'return_type'
p2340
atp2341
Rp2342
sS'gmx::ArrayRef::size_type'
p2343
g3
((lp2344
S'return_type'
p2345
aS'type'
p2346
atp2347
Rp2348
sS'void (unsigned char, const char *)'
p2349
g3
((lp2350
S'type'
p2351
atp2352
Rp2353
sS'::testing::internal::Function<bool (std::string *)>::Result'
p2354
g3
((lp2355
S'return_type'
p2356
atp2357
Rp2358
sS'testing::internal::TypedExpectation<bool (std::basic_string<char> *)> &'
p2359
g3
((lp2360
S'return_type'
p2361
atp2362
Rp2363
sS'const gmx::TextLineWrapperSettings &'
p2364
g3
((lp2365
S'type'
p2366
atp2367
Rp2368
sS'internal::TypedExpectation<void ()> &'
p2369
g3
((lp2370
S'return_type'
p2371
atp2372
Rp2373
sS'void (gmx::test::TestReferenceChecker)'
p2374
g3
((lp2375
S'type'
p2376
atp2377
Rp2378
sS'void (std::nullptr_t)'
p2379
g3
((lp2380
S'type'
p2381
atp2382
Rp2383
sS'std::string (const std::string &)'
p2384
g3
((lp2385
S'type'
p2386
atp2387
Rp2388
sS'std::size_t (const std::string &)'
p2389
g3
((lp2390
S'type'
p2391
atp2392
Rp2393
sS'const char *'
p2394
g3
((lp2395
S'return_type'
p2396
aS'type'
p2397
atp2398
Rp2399
sS'testing::internal::TypedExpectation<void (const char *)> &'
p2400
g3
((lp2401
S'return_type'
p2402
atp2403
Rp2404
sS'const PrivateImplPointer<Impl> &'
p2405
g3
((lp2406
S'type'
p2407
atp2408
Rp2409
sS'const std::string &'
p2410
g3
((lp2411
S'type'
p2412
atp2413
Rp2414
sS'const gmx::test::TestReferenceData &'
p2415
g3
((lp2416
S'type'
p2417
atp2418
Rp2419
sS'ArrayRef<T>'
p2420
g3
((lp2421
S'return_type'
p2422
aS'type'
p2423
atp2424
Rp2425
sS'gmx::ArrayRef::reference (gmx::ArrayRef::size_type) const'
p2426
g3
((lp2427
S'type'
p2428
atp2429
Rp2430
sS'PrivateImplPointer<Impl> &(PrivateImplPointer<Impl> &&) noexcept'
p2431
g3
((lp2432
S'type'
p2433
atp2434
Rp2435
sS'std::unique_ptr<Impl>'
p2436
g3
((lp2437
S'type'
p2438
atp2439
Rp2440
sS'bool (const std::string &, const std::string &, size_t)'
p2441
g3
((lp2442
S'type'
p2443
atp2444
Rp2445
sS'std::basic_string<char> &(const char *)'
p2446
g3
((lp2447
S'type'
p2448
atp2449
Rp2450
sS'const int [3]'
p2451
g3
((lp2452
S'type'
p2453
atp2454
Rp2455
sS'testing::internal::TypedExpectation<void ()> &'
p2456
g3
((lp2457
S'return_type'
p2458
atp2459
Rp2460
sS'gmx::test::InteractiveTestHelper'
p2461
g3
((lp2462
S'type'
p2463
atp2464
Rp2465
sS'::testing::FunctionMocker<void (const char *)>'
p2466
g3
((lp2467
S'type'
p2468
atp2469
Rp2470
sS'const bool'
p2471
g3
((lp2472
S'type'
p2473
atp2474
Rp2475
sS'gmx::test::TestReferenceChecker &(gmx::test::TestReferenceChecker &&) noexcept'
p2476
g3
((lp2477
S'type'
p2478
atp2479
Rp2480
sS'char'
p2481
g3
((lp2482
S'type'
p2483
atp2484
Rp2485
sS'const ::testing::Matcher< ::testing::internal::Function<bool (std::string *)>::Argument1> &'
p2486
g3
((lp2487
S'type'
p2488
atp2489
Rp2490
sS'testing::internal::TypedExpectation<void ()> &(int)'
p2491
g3
((lp2492
S'type'
p2493
atp2494
Rp2495
sS'ArrayRef<T> &'
p2496
g3
((lp2497
S'type'
p2498
atp2499
Rp2500
sS'void (gmx::test::TestReferenceChecker *, const std::string &, const char *)'
p2501
g3
((lp2502
S'type'
p2503
atp2504
Rp2505
sS'double'
p2506
g3
((lp2507
S'return_type'
p2508
aS'type'
p2509
atp2510
Rp2511
sS'::testing::internal::Function<void (const char *)>::Result (::testing::internal::Function<void (const char *)>::Argument1)'
p2512
g3
((lp2513
S'type'
p2514
atp2515
Rp2516
sS'gmx::test::InteractiveTestHelper::Impl'
p2517
g3
((lp2518
S'type'
p2519
atp2520
Rp2521
sS'void (const std::string &, const std::string &)'
p2522
g3
((lp2523
S'type'
p2524
atp2525
Rp2526
sS'ArrayRef<const char *const>'
p2527
g3
((lp2528
S'type'
p2529
atp2530
Rp2531
sS'va_list'
p2532
g3
((lp2533
S'type'
p2534
atp2535
Rp2536
sS'gmx::ArrayRef::reverse_iterator'
p2537
g3
((lp2538
S'return_type'
p2539
atp2540
Rp2541
sS'void (const ArrayRef<const char *const> &)'
p2542
g3
((lp2543
S'type'
p2544
atp2545
Rp2546
sS'const ArrayRef<const T> &'
p2547
g3
((lp2548
S'type'
p2549
atp2550
Rp2551
sS'gmx::TextOutputStream'
p2552
g3
((lp2553
S'type'
p2554
atp2555
Rp2556
sS'const float [3]'
p2557
g3
((lp2558
S'type'
p2559
atp2560
Rp2561
sS'void (const char *, const char *, const char *, const char *, int)'
p2562
g3
((lp2563
S'type'
p2564
atp2565
Rp2566
sS'bool (std::basic_string<char> *)'
p2567
g3
((lp2568
S'type'
p2569
atp2570
Rp2571
sS'void (const char *, const char *)'
p2572
g3
((lp2573
S'type'
p2574
atp2575
Rp2576
sS'internal::TypedExpectation<bool (basic_string<char> *)> &'
p2577
g3
((lp2578
S'return_type'
p2579
atp2580
Rp2581
sS'int'
p2582
g3
((lp2583
S'return_type'
p2584
aS'type'
p2585
atp2586
Rp2587
sS'uint32_t'
p2588
g3
((lp2589
S'type'
p2590
atp2591
Rp2592
sS'std::size_t'
p2593
g3
((lp2594
S'return_type'
p2595
atp2596
Rp2597
sS'int64_t'
p2598
g3
((lp2599
S'return_type'
p2600
aS'type'
p2601
atp2602
Rp2603
sS'PrivateImplPointer<gmx::test::InteractiveTestHelper::Impl>'
p2604
g3
((lp2605
S'type'
p2606
atp2607
Rp2608
sS'std::nullptr_t'
p2609
g3
((lp2610
S'type'
p2611
atp2612
Rp2613
sS'gmx::ArrayRef::pointer'
p2614
g3
((lp2615
S'return_type'
p2616
aS'type'
p2617
atp2618
Rp2619
sS'gmx::TextLineWrapperSettings &()'
p2620
g3
((lp2621
S'type'
p2622
atp2623
Rp2624
sS'int (const char *)'
p2625
g3
((lp2626
S'type'
p2627
atp2628
Rp2629
sS'gmx::test::TestReferenceData'
p2630
g3
((lp2631
S'type'
p2632
atp2633
Rp2634
sS'void (const gmx::test::TestReferenceData &)'
p2635
g3
((lp2636
S'type'
p2637
atp2638
Rp2639
sS'gmx::TextLineWrapperSettings &'
p2640
g3
((lp2641
S'return_type'
p2642
atp2643
Rp2644
sS'void (int64_t, const char *)'
p2645
g3
((lp2646
S'type'
p2647
atp2648
Rp2649
sS'const double [3]'
p2650
g3
((lp2651
S'type'
p2652
atp2653
Rp2654
sS'void (gmx::test::TestReferenceChecker::Impl *)'
p2655
g3
((lp2656
S'type'
p2657
atp2658
Rp2659
sS'gmx::test::ReferenceDataMode'
p2660
g3
((lp2661
S'type'
p2662
atp2663
Rp2664
sS'std::basic_string<char, std::char_traits<char>, std::allocator<char> >::size_type (const std::basic_string<char> &, std::basic_string<char, std::char_traits<char>, std::allocator<char> >::size_type) const noexcept'
p2665
g3
((lp2666
S'type'
p2667
atp2668
Rp2669
sS'gmx::IOptionsContainer'
p2670
g3
((lp2671
S'type'
p2672
atp2673
Rp2674
sS'int () const'
p2675
g3
((lp2676
S'type'
p2677
atp2678
Rp2679
sS'internal::TypedExpectation<void (const char *)> &'
p2680
g3
((lp2681
S'return_type'
p2682
atp2683
Rp2684
sS'bool (std::string *)'
p2685
g3
((lp2686
S'type'
p2687
atp2688
Rp2689
sS'bool (const std::string &, const std::string &)'
p2690
g3
((lp2691
S'type'
p2692
atp2693
Rp2694
sS'testing::Test'
p2695
g3
((lp2696
S'type'
p2697
atp2698
Rp2699
sS'PrivateImplPointer<gmx::test::TestReferenceChecker::Impl>'
p2700
g3
((lp2701
S'type'
p2702
atp2703
Rp2704
sS'bool'
p2705
g3
((lp2706
S'return_type'
p2707
aS'type'
p2708
atp2709
Rp2710
sS'internal::TypedExpectation<void ()> &(const char *, int, const char *, const char *)'
p2711
g3
((lp2712
S'type'
p2713
atp2714
Rp2715
sS'void (bool, const char *)'
p2716
g3
((lp2717
S'type'
p2718
atp2719
Rp2720
sS'gmx::test::TestReferenceChecker (const char *, const char *)'
p2721
g3
((lp2722
S'type'
p2723
atp2724
Rp2725
sS'void (int, const char *)'
p2726
g3
((lp2727
S'type'
p2728
atp2729
Rp2730
sS'std::vector<std::string> (const std::string &, char)'
p2731
g3
((lp2732
S'type'
p2733
atp2734
Rp2735
sS'PolymorphicAction<internal::InvokeMethodAction<Impl, bool (Impl::*)(basic_string<char> *)> > (gmx::test::InteractiveTestHelper::Impl *, bool (gmx::test::InteractiveTestHelper::Impl::*)(std::basic_string<char> *))'
p2736
g3
((lp2737
S'type'
p2738
atp2739
Rp2740
sS'::testing::FunctionMocker<bool (std::string *)>'
p2741
g3
((lp2742
S'type'
p2743
atp2744
Rp2745
sS'MockSpec<testing::internal::FunctionMocker<bool (std::basic_string<char> *)>::F> &'
p2746
g3
((lp2747
S'return_type'
p2748
atp2749
Rp2750
sS'void ()'
p2751
g3
((lp2752
S'type'
p2753
atp2754
Rp2755
sS'gmx::TextLineWrapper'
p2756
g3
((lp2757
S'type'
p2758
atp2759
Rp2760
sS'gmx::ArrayRef::value_type (&)[count]'
p2761
g3
((lp2762
S'type'
p2763
atp2764
Rp2765
sS'unsigned char (const char *)'
p2766
g3
((lp2767
S'type'
p2768
atp2769
Rp2770
sS'internal::TypedExpectation<void (const char *)> &(const char *, int, const char *, const char *)'
p2771
g3
((lp2772
S'type'
p2773
atp2774
Rp2775
sS'int (std::basic_string<char, std::char_traits<char>, std::allocator<char> >::size_type, std::basic_string<char, std::char_traits<char>, std::allocator<char> >::size_type, const std::basic_string<char> &) const'
p2776
g3
((lp2777
S'type'
p2778
atp2779
Rp2780
sS'InputIterator'
p2781
g3
((lp2782
S'type'
p2783
atp2784
Rp2785
sS'extern'
p2786
g3
((lp2787
S'storage_class'
p2788
atp2789
Rp2790
sS'std::string (const char *, __va_list_tag *)'
p2791
g3
((lp2792
S'type'
p2793
atp2794
Rp2795
sS'gmx::test::MockTextOutputStream'
p2796
g3
((lp2797
S'type'
p2798
atp2799
Rp2800
sS'std::string (const char *)'
p2801
g3
((lp2802
S'type'
p2803
atp2804
Rp2805
sS'gmx::TextOutputStream &'
p2806
g3
((lp2807
S'return_type'
p2808
atp2809
Rp2810
sS'std::shared_ptr<internal::TestReferenceDataImpl>'
p2811
g3
((lp2812
S'type'
p2813
atp2814
Rp2815
sS'PolymorphicAction<internal::InvokeMethodAction<Impl, void (Impl::*)(const char *)> >'
p2816
g3
((lp2817
S'return_type'
p2818
atp2819
Rp2820
sS'std::vector<std::string> (const std::string &) const'
p2821
g3
((lp2822
S'type'
p2823
atp2824
Rp2825
sS'Private'
p2826
g3
((lp2827
S'access_specifier'
p2828
atp2829
Rp2830
sS'const std::string'
p2831
g3
((lp2832
S'type'
p2833
atp2834
Rp2835
sS'std::size_t (const char *)'
p2836
g3
((lp2837
S'type'
p2838
atp2839
Rp2840
sS'float (const char *)'
p2841
g3
((lp2842
S'type'
p2843
atp2844
Rp2845
sS'gmx::test::TestReferenceChecker (const char *, size_t)'
p2846
g3
((lp2847
S'type'
p2848
atp2849
Rp2850
sS'std::vector<std::string> (const std::string &)'
p2851
g3
((lp2852
S'type'
p2853
atp2854
Rp2855
sS'gmx::test::TestReferenceChecker::Impl *'
p2856
g3
((lp2857
S'type'
p2858
atp2859
Rp2860
sS'gmx::test::TestReferenceChecker &()'
p2861
g3
((lp2862
S'type'
p2863
atp2864
Rp2865
sS'void (const gmx::TextLineWrapperSettings &) noexcept'
p2866
g3
((lp2867
S'type'
p2868
atp2869
Rp2870
sS'gmx::test::TestReferenceChecker &'
p2871
g3
((lp2872
S'return_type'
p2873
atp2874
Rp2875
sS'gmx::test::internal::TestReferenceDataImpl'
p2876
g3
((lp2877
S'type'
p2878
atp2879
Rp2880
sS'gmx::ArrayRef<const char *const>::reference'
p2881
g3
((lp2882
S'return_type'
p2883
atp2884
Rp2885
sS'typename std::remove_reference<TestReferenceChecker &>::type &&'
p2886
g3
((lp2887
S'return_type'
p2888
atp2889
Rp2890
ssS'common_word'
p2891
g2
(g3
tp2892
Rp2893
S'member variables'
p2894
g3
((lp2895
S'StructDecl'
p2896
aS'VarDecl'
p2897
aS'ParmDecl'
p2898
aS'EnumDecl'
p2899
aS'UnionDecl'
p2900
aS'FieldDecl'
p2901
atp2902
Rp2903
sS'Functions'
p2904
g3
((lp2905
S'FunctionDecl'
p2906
aS'CXXMethod'
p2907
aS'CXXConstructor'
p2908
atp2909
Rp2910
sS'methods'
p2911
g3
((lp2912
g2906
ag2907
ag2908
atp2913
Rp2914
sS'global variables'
p2915
g3
((lp2916
g2900
ag2896
ag2897
ag2899
atp2917
Rp2918
sS'variables'
p2919
g3
((lp2920
g2896
ag2897
ag2898
ag2899
ag2900
ag2901
atp2921
Rp2922
sS'constructors'
p2923
g3
((lp2924
g2906
ag2907
ag2908
atp2925
Rp2926
sS'Field'
p2927
g3
((lp2928
g2896
ag2897
ag2898
ag2899
ag2900
ag2901
atp2929
Rp2930
sS'initialiser'
p2931
g3
((lp2932
g2906
ag2907
ag2908
atp2933
Rp2934
sS'Function'
p2935
g3
((lp2936
g2906
ag2907
ag2908
atp2937
Rp2938
sS'functions'
p2939
g3
((lp2940
g2906
ag2907
ag2908
atp2941
Rp2942
sS'parameters'
p2943
g3
((lp2944
g2898
atp2945
Rp2946
sS'instance'
p2947
g3
((lp2948
g2896
ag2897
ag2898
ag2899
ag2900
ag2901
atp2949
Rp2950
sS'destructor'
p2951
g3
((lp2952
g2906
ag2907
ag2908
atp2953
Rp2954
sS'field'
p2955
g3
((lp2956
g2896
ag2897
ag2898
ag2899
ag2900
ag2901
atp2957
Rp2958
sS'datastructure'
p2959
g3
((lp2960
g2896
ag2897
ag2898
ag2899
ag2900
ag2901
atp2961
Rp2962
sS'routine'
p2963
g3
((lp2964
g2906
ag2907
ag2908
atp2965
Rp2966
sS'var'
p2967
g3
((lp2968
g2896
ag2897
ag2898
ag2899
ag2900
ag2901
atp2969
Rp2970
sS'structures'
p2971
g3
((lp2972
g2896
atp2973
Rp2974
sS'method'
p2975
g3
((lp2976
g2906
ag2907
ag2908
atp2977
Rp2978
sS'friend'
p2979
g3
((lp2980
S'FriendDecl'
p2981
atp2982
Rp2983
sS'function'
p2984
g3
((lp2985
g2906
ag2907
ag2908
atp2986
Rp2987
sS'member method'
p2988
g3
((lp2989
g2906
ag2907
ag2908
atp2990
Rp2991
sS'Fields'
p2992
g3
((lp2993
g2896
ag2897
ag2898
ag2899
ag2900
ag2901
atp2994
Rp2995
sS'Variable'
p2996
g3
((lp2997
g2896
ag2897
ag2898
ag2899
ag2900
ag2901
atp2998
Rp2999
sS'func'
p3000
g3
((lp3001
g2906
ag2907
ag2908
atp3002
Rp3003
sS'variable'
p3004
g3
((lp3005
g2896
ag2897
ag2898
ag2899
ag2900
ag2901
atp3006
Rp3007
sS'parameter'
p3008
g3
((lp3009
g2898
atp3010
Rp3011
sS'class'
p3012
g3
((lp3013
S'ClassDecl'
p3014
atp3015
Rp3016
sS'local variables'
p3017
g3
((lp3018
g2901
ag2898
atp3019
Rp3020
sS'fields'
p3021
g3
((lp3022
g2896
ag2897
ag2898
ag2899
ag2900
ag2901
atp3023
Rp3024
sS'Variables'
p3025
g3
((lp3026
g2896
ag2897
ag2898
ag2899
ag2900
ag2901
atp3027
Rp3028
sS'global variable'
p3029
g3
((lp3030
g2900
ag2896
ag2897
ag2899
atp3031
Rp3032
sS'local variable'
p3033
g3
((lp3034
g2901
ag2898
atp3035
Rp3036
sS'item'
p3037
g3
((lp3038
g2896
ag2897
ag2898
ag2899
ag2900
ag2901
atp3039
Rp3040
sS'classes'
p3041
g3
((lp3042
g3014
atp3043
Rp3044
sS'constructor'
p3045
g3
((lp3046
g2906
ag2907
ag2908
atp3047
Rp3048
sS'composite datastructure'
p3049
g3
((lp3050
g2896
ag2897
ag2898
ag2899
ag2900
ag2901
atp3051
Rp3052
sS'computation unit'
p3053
g3
((lp3054
g2906
ag2907
ag2908
atp3055
Rp3056
ss.