(dp0
crdflib.term
Literal
p1
(V
p2
NNtp3
Rp4
g1
(V144
p5
Ncrdflib.term
URIRef
p6
(Vhttp://www.w3.org/2001/XMLSchema#integer
p7
tp8
Rp9
tp10
Rp11
sg1
(Vinteractivetest.h
p12
NNtp13
Rp14
g1
(V24
p15
Ng9
tp16
Rp17
sg1
(Vgmxassert.h
p18
NNtp19
Rp20
g1
(V151
p21
Ng9
tp22
Rp23
sg1
(Vbasic_string.h
p24
NNtp25
Rp26
g1
(V144
p27
Ng9
tp28
Rp29
sg1
(Vstl_iterator_base_types.h
p30
NNtp31
Rp32
g1
(V1
p33
Ng9
tp34
Rp35
sg1
(Vgmock-generated-function-mockers.h
p36
NNtp37
Rp38
g1
(V144
p39
Ng9
tp40
Rp41
sg1
(Varray
p42
NNtp43
Rp44
g1
(V144
p45
Ng9
tp46
Rp47
sg1
(Vgmock-more-actions.h
p48
NNtp49
Rp50
g1
(V145
p51
Ng9
tp52
Rp53
sg1
(Vgmock-generated-internal-utils.h
p54
NNtp55
Rp56
g1
(V154
p57
Ng9
tp58
Rp59
sg1
(Vstringutil.h
p60
NNtp61
Rp62
g1
(V212
p63
Ng9
tp64
Rp65
sg1
(Vunique_ptr.h
p66
NNtp67
Rp68
g1
(g33
Ng9
tp69
Rp70
sg1
(Vtextstream.h
p71
NNtp72
Rp73
g1
(V158
p74
Ng9
tp75
Rp76
sg1
(Vinteractivetest.cpp
p77
NNtp78
Rp79
g1
(V210
p80
Ng9
tp81
Rp82
sg1
(Vstl_vector.h
p83
NNtp84
Rp85
g1
(g33
Ng9
tp86
Rp87
sg1
(Vtype_traits
p88
NNtp89
Rp90
g1
(V6
p91
Ng9
tp92
Rp93
sg1
(Vgtest.h
p94
NNtp95
Rp96
g1
(V3
p97
Ng9
tp98
Rp99
sg1
(Vstringtest.h
p100
NNtp101
Rp102
g1
(V159
p103
Ng9
tp104
Rp105
sg1
(Vstdio.h
p106
NNtp107
Rp108
g1
(g33
Ng9
tp109
Rp110
sg1
(Vgmock-spec-builders.h
p111
NNtp112
Rp113
g1
(V145
p114
Ng9
tp115
Rp116
sg1
(Vcurrent_function.h
p117
NNtp118
Rp119
g1
(g97
Ng9
tp120
Rp121
sg1
(Vgmock-matchers.h
p122
NNtp123
Rp124
g1
(V145
p125
Ng9
tp126
Rp127
sg1
(Vstl_iterator.h
p128
NNtp129
Rp130
g1
(g33
Ng9
tp131
Rp132
sg1
(Vstring.h
p133
NNtp134
Rp135
g1
(V2
p136
Ng9
tp137
Rp138
sg1
(Vgmock-actions.h
p139
NNtp140
Rp141
g1
(V144
p142
Ng9
tp143
Rp144
sg1
(Varrayref.h
p145
NNtp146
Rp147
g1
(V206
p148
Ng9
tp149
Rp150
sg1
(Vclasshelpers.h
p151
NNtp152
Rp153
g1
(V158
p154
Ng9
tp155
Rp156
sg1
(Vrefdata.h
p157
NNtp158
Rp159
g1
(V181
p160
Ng9
tp161
Rp162
sg1
(Vmove.h
p163
NNtp164
Rp165
g1
(g33
Ng9
tp166
Rp167
sg1
(Vc++config.h
p168
NNtp169
Rp170
g1
(g91
Ng9
tp171
Rp172
sg1
(Vstdexcept
p173
NNtp174
Rp175
g1
(V145
p176
Ng9
tp177
Rp178
sg1
(Vstringfwd.h
p179
NNtp180
Rp181
g1
(g136
Ng9
tp182
Rp183
sg1
(Vbasic_string.tcc
p184
NNtp185
Rp186
g1
(g33
Ng9
tp187
Rp188
sg1
(Vbasedefinitions.h
p189
NNtp190
Rp191
g1
(V154
p192
Ng9
tp193
Rp194
sg1
(Vshared_ptr.h
p195
NNtp196
Rp197
g1
(g33
Ng9
tp198
Rp199
s.