(lp0
S'offset'
p1
aS'ref_id'
p2
aS'file'
p3
aS'return_type'
p4
aS'size'
p5
aS'display_name'
p6
aS'id'
p7
aS'mangled_name'
p8
aS'usr'
p9
aS'isDecl'
p10
aS'type'
p11
aS'funcargs'
p12
aS'lex_parent_id'
p13
aS'range.end'
p14
aS'visibility'
p15
aS'def_id'
p16
aS'linkage_kind'
p17
aS'address'
p18
aS'line'
p19
aS'spelling'
p20
aS'linkage_name'
p21
aS'range.start'
p22
aS'isDef'
p23
aS'storage_class'
p24
aS'col'
p25
aS'THREADID'
p26
aS'SYNCS'
p27
aS'READCOUNT'
p28
aS'WRITECOUNT'
p29
aS'CALLEENAME'
p30
aS'CALLERNAME'
p31
aS'RETVAL'
p32
a.