ccollections
defaultdict
p0
(c__builtin__
str
p1
tp2
Rp3
S'103091620651'
p4
S'100814090049'
p5
sS'203719407537'
p6
S'200228267599'
p7
sS'201262602282'
p8
S'201262602282'
p9
sS'203405350169'
p10
S'203405350169'
p11
sS'201824704838'
p12
NsS'200953257532'
p13
S'200953257532'
p14
sS'200981031628'
p15
S'200228267599'
p16
sS'101921716700'
p17
S'102683664877'
p18
sS'100521329878'
p19
S'100868908604'
p20
sS'100930621618'
p21
S'102923756536'
p22
sS'100250893048'
p23
S'102631444646'
p24
sS'102737885652'
p25
S'103343092896'
p26
sS'102026824562'
p27
S'102026824562'
p28
sS'201795188009'
p29
S'202196042701'
p30
sS'204013373015'
p31
S'203856954263'
p32
sS'102233627449'
p33
S'100389659210'
p34
sS'101259753677'
p35
S'100308714638'
p36
sS'102196424691'
p37
S'103645353489'
p38
sS'101105233665'
p39
S'102923756536'
p40
sS'102010105479'
p41
S'102923756536'
p42
sS'102173769854'
p43
S'102631444646'
p44
sS'201476655348'
p45
S'203856954263'
p46
sS'201830132967'
p47
S'203649503619'
p48
sS'101135789063'
p49
S'101135789063'
p50
sS'203208694507'
p51
S'201262602282'
p52
sS'103306769115'
p53
S'103810510320'
p54
sS'101027203641'
p55
S'103810510320'
p56
sS'102683664877'
p57
S'102683664877'
p58
sS'103832746778'
p59
S'102631444646'
p60
sS'101184542374'
p61
S'102683664877'
p62
sS'200783075338'
p63
S'203870922148'
p64
sS'102059976170'
p65
S'103810510320'
p66
sS'101473037587'
p67
S'103645353489'
p68
sS'102356010916'
p69
S'103343092896'
p70
sS'204010125344'
p71
S'203405350169'
p72
sS'101796203294'
p73
S'102923756536'
p74
sS'101610403764'
p75
S'100814090049'
p76
sS'102054769798'
p77
S'102923756536'
p78
sS'202482131349'
p79
S'203405350169'
p80
sS'103645353489'
p81
S'103645353489'
p82
sS'101493943271'
p83
S'102683664877'
p84
sS'100904164057'
p85
S'100814090049'
p86
sS'201298284677'
p87
S'203738898286'
p88
sS'201385996214'
p89
NsS'104042145870'
p90
S'200953257532'
p91
sS'204293927236'
p92
S'203947831982'
p93
sS'101379882241'
p94
S'103343092896'
p95
sS'201596263132'
p96
S'203856954263'
p97
sS'101172689698'
p98
S'103343092896'
p99
sS'202058136076'
p100
S'200228267599'
p101
sS'200017582337'
p102
S'203405350169'
p103
sS'101957524719'
p104
NsS'102417325263'
p105
S'102631444646'
p106
sS'202196042701'
p107
S'202196042701'
p108
sS'104022067063'
p109
S'102683664877'
p110
sS'101338022329'
p111
S'101135789063'
p112
sS'104267735173'
p113
S'103343092896'
p114
sS'203856954263'
p115
S'203856954263'
p116
sS'104109689021'
p117
S'103343092896'
p118
sS'204066189394'
p119
S'203405350169'
p120
sS'203870922148'
p121
S'203870922148'
p122
sS'204161513401'
p123
S'203405350169'
p124
sS'102849760101'
p125
S'101135789063'
p126
sS'101108571545'
p127
S'103343092896'
p128
sS'201094380496'
p129
S'201262602282'
p130
sS'203591964671'
p131
S'203649503619'
p132
sS'103075636276'
p133
S'101135789063'
p134
sS'104050294942'
p135
S'102923756536'
p136
sS'200924511787'
p137
S'203856954263'
p138
sS'100489658041'
p139
S'103645353489'
p140
sS'202735292683'
p141
S'203870922148'
p142
sS'100868908604'
p143
S'100868908604'
p144
sS'103810749758'
p145
S'104042145870'
p146
sS'100814090049'
p147
S'100814090049'
p148
sS'203649503619'
p149
S'203649503619'
p150
sS'100308714638'
p151
S'100308714638'
p152
sS'201411739851'
p153
S'203856954263'
p154
sS'200218671725'
p155
S'203649503619'
p156
sS'103893236431'
p157
S'102683664877'
p158
sS'201341252541'
p159
S'202196042701'
p160
sS'104144601829'
p161
S'103810510320'
p162
sS'103810510320'
p163
S'103810510320'
p164
sS'102631444646'
p165
S'102631444646'
p166
sS'103468331112'
p167
S'103343092896'
p168
sS'102939588270'
p169
S'100868908604'
p170
sS'202524385421'
p171
NsS'202688909131'
p172
S'203405350169'
p173
sS'101552479127'
p174
NsS'203893534193'
p175
S'203738898286'
p176
sS'102923756536'
p177
S'102923756536'
p178
sS'200737168084'
p179
S'203738898286'
p180
sS'102691841719'
p181
S'103810510320'
p182
sS'203738898286'
p183
S'203738898286'
p184
sS'201324102594'
p185
S'203405350169'
p186
sS'102995381011'
p187
S'102683664877'
p188
sS'103440834276'
p189
S'103343092896'
p190
sS'103076344503'
p191
S'103810510320'
p192
sS'203596991493'
p193
S'203649503619'
p194
sS'102595535009'
p195
S'102430163107'
p196
sS'101916923412'
p197
S'104082584540'
p198
sS'100216453298'
p199
S'100216453298'
p200
sS'203725270643'
p201
S'203405350169'
p202
sS'102297866375'
p203
S'100308714638'
p204
sS'203947831982'
p205
S'203947831982'
p206
sS'102786536157'
p207
S'103343092896'
p208
sS'103245088706'
p209
S'102430163107'
p210
sS'200228267599'
p211
S'200228267599'
p212
sS'101828841038'
p213
S'102631444646'
p214
sS'102430163107'
p215
S'102430163107'
p216
sS'204091162039'
p217
S'203405350169'
p218
sS'100661366759'
p219
S'103343092896'
p220
sS'102025943755'
p221
S'102430163107'
p222
sS'102602137462'
p223
S'102602137462'
p224
sS'103223013397'
p225
S'100308714638'
p226
sS'102574861232'
p227
S'101135789063'
p228
sS'103343092896'
p229
S'103343092896'
p230
s.