ccollections
defaultdict
p0
(c__builtin__
str
p1
tp2
Rp3
S'9104237066020'
p4
S'9104237066020'
p5
sS'9103491026591'
p6
S'9103491026591'
p7
sS'9100461877898'
p8
NsS'9100594145855'
p9
S'9100594145855'
p10
sS'9101491955905'
p11
S'9101491955905'
p12
sS'9102525398078'
p13
S'9102525398078'
p14
sS'9103479955569'
p15
S'9103479955569'
p16
sS'9100145956635'
p17
S'9100145956635'
p18
sS'9101294399001'
p19
NsS'9101575068000'
p20
S'9101575068000'
p21
sS'9100453769122'
p22
S'9101801391918'
p23
sS'9100389457184'
p24
S'9100389457184'
p25
sS'9100396430747'
p26
S'9100396430747'
p27
sS'9100162951199'
p28
S'9100162951199'
p29
sS'9101487636991'
p30
S'9101487636991'
p31
sS'9102660559990'
p32
S'9103047090021'
p33
sS'9103286876090'
p34
S'9103286876090'
p35
sS'9102297177530'
p36
S'9102297177530'
p37
sS'9103155853547'
p38
S'9103155853547'
p39
sS'9103310024825'
p40
S'9103310024825'
p41
sS'9104077960921'
p42
S'9104077960921'
p43
sS'9102210947839'
p44
S'9102210947839'
p45
sS'9103785422511'
p46
NsS'9100683385010'
p47
S'9100683385010'
p48
sS'9103107365516'
p49
NsS'9102095293561'
p50
S'9102095293561'
p51
sS'9101014818250'
p52
S'9101014818250'
p53
sS'9104250493946'
p54
S'9101961161466'
p55
sS'9101367522692'
p56
S'9101367522692'
p57
sS'9104150886567'
p58
NsS'9100308780939'
p59
S'9100308780939'
p60
sS'9103227427015'
p61
S'9103227427015'
p62
sS'9101811220236'
p63
S'9101811220236'
p64
sS'9100688141057'
p65
S'9100688141057'
p66
sS'9100449186757'
p67
S'9100449186757'
p68
sS'9103151186616'
p69
S'9103151186616'
p70
sS'9100334771277'
p71
S'9100334771277'
p72
sS'9103355815260'
p73
S'9103355815260'
p74
sS'9100299746882'
p75
S'9102742711342'
p76
sS'9100367569379'
p77
S'9100367569379'
p78
sS'9101918624163'
p79
S'9104123470809'
p80
sS'9101508322112'
p81
NsS'9102384189232'
p82
S'9102384189232'
p83
sS'9101319865026'
p84
S'9101319865026'
p85
sS'9102091827626'
p86
NsS'9103772692426'
p87
S'9100979452233'
p88
sS'9100580005630'
p89
S'9103398805833'
p90
sS'9102609500361'
p91
S'9102609500361'
p92
sS'9104258229190'
p93
NsS'9103329666871'
p94
S'9103329666871'
p95
sS'9103747735240'
p96
S'9103747735240'
p97
sS'9100796717506'
p98
S'9100796717506'
p99
sS'9102645978419'
p100
S'9102645978419'
p101
sS'9104182674510'
p102
NsS'9101683182296'
p103
S'9101683182296'
p104
sS'9100333845930'
p105
S'9100333845930'
p106
sS'9101711645507'
p107
S'9101711645507'
p108
sS'9101996971665'
p109
NsS'9103341218230'
p110
NsS'9102702858706'
p111
S'9102702858706'
p112
sS'9100252367887'
p113
S'9101740393979'
p114
sS'9101637233163'
p115
S'9101637233163'
p116
sS'9100516428729'
p117
S'9100516428729'
p118
sS'9102250571334'
p119
S'9102250571334'
p120
sS'9100167707063'
p121
S'9100167707063'
p122
sS'9102765449095'
p123
S'9102765449095'
p124
sS'9103831858618'
p125
S'9102047097147'
p126
sS'9103468753167'
p127
S'9103468753167'
p128
sS'9103419935642'
p129
S'9103419935642'
p130
sS'9101380856588'
p131
S'9103463375117'
p132
sS'9103380889614'
p133
S'9103380889614'
p134
sS'9103527314785'
p135
NsS'9102621401271'
p136
S'9102621401271'
p137
sS'9100430965055'
p138
S'9100430965055'
p139
sS'9102480243471'
p140
S'9102480243471'
p141
sS'9102172325534'
p142
S'9103755033006'
p143
sS'9100856142706'
p144
S'9100856142706'
p145
sS'9101069227054'
p146
S'9101069227054'
p147
sS'9102032777883'
p148
S'9102032777883'
p149
sS'9103410256443'
p150
S'9103410256443'
p151
sS'9101751288452'
p152
S'9101751288452'
p153
sS'9100700635940'
p154
S'9100738177088'
p155
sS'9101522730197'
p156
S'9101801391918'
p157
sS'9102909657467'
p158
S'9102909657467'
p159
sS'9101488076790'
p160
S'9101753083423'
p161
sS'9102214631348'
p162
S'9103113832950'
p163
sS'9104226519110'
p164
S'9104226519110'
p165
sS'9104289444088'
p166
S'9104289444088'
p167
sS'9103752242284'
p168
S'9103752242284'
p169
sS'9102109841398'
p170
NsS'9103327324162'
p171
S'9103327324162'
p172
sS'9104051402851'
p173
S'9104051402851'
p174
sS'9101918575807'
p175
NsS'9102874553570'
p176
S'9102874553570'
p177
sS'9101687306352'
p178
S'9101687306352'
p179
sS'9102852521394'
p180
S'9102852521394'
p181
sS'9103799504216'
p182
S'9103799504216'
p183
sS'9104097566583'
p184
S'9103035177540'
p185
sS'9103550681789'
p186
S'9103550681789'
p187
sS'9103250826563'
p188
S'9103250826563'
p189
sS'9100054378216'
p190
S'9100054378216'
p191
sS'9102474053349'
p192
S'9102474053349'
p193
sS'9101216031090'
p194
S'9100738177088'
p195
sS'9100873195375'
p196
S'9100873195375'
p197
sS'9103000001558'
p198
S'9103000001558'
p199
sS'9103917598747'
p200
NsS'9102576158877'
p201
S'9103235479050'
p202
sS'9101534304470'
p203
S'9101534304470'
p204
sS'9102784666288'
p205
S'9102784666288'
p206
sS'9103252593208'
p207
S'9103252593208'
p208
sS'9103606736537'
p209
S'9103606736537'
p210
sS'9102277328933'
p211
S'9102277328933'
p212
sS'9101332511546'
p213
S'9101332511546'
p214
sS'9104209149393'
p215
S'9104209149393'
p216
sS'9101633884674'
p217
S'9101633884674'
p218
sS'9104075995718'
p219
S'9104075995718'
p220
sS'9103772377289'
p221
S'9103772377289'
p222
sS'9100738975003'
p223
S'9100738975003'
p224
sS'9103437290725'
p225
S'9103437290725'
p226
sS'9103074898383'
p227
S'9101382970766'
p228
sS'9100661540235'
p229
NsS'9103310302051'
p230
S'9103310302051'
p231
sS'9103654108070'
p232
S'9103654108070'
p233
sS'9102279910101'
p234
S'9102279910101'
p235
sS'9103038362592'
p236
NsS'9101056233399'
p237
S'9101056233399'
p238
sS'9102812005903'
p239
S'9102812005903'
p240
sS'9102359703437'
p241
S'9102359703437'
p242
sS'9101147239787'
p243
S'9103564138057'
p244
sS'9100687033845'
p245
S'9100687033845'
p246
sS'9102067322384'
p247
S'9102067322384'
p248
sS'9103688513972'
p249
S'9100580461221'
p250
sS'9100919467186'
p251
S'9100919467186'
p252
sS'9101003107036'
p253
NsS'9102804048105'
p254
S'9102804048105'
p255
sS'9100574940895'
p256
S'9100574940895'
p257
sS'9100159708289'
p258
S'9100159708289'
p259
sS'9100594600197'
p260
S'9100594600197'
p261
sS'9103628934843'
p262
S'9103628934843'
p263
sS'9100081321782'
p264
S'9101961161466'
p265
sS'9100117327973'
p266
NsS'9100638239468'
p267
S'9100580461221'
p268
sS'9102452972034'
p269
S'9102900644690'
p270
sS'9103026703849'
p271
S'9103026703849'
p272
sS'9101755669824'
p273
S'9100738177088'
p274
sS'9101753597146'
p275
S'9101753597146'
p276
sS'9104191857444'
p277
S'9104191857444'
p278
sS'9104136944875'
p279
S'9104136944875'
p280
sS'9100267903204'
p281
S'9100267903204'
p282
sS'9102085909601'
p283
S'9102085909601'
p284
sS'9101893712406'
p285
S'9104123470809'
p286
sS'9103035177540'
p287
S'9103035177540'
p288
sS'9101098874876'
p289
NsS'9103662616728'
p290
S'9103662616728'
p291
sS'9103219300817'
p292
S'9103219300817'
p293
sS'9103844179101'
p294
S'9100580461221'
p295
sS'9102965886821'
p296
S'9102965886821'
p297
sS'9100719646709'
p298
S'9100719646709'
p299
sS'9102436830175'
p300
S'9102436830175'
p301
sS'9101346117833'
p302
S'9101346117833'
p303
sS'9101110773877'
p304
S'9101110773877'
p305
sS'9103588544915'
p306
NsS'9102363480668'
p307
S'9102363480668'
p308
sS'9103041393818'
p309
NsS'9103266615394'
p310
S'9103266615394'
p311
sS'9100894486795'
p312
S'9100894486795'
p313
sS'9102076168470'
p314
S'9101725441155'
p315
sS'9103662937267'
p316
S'9103662937267'
p317
sS'9102514936787'
p318
S'9102514936787'
p319
sS'9100990618443'
p320
NsS'9101974956877'
p321
S'9101974956877'
p322
sS'9100733371843'
p323
S'9100733371843'
p324
sS'9103507012529'
p325
S'9103507012529'
p326
sS'9103176084186'
p327
S'9103176084186'
p328
sS'9104149350313'
p329
S'9101753083423'
p330
sS'9104051115177'
p331
NsS'9102559682724'
p332
S'9102931011222'
p333
sS'9102080646022'
p334
S'9102080646022'
p335
sS'9103425385539'
p336
S'9103425385539'
p337
sS'9101059520935'
p338
NsS'9103280902808'
p339
S'9103280902808'
p340
sS'9101843444290'
p341
S'9101745778805'
p342
sS'9102972257849'
p343
S'9102972257849'
p344
sS'9102917320608'
p345
S'9101062317959'
p346
sS'9101946679511'
p347
S'9101946679511'
p348
sS'9102049919830'
p349
S'9102049919830'
p350
sS'9100157069935'
p351
S'9100738177088'
p352
sS'9100580461221'
p353
NsS'9101715990396'
p354
S'9101715990396'
p355
sS'9101519958515'
p356
S'9101519958515'
p357
sS'9100461119576'
p358
S'9100461119576'
p359
sS'9100182479343'
p360
S'9101443829449'
p361
sS'9100858742973'
p362
S'9103628503380'
p363
sS'9103928471900'
p364
S'9103928471900'
p365
sS'9103361802610'
p366
S'9103212161163'
p367
sS'9102532259046'
p368
S'9101443829449'
p369
sS'9103291880300'
p370
S'9103291880300'
p371
sS'9103433413739'
p372
S'9103433413739'
p373
sS'9100717105842'
p374
S'9101080799309'
p375
sS'9100871889875'
p376
S'9100871889875'
p377
sS'9103300026933'
p378
S'9103300026933'
p379
sS'9101563606776'
p380
S'9101563606776'
p381
sS'9101707235357'
p382
S'9101645249817'
p383
sS'9102246125804'
p384
S'9102246125804'
p385
sS'9102452095579'
p386
S'9102452095579'
p387
sS'9101601284393'
p388
S'9101601284393'
p389
sS'9103769187160'
p390
S'9103769187160'
p391
sS'9101782057927'
p392
S'9101782057927'
p393
sS'9103047090021'
p394
S'9103047090021'
p395
sS'9103167745747'
p396
S'9101062317959'
p397
sS'9103511735132'
p398
NsS'9101216618007'
p399
S'9101860341501'
p400
sS'9104179584408'
p401
NsS'9101661433610'
p402
NsS'9102856811671'
p403
S'9102856811671'
p404
sS'9102928084780'
p405
S'9102928084780'
p406
sS'9103463375117'
p407
S'9103463375117'
p408
sS'9103504704786'
p409
S'9103504704786'
p410
sS'9101416017153'
p411
S'9101416017153'
p412
sS'9103638932970'
p413
NsS'9100745840895'
p414
NsS'9100087462840'
p415
S'9100087462840'
p416
sS'9101092128214'
p417
S'9100738177088'
p418
sS'9103654461563'
p419
S'9103788348610'
p420
sS'9103788348610'
p421
S'9103788348610'
p422
sS'9102838456373'
p423
S'9102838456373'
p424
sS'9104165501584'
p425
S'9104165501584'
p426
sS'9103235479050'
p427
S'9103235479050'
p428
sS'9100368284985'
p429
S'9100368284985'
p430
sS'9102796546593'
p431
S'9102796546593'
p432
sS'9103564138057'
p433
S'9103564138057'
p434
sS'9104159235178'
p435
S'9103813519547'
p436
sS'9101670668633'
p437
S'9101670668633'
p438
sS'9100149242601'
p439
S'9100149242601'
p440
sS'9100867006053'
p441
S'9100867006053'
p442
sS'9103807268506'
p443
S'9103807268506'
p444
sS'9103869935026'
p445
S'9103869935026'
p446
sS'9101697764784'
p447
NsS'9103465298173'
p448
S'9103465298173'
p449
sS'9102834013093'
p450
S'9102834013093'
p451
sS'9103955509936'
p452
S'9103955509936'
p453
sS'9102294885280'
p454
S'9102294885280'
p455
sS'9101202870960'
p456
S'9101202870960'
p457
sS'9102143214644'
p458
S'9102143214644'
p459
sS'9103418556366'
p460
S'9103418556366'
p461
sS'9101089879790'
p462
S'9101089879790'
p463
sS'9100730800547'
p464
S'9100730800547'
p465
sS'9102645026962'
p466
S'9104243035448'
p467
sS'9100971478670'
p468
S'9100971478670'
p469
sS'9101650199538'
p470
S'9101650199538'
p471
sS'9103285185412'
p472
S'9103035177540'
p473
sS'9103477684314'
p474
S'9100580461221'
p475
sS'9103927947454'
p476
S'9103927947454'
p477
sS'9102547796628'
p478
S'9102547796628'
p479
sS'9100513658449'
p480
S'9100513658449'
p481
sS'9100875648104'
p482
S'9100875648104'
p483
sS'9103627426740'
p484
S'9103627426740'
p485
sS'9101642166772'
p486
S'9101753083423'
p487
sS'9100636253321'
p488
S'9100636253321'
p489
sS'9100208637695'
p490
S'9103076488198'
p491
sS'9101656027937'
p492
S'9100308780939'
p493
sS'9104258413784'
p494
S'9104258413784'
p495
sS'9102029063533'
p496
S'9102029063533'
p497
sS'9101360237592'
p498
S'9103783238560'
p499
sS'9100210757170'
p500
S'9100210757170'
p501
sS'9102317358197'
p502
S'9102317358197'
p503
sS'9103079379104'
p504
S'9103079379104'
p505
sS'9101116146557'
p506
S'9101116146557'
p507
sS'9104288354550'
p508
S'9104288354550'
p509
sS'9100608903230'
p510
S'9103714728119'
p511
sS'9103577050962'
p512
S'9102897278536'
p513
sS'9103838944464'
p514
S'9103838944464'
p515
sS'9100214891216'
p516
S'9100214891216'
p517
sS'9104269726094'
p518
S'9103035177540'
p519
sS'9100838426189'
p520
S'9100838426189'
p521
sS'9100926189562'
p522
S'9101348156621'
p523
sS'9102314330666'
p524
S'9102900644690'
p525
sS'9102644804164'
p526
S'9103140967758'
p527
sS'9103278474000'
p528
NsS'9100384811118'
p529
S'9100384811118'
p530
sS'9100968919529'
p531
S'9100968919529'
p532
sS'9100063832988'
p533
S'9100063832988'
p534
sS'9102138130962'
p535
S'9102138130962'
p536
sS'9102298191219'
p537
NsS'9103925728665'
p538
S'9103047090021'
p539
sS'9103748676753'
p540
S'9103748676753'
p541
sS'9100457499218'
p542
S'9100457499218'
p543
sS'9101555348190'
p544
S'9104186631512'
p545
sS'9102718123561'
p546
S'9102146823888'
p547
sS'9101991580866'
p548
S'9101991580866'
p549
sS'9103395355642'
p550
S'9103395355642'
p551
sS'9102853182352'
p552
S'9102853182352'
p553
sS'9104242521392'
p554
S'9104242521392'
p555
sS'9101584011128'
p556
S'9101645249817'
p557
sS'9100877661537'
p558
S'9100877661537'
p559
sS'9101827115336'
p560
S'9101827115336'
p561
sS'9101362410097'
p562
S'9101362410097'
p563
sS'9102535120758'
p564
S'9100580461221'
p565
sS'9103508210604'
p566
S'9101905945889'
p567
sS'9103535564222'
p568
S'9103535564222'
p569
sS'9102721629862'
p570
S'9102721629862'
p571
sS'9100282665874'
p572
S'9101801391918'
p573
sS'9100891552507'
p574
S'9100891552507'
p575
sS'9103632523168'
p576
NsS'9103350951720'
p577
NsS'9102146823888'
p578
S'9102146823888'
p579
sS'9100249287268'
p580
S'9100249287268'
p581
sS'9102973421246'
p582
S'9101801391918'
p583
sS'9102022300481'
p584
S'9101827115336'
p585
sS'9100648684732'
p586
S'9100648684732'
p587
sS'9102588950923'
p588
S'9103725010200'
p589
sS'9102817644400'
p590
S'9102817644400'
p591
sS'9103676901878'
p592
S'9103172453646'
p593
sS'9103765277031'
p594
S'9103765277031'
p595
sS'9100780501630'
p596
S'9100780501630'
p597
sS'9100918670347'
p598
S'9100078641488'
p599
sS'9100883861891'
p600
S'9100883861891'
p601
sS'9101036082394'
p602
S'9101036082394'
p603
sS'9100245528155'
p604
S'9100245528155'
p605
sS'9102266808263'
p606
S'9102266808263'
p607
sS'9101498665670'
p608
NsS'9103164081556'
p609
S'9101589196099'
p610
sS'9103594576315'
p611
S'9103594576315'
p612
sS'9104072031282'
p613
S'9102852521394'
p614
sS'9101473907841'
p615
S'9101473907841'
p616
sS'9103034727205'
p617
S'9103034727205'
p618
sS'9103734883897'
p619
S'9103734883897'
p620
sS'9102039673263'
p621
S'9103010538135'
p622
sS'9104122483236'
p623
S'9104122483236'
p624
sS'9103248943148'
p625
S'9103248943148'
p626
sS'9101469528031'
p627
S'9101469528031'
p628
sS'9100057947859'
p629
S'9100057947859'
p630
sS'9100824534217'
p631
S'9100824534217'
p632
sS'9103585848061'
p633
S'9103585848061'
p634
sS'9101255558090'
p635
S'9101255558090'
p636
sS'9102195846495'
p637
S'9102195846495'
p638
sS'9101326388186'
p639
S'9101326388186'
p640
sS'9100046971001'
p641
S'9104191784963'
p642
sS'9103304764675'
p643
S'9103304764675'
p644
sS'9103476947866'
p645
S'9103252593208'
p646
sS'9101318823074'
p647
S'9101318823074'
p648
sS'9103527056210'
p649
S'9103877451459'
p650
sS'9100687949130'
p651
S'9100687949130'
p652
sS'9100258477958'
p653
S'9100258477958'
p654
sS'9101131887118'
p655
NsS'9101221735085'
p656
S'9101316866312'
p657
sS'9100052251316'
p658
S'9100052251316'
p659
sS'9101628741897'
p660
S'9101628741897'
p661
sS'9103712359617'
p662
S'9103712359617'
p663
sS'9101565685103'
p664
S'9100048402613'
p665
sS'9103278971577'
p666
S'9103278971577'
p667
sS'9101570616224'
p668
S'9101570616224'
p669
sS'9102047097147'
p670
S'9102047097147'
p671
sS'9101355381185'
p672
S'9102497406114'
p673
sS'9103980517153'
p674
S'9103980517153'
p675
sS'9100033611785'
p676
S'9100033611785'
p677
sS'9100719415004'
p678
S'9100719415004'
p679
sS'9100792007672'
p680
S'9100738177088'
p681
sS'9103330267451'
p682
NsS'9103819938257'
p683
S'9103819938257'
p684
sS'9102173282569'
p685
NsS'9103334323558'
p686
S'9103334323558'
p687
sS'9103364198029'
p688
NsS'9103645145291'
p689
S'9103645145291'
p690
sS'9100471504106'
p691
S'9101056233399'
p692
sS'9102422789572'
p693
S'9100580461221'
p694
sS'9101082534392'
p695
S'9101082534392'
p696
sS'9103849055311'
p697
S'9103849055311'
p698
sS'9101723128723'
p699
S'9102931011222'
p700
sS'9103717974115'
p701
S'9103717974115'
p702
sS'9102637549130'
p703
S'9102637549130'
p704
sS'9101079299976'
p705
NsS'9102032952041'
p706
NsS'9103039341979'
p707
S'9103005496037'
p708
sS'9100636848493'
p709
S'9100636848493'
p710
sS'9102754121435'
p711
S'9102754121435'
p712
sS'9100532512290'
p713
S'9102585350971'
p714
sS'9103803719775'
p715
S'9103757782036'
p716
sS'9102223102555'
p717
S'9102223102555'
p718
sS'9104280990227'
p719
S'9100738177088'
p720
sS'9100074854526'
p721
S'9100074854526'
p722
sS'9104268945954'
p723
S'9104268945954'
p724
sS'9100847282014'
p725
S'9100847282014'
p726
sS'9103494842749'
p727
S'9103494842749'
p728
sS'9102193776300'
p729
S'9103788348610'
p730
sS'9100801207346'
p731
S'9100801207346'
p732
sS'9100646230789'
p733
NsS'9102080364655'
p734
S'9101443829449'
p735
sS'9102896365878'
p736
S'9102896365878'
p737
sS'9101936681854'
p738
S'9101936681854'
p739
sS'9100590824920'
p740
S'9100590824920'
p741
sS'9101168037781'
p742
S'9101168037781'
p743
sS'9103847281562'
p744
S'9100417558513'
p745
sS'9104128990409'
p746
S'9100143984495'
p747
sS'9101413572743'
p748
NsS'9103561706037'
p749
S'9103561706037'
p750
sS'9101787484610'
p751
S'9101787484610'
p752
sS'9103697135131'
p753
S'9103527314785'
p754
sS'9100481881085'
p755
S'9100715413738'
p756
sS'9100311987978'
p757
S'9100311987978'
p758
sS'9100929533658'
p759
S'9100929533658'
p760
sS'9103499468179'
p761
S'9103499468179'
p762
sS'9100352119053'
p763
S'9100352119053'
p764
sS'9100646882120'
p765
NsS'9102976196753'
p766
S'9102976196753'
p767
sS'9102497406114'
p768
S'9102497406114'
p769
sS'9102993064382'
p770
S'9102993064382'
p771
sS'9100979452233'
p772
S'9100979452233'
p773
sS'9103105446022'
p774
S'9103105446022'
p775
sS'9103823273678'
p776
NsS'9100861810134'
p777
S'9100861810134'
p778
sS'9103463786100'
p779
NsS'9102033451942'
p780
S'9102033451942'
p781
sS'9101464791023'
p782
S'9101464791023'
p783
sS'9103621583518'
p784
S'9103621583518'
p785
sS'9103343041508'
p786
S'9103343041508'
p787
sS'9102341068078'
p788
S'9102341068078'
p789
sS'9102141810437'
p790
S'9102141810437'
p791
sS'9103758996193'
p792
S'9103758996193'
p793
sS'9104174998099'
p794
S'9101356598850'
p795
sS'9102371727445'
p796
S'9102371727445'
p797
sS'9101459087238'
p798
S'9100738177088'
p799
sS'9100772511634'
p800
S'9100772511634'
p801
sS'9101804263970'
p802
S'9101801391918'
p803
sS'9100247606472'
p804
NsS'9103369376434'
p805
S'9103369376434'
p806
sS'9101034066630'
p807
S'9101034066630'
p808
sS'9102585775919'
p809
S'9102585775919'
p810
sS'9101848074579'
p811
S'9101848074579'
p812
sS'9102546718700'
p813
S'9100738177088'
p814
sS'9100041810129'
p815
S'9100041810129'
p816
sS'9100775022443'
p817
S'9100775022443'
p818
sS'9103397353161'
p819
S'9103397353161'
p820
sS'9100007247330'
p821
S'9104029567390'
p822
sS'9104210272028'
p823
S'9104210272028'
p824
sS'9100513684781'
p825
S'9100580461221'
p826
sS'9100102215679'
p827
S'9100102215679'
p828
sS'9102268823843'
p829
S'9102268823843'
p830
sS'9101801842650'
p831
S'9101801842650'
p832
sS'9103579293405'
p833
NsS'9103033808181'
p834
S'9103033808181'
p835
sS'9103319009252'
p836
S'9103319009252'
p837
sS'9101348156621'
p838
S'9101348156621'
p839
sS'9101957087378'
p840
S'9103710153336'
p841
sS'9101137101995'
p842
NsS'9100915270907'
p843
S'9103718769500'
p844
sS'9102786596206'
p845
S'9102786596206'
p846
sS'9100855161496'
p847
S'9100855161496'
p848
sS'9100190257628'
p849
NsS'9101200850375'
p850
S'9101200850375'
p851
sS'9103982362293'
p852
S'9103982362293'
p853
sS'9102582882919'
p854
S'9100308780939'
p855
sS'9102212635388'
p856
S'9103757782036'
p857
sS'9101077717056'
p858
S'9103788348610'
p859
sS'9102649516012'
p860
S'9102649516012'
p861
sS'9102837971926'
p862
S'9102837971926'
p863
sS'9100905338097'
p864
S'9100905338097'
p865
sS'9104176202110'
p866
S'9101753083423'
p867
sS'9102336812824'
p868
NsS'9100083217265'
p869
S'9103783238560'
p870
sS'9100568596899'
p871
S'9100568596899'
p872
sS'9101701710418'
p873
S'9101701710418'
p874
sS'9100486155259'
p875
S'9100062072001'
p876
sS'9103199526360'
p877
S'9103199526360'
p878
sS'9100024427443'
p879
S'9100024427443'
p880
sS'9100567289566'
p881
S'9100567289566'
p882
sS'9103201098665'
p883
S'9103201098665'
p884
sS'9101259743854'
p885
S'9100308780939'
p886
sS'9103710153336'
p887
S'9103710153336'
p888
sS'9102681714933'
p889
S'9102681714933'
p890
sS'9100476850224'
p891
S'9103010538135'
p892
sS'9100521881844'
p893
S'9100521881844'
p894
sS'9100128031359'
p895
S'9100128031359'
p896
sS'9100923147565'
p897
S'9100923147565'
p898
sS'9102752230193'
p899
S'9102752230193'
p900
sS'9102486713785'
p901
S'9100738177088'
p902
sS'9100526472418'
p903
NsS'9103222134649'
p904
S'9103222134649'
p905
sS'9100370230984'
p906
S'9100370230984'
p907
sS'9101600831545'
p908
S'9101600831545'
p909
sS'9104186451770'
p910
S'9104186451770'
p911
sS'9103000904731'
p912
S'9103000904731'
p913
sS'9101451189341'
p914
S'9101451189341'
p915
sS'9101749133056'
p916
S'9101749133056'
p917
sS'9101801730708'
p918
S'9101801730708'
p919
sS'9102350937755'
p920
S'9102350937755'
p921
sS'9102490162265'
p922
S'9102490162265'
p923
sS'9100470361740'
p924
S'9100470361740'
p925
sS'9103879515059'
p926
S'9103879515059'
p927
sS'9100034311266'
p928
NsS'9100136219094'
p929
S'9100136219094'
p930
sS'9101629430635'
p931
NsS'9101490560684'
p932
S'9104123470809'
p933
sS'9103634682724'
p934
S'9103634682724'
p935
sS'9100173971279'
p936
S'9103010538135'
p937
sS'9100627799074'
p938
S'9100627799074'
p939
sS'9103511983901'
p940
S'9103511983901'
p941
sS'9101287319917'
p942
S'9101287319917'
p943
sS'9102469074978'
p944
NsS'9103511936098'
p945
S'9100883861891'
p946
sS'9101633425062'
p947
S'9100580461221'
p948
sS'9101822241168'
p949
S'9103504704786'
p950
sS'9102639713081'
p951
S'9101570616224'
p952
sS'9100033149747'
p953
NsS'9101982831473'
p954
S'9100580461221'
p955
sS'9104223924968'
p956
S'9101801391918'
p957
sS'9103389721350'
p958
S'9103389721350'
p959
sS'9101500337097'
p960
S'9101500337097'
p961
sS'9102507998405'
p962
S'9100580461221'
p963
sS'9104155101271'
p964
NsS'9101629473061'
p965
S'9100855161496'
p966
sS'9102625899387'
p967
S'9102625899387'
p968
sS'9102701920656'
p969
S'9102701920656'
p970
sS'9104055175888'
p971
S'9104055175888'
p972
sS'9100178288017'
p973
S'9100178288017'
p974
sS'9103593882288'
p975
NsS'9101801070771'
p976
S'9101801070771'
p977
sS'9102938537865'
p978
S'9102938537865'
p979
sS'9104200391816'
p980
NsS'9103139174954'
p981
S'9103139174954'
p982
sS'9101921891898'
p983
S'9103813519547'
p984
sS'9100304642235'
p985
NsS'9100343678791'
p986
S'9101532021056'
p987
sS'9102933333100'
p988
S'9102933333100'
p989
sS'9103558439077'
p990
S'9103558439077'
p991
sS'9103056439318'
p992
S'9103056439318'
p993
sS'9103225676842'
p994
S'9103225676842'
p995
sS'9102019792912'
p996
S'9102019792912'
p997
sS'9101991856722'
p998
S'9101991856722'
p999
sS'9100109122084'
p1000
S'9102058668570'
p1001
sS'9103051449789'
p1002
S'9103755201159'
p1003
sS'9103287069183'
p1004
S'9103813519547'
p1005
sS'9103663552772'
p1006
S'9103663552772'
p1007
sS'9101191103326'
p1008
S'9101191103326'
p1009
sS'9100554327716'
p1010
S'9100554327716'
p1011
sS'9102923883845'
p1012
S'9104045603442'
p1013
sS'9100149970848'
p1014
S'9100580461221'
p1015
sS'9102465567536'
p1016
S'9100580461221'
p1017
sS'9102167266351'
p1018
S'9101056233399'
p1019
sS'9103125897535'
p1020
S'9103125897535'
p1021
sS'9103935526784'
p1022
NsS'9100802419730'
p1023
S'9100802419730'
p1024
sS'9104186665116'
p1025
S'9104186665116'
p1026
sS'9100106761706'
p1027
S'9102451323954'
p1028
sS'9100980746363'
p1029
S'9100580461221'
p1030
sS'9101799317780'
p1031
S'9101799317780'
p1032
sS'9103489705661'
p1033
NsS'9102962107925'
p1034
S'9103410256443'
p1035
sS'9102491068487'
p1036
S'9100786656755'
p1037
sS'9103140967758'
p1038
S'9103140967758'
p1039
sS'9103871301904'
p1040
S'9103871301904'
p1041
sS'9103209853685'
p1042
S'9100653810246'
p1043
sS'9100387007500'
p1044
NsS'9100232557742'
p1045
S'9100232557742'
p1046
sS'9100780028174'
p1047
S'9100780028174'
p1048
sS'9100036201913'
p1049
S'9100036201913'
p1050
sS'9101939110491'
p1051
S'9101939110491'
p1052
sS'9103212873138'
p1053
NsS'9102519087447'
p1054
S'9102519087447'
p1055
sS'9102314279243'
p1056
S'9102314279243'
p1057
sS'9102898670178'
p1058
S'9102898670178'
p1059
sS'9102928182631'
p1060
S'9102928182631'
p1061
sS'9103464382141'
p1062
S'9103464382141'
p1063
sS'9100459290780'
p1064
S'9101916809293'
p1065
sS'9100938101098'
p1066
S'9100938101098'
p1067
sS'9100899107521'
p1068
NsS'9102869291862'
p1069
NsS'9100247738206'
p1070
NsS'9101029459639'
p1071
S'9100738177088'
p1072
sS'9104078302897'
p1073
NsS'9100447009620'
p1074
S'9100246625970'
p1075
sS'9101651050258'
p1076
NsS'9101397936138'
p1077
S'9101469528031'
p1078
sS'9102860149941'
p1079
S'9102860149941'
p1080
sS'9103734208057'
p1081
S'9103300026933'
p1082
sS'9101819167381'
p1083
S'9101819167381'
p1084
sS'9100413577029'
p1085
S'9101382970766'
p1086
sS'9100363793462'
p1087
S'9100363793462'
p1088
sS'9100782339173'
p1089
S'9100782339173'
p1090
sS'9103522936795'
p1091
S'9103522936795'
p1092
sS'9101961161466'
p1093
S'9101961161466'
p1094
sS'9103188015816'
p1095
S'9103188015816'
p1096
sS'9101301304591'
p1097
S'9101301304591'
p1098
sS'9103649848379'
p1099
S'9103649848379'
p1100
sS'9100190181031'
p1101
S'9100190181031'
p1102
sS'9103210530266'
p1103
S'9103210530266'
p1104
sS'9100438188451'
p1105
S'9100438188451'
p1106
sS'9103494191788'
p1107
S'9103494191788'
p1108
sS'9103180074357'
p1109
S'9103180074357'
p1110
sS'9101810303024'
p1111
S'9101810303024'
p1112
sS'9101257165882'
p1113
NsS'9100674997219'
p1114
S'9103227427015'
p1115
sS'9102530155716'
p1116
S'9103038433945'
p1117
sS'9101003298982'
p1118
S'9100232557742'
p1119
sS'9103010538135'
p1120
S'9103010538135'
p1121
sS'9101723608703'
p1122
S'9101723608703'
p1123
sS'9103544765088'
p1124
NsS'9102940031971'
p1125
S'9102035088875'
p1126
sS'9101315401834'
p1127
NsS'9102554025322'
p1128
S'9102554025322'
p1129
sS'9103958042124'
p1130
S'9102702858706'
p1131
sS'9101803626161'
p1132
S'9101803626161'
p1133
sS'9103496712149'
p1134
S'9103496712149'
p1135
sS'9100600421419'
p1136
S'9103714728119'
p1137
sS'9101455184076'
p1138
NsS'9100130598338'
p1139
NsS'9101813247118'
p1140
S'9101813247118'
p1141
sS'9102606839127'
p1142
S'9102606839127'
p1143
sS'9101969979184'
p1144
S'9101301304591'
p1145
sS'9101981616022'
p1146
S'9101981616022'
p1147
sS'9104161870391'
p1148
S'9104186631512'
p1149
sS'9104268580367'
p1150
S'9104268580367'
p1151
sS'9102087300624'
p1152
S'9102087300624'
p1153
sS'9102854975672'
p1154
S'9101348156621'
p1155
sS'9103665266805'
p1156
S'9102310114273'
p1157
sS'9102890688635'
p1158
S'9102890688635'
p1159
sS'9102661194041'
p1160
S'9102661194041'
p1161
sS'9102515644500'
p1162
S'9100449186757'
p1163
sS'9102221908585'
p1164
S'9102221908585'
p1165
sS'9101080799309'
p1166
S'9101080799309'
p1167
sS'9102563741390'
p1168
S'9102563741390'
p1169
sS'9103866672530'
p1170
S'9103866672530'
p1171
sS'9101748724904'
p1172
S'9101748724904'
p1173
sS'9100448481741'
p1174
S'9100448481741'
p1175
sS'9101261800507'
p1176
S'9101261800507'
p1177
sS'9100389792688'
p1178
NsS'9101739263026'
p1179
S'9101739263026'
p1180
sS'9103313758860'
p1181
S'9102895928606'
p1182
sS'9100308989261'
p1183
NsS'9101916809293'
p1184
S'9101916809293'
p1185
sS'9103695631793'
p1186
NsS'9103027840946'
p1187
S'9103027840946'
p1188
sS'9100364264767'
p1189
S'9100062072001'
p1190
sS'9102718779006'
p1191
S'9102718779006'
p1192
sS'9104286256265'
p1193
S'9104286256265'
p1194
sS'9104068014468'
p1195
NsS'9101351008723'
p1196
S'9101439002347'
p1197
sS'9103343002635'
p1198
S'9101416017153'
p1199
sS'9100475001156'
p1200
S'9100475001156'
p1201
sS'9101560281134'
p1202
S'9101560281134'
p1203
sS'9103163979143'
p1204
S'9103163979143'
p1205
sS'9100413873024'
p1206
S'9103877451459'
p1207
sS'9103267795842'
p1208
S'9103267795842'
p1209
sS'9103386506407'
p1210
S'9103386506407'
p1211
sS'9103425706824'
p1212
S'9103425706824'
p1213
sS'9101794812502'
p1214
S'9101794812502'
p1215
sS'9101084557986'
p1216
S'9101084557986'
p1217
sS'9102165664515'
p1218
S'9104191784963'
p1219
sS'9102830125027'
p1220
S'9104191784963'
p1221
sS'9103834262157'
p1222
NsS'9100603812479'
p1223
S'9100603812479'
p1224
sS'9100811596555'
p1225
S'9102146823888'
p1226
sS'9102970427592'
p1227
S'9102970427592'
p1228
sS'9104211168373'
p1229
S'9104211168373'
p1230
sS'9103390671923'
p1231
S'9103390671923'
p1232
sS'9102599726431'
p1233
S'9102146823888'
p1234
sS'9102004279297'
p1235
S'9102451323954'
p1236
sS'9103007754021'
p1237
S'9103007754021'
p1238
sS'9102204467372'
p1239
S'9103877451459'
p1240
sS'9104088871980'
p1241
S'9104088871980'
p1242
sS'9102222325771'
p1243
S'9102222325771'
p1244
sS'9100661681004'
p1245
S'9100661681004'
p1246
sS'9102905939256'
p1247
S'9104031279024'
p1248
sS'9102715348173'
p1249
S'9103140967758'
p1250
sS'9103826185282'
p1251
NsS'9103893926194'
p1252
S'9103893926194'
p1253
sS'9101756818984'
p1254
S'9101756818984'
p1255
sS'9101106216337'
p1256
NsS'9100832143338'
p1257
S'9100738177088'
p1258
sS'9102035088875'
p1259
S'9102035088875'
p1260
sS'9101401125969'
p1261
S'9100580461221'
p1262
sS'9102197429681'
p1263
S'9102699745343'
p1264
sS'9103825300728'
p1265
S'9103825300728'
p1266
sS'9102013207890'
p1267
S'9102585350971'
p1268
sS'9102665082436'
p1269
S'9102665082436'
p1270
sS'9103118999345'
p1271
S'9103118999345'
p1272
sS'9102855633395'
p1273
S'9102855633395'
p1274
sS'9100072977172'
p1275
S'9100072977172'
p1276
sS'9100372438857'
p1277
S'9100372438857'
p1278
sS'9104237929444'
p1279
S'9103463375117'
p1280
sS'9103714728119'
p1281
S'9103714728119'
p1282
sS'9100228796928'
p1283
S'9100228796928'
p1284
sS'9103689541364'
p1285
NsS'9103827442085'
p1286
S'9103827442085'
p1287
sS'9101067160189'
p1288
S'9100448481741'
p1289
sS'9101999948022'
p1290
S'9101999948022'
p1291
sS'9102235071571'
p1292
S'9102235071571'
p1293
sS'9104285726654'
p1294
NsS'9101246964950'
p1295
S'9101246964950'
p1296
sS'9104113788760'
p1297
S'9104113788760'
p1298
sS'9103779270123'
p1299
S'9103779270123'
p1300
sS'9102053680313'
p1301
S'9100738177088'
p1302
sS'9102717081094'
p1303
S'9102717081094'
p1304
sS'9100070076189'
p1305
S'9100070076189'
p1306
sS'9100009927642'
p1307
S'9100009927642'
p1308
sS'9102136587062'
p1309
S'9102136587062'
p1310
sS'9104077716132'
p1311
S'9101801391918'
p1312
sS'9103566176003'
p1313
S'9103566176003'
p1314
sS'9102737213725'
p1315
S'9102737213725'
p1316
sS'9102819022221'
p1317
S'9102819022221'
p1318
sS'9104191784963'
p1319
S'9104191784963'
p1320
sS'9103460179080'
p1321
S'9103460179080'
p1322
sS'9103910722717'
p1323
NsS'9103567608980'
p1324
S'9103567608980'
p1325
sS'9103086110378'
p1326
S'9103086110378'
p1327
sS'9100292376740'
p1328
S'9100292376740'
p1329
sS'9103110167663'
p1330
S'9103110167663'
p1331
sS'9101233694233'
p1332
S'9101233694233'
p1333
sS'9103038433945'
p1334
S'9103038433945'
p1335
sS'9101464802992'
p1336
S'9102779440014'
p1337
sS'9101729711385'
p1338
S'9101729711385'
p1339
sS'9100431729851'
p1340
S'9103479955569'
p1341
sS'9100501226251'
p1342
S'9100501226251'
p1343
sS'9102402719401'
p1344
S'9103718769500'
p1345
sS'9102612649470'
p1346
S'9102612649470'
p1347
sS'9103229840404'
p1348
S'9103229840404'
p1349
sS'9100689172921'
p1350
S'9100689172921'
p1351
sS'9102969730415'
p1352
S'9102969730415'
p1353
sS'9101316866312'
p1354
NsS'9103491712507'
p1355
S'9100883861891'
p1356
sS'9101106337942'
p1357
S'9101106337942'
p1358
sS'9103291756221'
p1359
S'9103291756221'
p1360
sS'9101967400963'
p1361
S'9101967400963'
p1362
sS'9100134217323'
p1363
S'9103628503380'
p1364
sS'9100468332395'
p1365
S'9100468332395'
p1366
sS'9102742711342'
p1367
S'9102742711342'
p1368
sS'9101528058214'
p1369
S'9101528058214'
p1370
sS'9100527917987'
p1371
S'9100527917987'
p1372
sS'9100598679882'
p1373
S'9100598679882'
p1374
sS'9101685333433'
p1375
S'9100738177088'
p1376
sS'9100993326790'
p1377
S'9100993326790'
p1378
sS'9100828852310'
p1379
S'9100828852310'
p1380
sS'9102192602083'
p1381
S'9102192602083'
p1382
sS'9101122114431'
p1383
S'9101122114431'
p1384
sS'9101860341501'
p1385
S'9101860341501'
p1386
sS'9103173395794'
p1387
S'9103173395794'
p1388
sS'9102895928606'
p1389
S'9102895928606'
p1390
sS'9104241383901'
p1391
S'9103366699253'
p1392
sS'9101313974218'
p1393
S'9101313974218'
p1394
sS'9100190747708'
p1395
S'9103783238560'
p1396
sS'9101568358207'
p1397
S'9101568358207'
p1398
sS'9100481746323'
p1399
S'9104167589589'
p1400
sS'9102876470784'
p1401
S'9102876470784'
p1402
sS'9101745778805'
p1403
S'9101745778805'
p1404
sS'9104172081350'
p1405
S'9102900644690'
p1406
sS'9100214966413'
p1407
S'9100244007018'
p1408
sS'9102431546559'
p1409
S'9102431546559'
p1410
sS'9104283114642'
p1411
S'9104283114642'
p1412
sS'9101406714711'
p1413
S'9101406714711'
p1414
sS'9103584076724'
p1415
S'9102223102555'
p1416
sS'9100166238996'
p1417
S'9100166238996'
p1418
sS'9101796798186'
p1419
S'9101796798186'
p1420
sS'9103480524572'
p1421
S'9103480524572'
p1422
sS'9102058668570'
p1423
NsS'9101497464247'
p1424
S'9101801391918'
p1425
sS'9100282760727'
p1426
NsS'9100593027301'
p1427
NsS'9101379964196'
p1428
S'9101379964196'
p1429
sS'9102430519871'
p1430
NsS'9100195904871'
p1431
NsS'9103755033006'
p1432
S'9103755033006'
p1433
sS'9102415573617'
p1434
S'9103317579856'
p1435
sS'9100047724439'
p1436
NsS'9101229588596'
p1437
S'9101229588596'
p1438
sS'9101615387180'
p1439
S'9103757782036'
p1440
sS'9100401301679'
p1441
S'9102965886821'
p1442
sS'9100067935387'
p1443
S'9100067935387'
p1444
sS'9101217134813'
p1445
S'9101217134813'
p1446
sS'9103581150229'
p1447
S'9103581150229'
p1448
sS'9101242766652'
p1449
S'9100801207346'
p1450
sS'9102598133014'
p1451
S'9101439002347'
p1452
sS'9103197609702'
p1453
S'9100580461221'
p1454
sS'9103832676393'
p1455
S'9103807268506'
p1456
sS'9100184392259'
p1457
S'9100184392259'
p1458
sS'9100376864425'
p1459
S'9100376864425'
p1460
sS'9100715413738'
p1461
S'9100715413738'
p1462
sS'9100581115055'
p1463
S'9101801391918'
p1464
sS'9102011175247'
p1465
S'9102011175247'
p1466
sS'9102396133258'
p1467
S'9102396133258'
p1468
sS'9102877606858'
p1469
S'9101056233399'
p1470
sS'9101568422964'
p1471
S'9101568422964'
p1472
sS'9102012011596'
p1473
S'9101062317959'
p1474
sS'9101838828727'
p1475
S'9101645249817'
p1476
sS'9102310114273'
p1477
S'9102310114273'
p1478
sS'9100185917663'
p1479
S'9103718769500'
p1480
sS'9102791590859'
p1481
S'9102791590859'
p1482
sS'9100784373377'
p1483
S'9101794812502'
p1484
sS'9101840639643'
p1485
NsS'9100557772655'
p1486
S'9100557772655'
p1487
sS'9103721707913'
p1488
S'9102146823888'
p1489
sS'9100791835099'
p1490
S'9100791835099'
p1491
sS'9103249139509'
p1492
S'9103249139509'
p1493
sS'9103113832950'
p1494
S'9103113832950'
p1495
sS'9103670195812'
p1496
NsS'9103771548835'
p1497
NsS'9100578931303'
p1498
S'9100578931303'
p1499
sS'9102000979250'
p1500
S'9100896813589'
p1501
sS'9103667777387'
p1502
S'9103667777387'
p1503
sS'9101335563899'
p1504
NsS'9103401766729'
p1505
S'9103401766729'
p1506
sS'9100913424095'
p1507
S'9101701710418'
p1508
sS'9103671208568'
p1509
S'9101301304591'
p1510
sS'9103244737812'
p1511
S'9103244737812'
p1512
sS'9103242793704'
p1513
S'9103242793704'
p1514
sS'9102531419564'
p1515
S'9102348292599'
p1516
sS'9101219591586'
p1517
S'9101961161466'
p1518
sS'9102480252303'
p1519
S'9103047090021'
p1520
sS'9102593631560'
p1521
S'9100738177088'
p1522
sS'9103608540952'
p1523
NsS'9104016329587'
p1524
NsS'9101736373548'
p1525
S'9101736373548'
p1526
sS'9102801440202'
p1527
S'9102223102555'
p1528
sS'9103735441670'
p1529
S'9103735441670'
p1530
sS'9103632962290'
p1531
NsS'9101315413126'
p1532
S'9101315413126'
p1533
sS'9102200194633'
p1534
S'9102200194633'
p1535
sS'9100942072326'
p1536
NsS'9103359530741'
p1537
S'9102938537865'
p1538
sS'9101886105588'
p1539
NsS'9100127731296'
p1540
S'9101801391918'
p1541
sS'9100136994817'
p1542
S'9100136994817'
p1543
sS'9100781145298'
p1544
S'9100781145298'
p1545
sS'9103714755804'
p1546
S'9103714755804'
p1547
sS'9100172365982'
p1548
NsS'9100761240144'
p1549
S'9100580461221'
p1550
sS'9101280836143'
p1551
S'9101416017153'
p1552
sS'9102585698523'
p1553
S'9103813519547'
p1554
sS'9102306671139'
p1555
S'9102306671139'
p1556
sS'9101753083423'
p1557
S'9101753083423'
p1558
sS'9101954910566'
p1559
S'9101954910566'
p1560
sS'9101518632564'
p1561
S'9104123470809'
p1562
sS'9101305783454'
p1563
S'9101305783454'
p1564
sS'9104285088926'
p1565
S'9103144189647'
p1566
sS'9102579480893'
p1567
NsS'9101735701989'
p1568
S'9101735701989'
p1569
sS'9102380688886'
p1570
S'9100883861891'
p1571
sS'9104117059534'
p1572
S'9104117059534'
p1573
sS'9102098259870'
p1574
S'9102098259870'
p1575
sS'9100657164541'
p1576
S'9100657164541'
p1577
sS'9101641898585'
p1578
S'9101796798186'
p1579
sS'9102648140093'
p1580
S'9102648140093'
p1581
sS'9102899343090'
p1582
S'9102899343090'
p1583
sS'9101002290865'
p1584
S'9101753083423'
p1585
sS'9100998468724'
p1586
S'9100998468724'
p1587
sS'9104288190027'
p1588
S'9104161455778'
p1589
sS'9100597249670'
p1590
S'9103144189647'
p1591
sS'9102469552257'
p1592
NsS'9102820999133'
p1593
S'9102820999133'
p1594
sS'9103290308805'
p1595
S'9103290308805'
p1596
sS'9101093317733'
p1597
S'9101093317733'
p1598
sS'9103841692153'
p1599
S'9103841692153'
p1600
sS'9101556908864'
p1601
S'9101556908864'
p1602
sS'9103741588466'
p1603
S'9103771548835'
p1604
sS'9100500659204'
p1605
S'9100500659204'
p1606
sS'9102897278536'
p1607
S'9102897278536'
p1608
sS'9101013388763'
p1609
NsS'9103877192425'
p1610
S'9103877192425'
p1611
sS'9103644838932'
p1612
S'9101645249817'
p1613
sS'9104076383343'
p1614
S'9104076383343'
p1615
sS'9102964872790'
p1616
S'9102964872790'
p1617
sS'9102264049994'
p1618
S'9102264049994'
p1619
sS'9103638187140'
p1620
S'9101801391918'
p1621
sS'9103930519201'
p1622
S'9103930519201'
p1623
sS'9100142487053'
p1624
S'9102876470784'
p1625
sS'9100017448927'
p1626
S'9102763503868'
p1627
sS'9101278726592'
p1628
S'9101278726592'
p1629
sS'9101648111109'
p1630
S'9103504704786'
p1631
sS'9101103565394'
p1632
NsS'9100894776074'
p1633
S'9102910557773'
p1634
sS'9102918682351'
p1635
NsS'9102099294973'
p1636
S'9102099294973'
p1637
sS'9102910557773'
p1638
NsS'9100733848299'
p1639
S'9100580461221'
p1640
sS'9104031279024'
p1641
S'9104031279024'
p1642
sS'9101313867553'
p1643
S'9101313867553'
p1644
sS'9103752237201'
p1645
S'9103752237201'
p1646
sS'9102709213911'
p1647
S'9100824534217'
p1648
sS'9103466627418'
p1649
S'9103466627418'
p1650
sS'9101186136967'
p1651
S'9100580461221'
p1652
sS'9101001277936'
p1653
S'9101001277936'
p1654
sS'9103757782036'
p1655
S'9103757782036'
p1656
sS'9100767547286'
p1657
S'9100767547286'
p1658
sS'9104230382962'
p1659
S'9100580461221'
p1660
sS'9102527076660'
p1661
S'9100738177088'
p1662
sS'9103816069401'
p1663
S'9103816069401'
p1664
sS'9100876255680'
p1665
S'9100876255680'
p1666
sS'9101596952128'
p1667
S'9101596952128'
p1668
sS'9101641822112'
p1669
S'9100738177088'
p1670
sS'9103501965201'
p1671
S'9101846523439'
p1672
sS'9101438739956'
p1673
S'9103249139509'
p1674
sS'9103707790367'
p1675
NsS'9100893368607'
p1676
NsS'9103662714670'
p1677
S'9101382970766'
p1678
sS'9103639103499'
p1679
S'9103639103499'
p1680
sS'9104077110244'
p1681
S'9100738177088'
p1682
sS'9102722942982'
p1683
S'9102722942982'
p1684
sS'9103853117411'
p1685
S'9103853117411'
p1686
sS'9102752110516'
p1687
S'9102752110516'
p1688
sS'9103271533187'
p1689
S'9103271533187'
p1690
sS'9100143984495'
p1691
S'9100143984495'
p1692
sS'9101973264042'
p1693
S'9101973264042'
p1694
sS'9101988522794'
p1695
S'9100919467186'
p1696
sS'9100305377355'
p1697
S'9100305377355'
p1698
sS'9101675511649'
p1699
S'9101675511649'
p1700
sS'9103744132228'
p1701
S'9103744132228'
p1702
sS'9102756602151'
p1703
S'9101316866312'
p1704
sS'9101188993168'
p1705
S'9101188993168'
p1706
sS'9103153115624'
p1707
S'9103153115624'
p1708
sS'9101043520947'
p1709
NsS'9102500317119'
p1710
S'9103144189647'
p1711
sS'9101279202695'
p1712
NsS'9100270560642'
p1713
S'9100270560642'
p1714
sS'9102464554583'
p1715
S'9100580461221'
p1716
sS'9103810383057'
p1717
S'9103810383057'
p1718
sS'9100187807982'
p1719
S'9100187807982'
p1720
sS'9104097296230'
p1721
S'9104097296230'
p1722
sS'9103176792810'
p1723
S'9103176792810'
p1724
sS'9103938750813'
p1725
S'9103938750813'
p1726
sS'9101690711751'
p1727
S'9100738177088'
p1728
sS'9101801391918'
p1729
S'9101801391918'
p1730
sS'9100819389066'
p1731
S'9100819389066'
p1732
sS'9104139106865'
p1733
S'9104139106865'
p1734
sS'9100398759724'
p1735
S'9100398759724'
p1736
sS'9104172210079'
p1737
S'9104172210079'
p1738
sS'9104184336741'
p1739
S'9102974540281'
p1740
sS'9103977038204'
p1741
S'9103977038204'
p1742
sS'9103005578808'
p1743
S'9103005578808'
p1744
sS'9103765606389'
p1745
S'9103765606389'
p1746
sS'9101915057284'
p1747
S'9101915057284'
p1748
sS'9101108552948'
p1749
S'9101108552948'
p1750
sS'9103734674503'
p1751
S'9102478937767'
p1752
sS'9101413984093'
p1753
S'9100738177088'
p1754
sS'9101924478456'
p1755
S'9101924478456'
p1756
sS'9102177042963'
p1757
S'9102177042963'
p1758
sS'9103679986728'
p1759
S'9103679986728'
p1760
sS'9102250341801'
p1761
S'9102250341801'
p1762
sS'9103795481316'
p1763
S'9103795481316'
p1764
sS'9100461346494'
p1765
S'9100461346494'
p1766
sS'9102938771150'
p1767
S'9102938771150'
p1768
sS'9101540588353'
p1769
S'9101540588353'
p1770
sS'9102867105885'
p1771
S'9102525398078'
p1772
sS'9104189203551'
p1773
S'9100738177088'
p1774
sS'9101346440480'
p1775
S'9101346440480'
p1776
sS'9101285178919'
p1777
NsS'9103148525632'
p1778
S'9103225676842'
p1779
sS'9100320541626'
p1780
S'9101753083423'
p1781
sS'9102398665926'
p1782
S'9100102215679'
p1783
sS'9103005496037'
p1784
S'9103005496037'
p1785
sS'9103342319799'
p1786
S'9101753083423'
p1787
sS'9101330145669'
p1788
S'9102931011222'
p1789
sS'9100077929570'
p1790
S'9100077929570'
p1791
sS'9102825299104'
p1792
NsS'9103144189647'
p1793
S'9103144189647'
p1794
sS'9102075737067'
p1795
S'9102075737067'
p1796
sS'9101221618048'
p1797
S'9102146823888'
p1798
sS'9103212161163'
p1799
S'9103212161163'
p1800
sS'9103725010200'
p1801
S'9103725010200'
p1802
sS'9103121076327'
p1803
S'9102931011222'
p1804
sS'9102348814949'
p1805
S'9103176084186'
p1806
sS'9104119481446'
p1807
S'9104119481446'
p1808
sS'9102411313745'
p1809
S'9100062072001'
p1810
sS'9100055626743'
p1811
S'9101348156621'
p1812
sS'9101532021056'
p1813
S'9101532021056'
p1814
sS'9101720154699'
p1815
S'9100142459342'
p1816
sS'9103979458345'
p1817
S'9103979458345'
p1818
sS'9101962299478'
p1819
S'9101962299478'
p1820
sS'9100344957337'
p1821
S'9100344957337'
p1822
sS'9102792898780'
p1823
S'9102792898780'
p1824
sS'9102478937767'
p1825
S'9102478937767'
p1826
sS'9100911762188'
p1827
S'9100738177088'
p1828
sS'9102125460946'
p1829
S'9102125460946'
p1830
sS'9102401876466'
p1831
S'9102401876466'
p1832
sS'9100490024051'
p1833
NsS'9102268921591'
p1834
S'9102268921591'
p1835
sS'9100854804409'
p1836
NsS'9101899559517'
p1837
NsS'9101246257401'
p1838
S'9100738177088'
p1839
sS'9101797041817'
p1840
S'9101797041817'
p1841
sS'9104153233735'
p1842
S'9104153233735'
p1843
sS'9100238696808'
p1844
S'9104243035448'
p1845
sS'9101526210541'
p1846
S'9103917598747'
p1847
sS'9104161455778'
p1848
S'9104161455778'
p1849
sS'9103467632399'
p1850
S'9102900644690'
p1851
sS'9102174709644'
p1852
S'9102174709644'
p1853
sS'9100738177088'
p1854
S'9100738177088'
p1855
sS'9103271369556'
p1856
S'9103271369556'
p1857
sS'9100426314364'
p1858
S'9100426314364'
p1859
sS'9101609289695'
p1860
S'9101609289695'
p1861
sS'9101064672992'
p1862
S'9101064672992'
p1863
sS'9103939340430'
p1864
S'9101645249817'
p1865
sS'9100142382124'
p1866
S'9100142382124'
p1867
sS'9103619867822'
p1868
NsS'9104233812563'
p1869
S'9103813519547'
p1870
sS'9100081631359'
p1871
S'9100081631359'
p1872
sS'9103622929998'
p1873
S'9103622929998'
p1874
sS'9101205814211'
p1875
S'9100896813589'
p1876
sS'9103035861394'
p1877
S'9103176084186'
p1878
sS'9100851546194'
p1879
S'9100851546194'
p1880
sS'9102241495640'
p1881
S'9102241495640'
p1882
sS'9101817342215'
p1883
S'9102931011222'
p1884
sS'9102889516256'
p1885
NsS'9104123470809'
p1886
S'9104123470809'
p1887
sS'9101022584153'
p1888
S'9101022584153'
p1889
sS'9100794774634'
p1890
S'9100794774634'
p1891
sS'9102143998792'
p1892
S'9102143998792'
p1893
sS'9101487911221'
p1894
S'9101487911221'
p1895
sS'9102171066198'
p1896
S'9103575675436'
p1897
sS'9102012625372'
p1898
S'9102012625372'
p1899
sS'9103649257670'
p1900
S'9100580461221'
p1901
sS'9104005708285'
p1902
S'9104005708285'
p1903
sS'9104261589500'
p1904
S'9104261589500'
p1905
sS'9103952229670'
p1906
S'9102137506577'
p1907
sS'9103395880384'
p1908
S'9103395880384'
p1909
sS'9103638675945'
p1910
S'9103813519547'
p1911
sS'9104057940293'
p1912
S'9104057940293'
p1913
sS'9101760651009'
p1914
S'9101760651009'
p1915
sS'9100538695233'
p1916
S'9101801391918'
p1917
sS'9102392127962'
p1918
S'9102392127962'
p1919
sS'9101539743914'
p1920
S'9101539743914'
p1921
sS'9104191860392'
p1922
S'9104191860392'
p1923
sS'9102932191239'
p1924
S'9102932191239'
p1925
sS'9103530566453'
p1926
S'9103530566453'
p1927
sS'9101164419883'
p1928
NsS'9103193833824'
p1929
NsS'9103852366558'
p1930
S'9103852366558'
p1931
sS'9103891844271'
p1932
S'9103891844271'
p1933
sS'9103375354041'
p1934
S'9100580461221'
p1935
sS'9103197382960'
p1936
NsS'9100114038281'
p1937
S'9100114038281'
p1938
sS'9103446363401'
p1939
S'9101740393979'
p1940
sS'9102312659297'
p1941
S'9102312659297'
p1942
sS'9102179506517'
p1943
S'9102179506517'
p1944
sS'9101198303045'
p1945
S'9100738177088'
p1946
sS'9102813232768'
p1947
NsS'9103407784871'
p1948
NsS'9100502442880'
p1949
S'9100502442880'
p1950
sS'9100396924294'
p1951
S'9102146823888'
p1952
sS'9100498323074'
p1953
NsS'9100012772378'
p1954
S'9100012772378'
p1955
sS'9104186338811'
p1956
S'9104186338811'
p1957
sS'9100292683032'
p1958
S'9103564138057'
p1959
sS'9100709678243'
p1960
S'9100709678243'
p1961
sS'9100982150716'
p1962
S'9101158676418'
p1963
sS'9101010481040'
p1964
S'9101010481040'
p1965
sS'9103683038178'
p1966
S'9103683038178'
p1967
sS'9100872876880'
p1968
S'9100872876880'
p1969
sS'9102027223556'
p1970
S'9101760651009'
p1971
sS'9103299635309'
p1972
S'9103299635309'
p1973
sS'9101045194569'
p1974
S'9101045194569'
p1975
sS'9102030264906'
p1976
S'9102030264906'
p1977
sS'9102763503868'
p1978
S'9102763503868'
p1979
sS'9103216763615'
p1980
S'9103216763615'
p1981
sS'9101487327831'
p1982
S'9103140967758'
p1983
sS'9101156471277'
p1984
NsS'9101638972981'
p1985
S'9101638972981'
p1986
sS'9103254131850'
p1987
S'9103254131850'
p1988
sS'9101439002347'
p1989
NsS'9101441928802'
p1990
S'9101441928802'
p1991
sS'9102031282251'
p1992
S'9102031282251'
p1993
sS'9103653020501'
p1994
S'9103653020501'
p1995
sS'9103384430915'
p1996
S'9103384430915'
p1997
sS'9100911566049'
p1998
S'9100911566049'
p1999
sS'9100354615611'
p2000
S'9100354615611'
p2001
sS'9102158474885'
p2002
S'9102158474885'
p2003
sS'9100346668971'
p2004
S'9100346668971'
p2005
sS'9101614639488'
p2006
S'9101614639488'
p2007
sS'9101271806131'
p2008
S'9102497406114'
p2009
sS'9103626268469'
p2010
S'9102931011222'
p2011
sS'9100002008750'
p2012
S'9102585350971'
p2013
sS'9102348292599'
p2014
S'9102348292599'
p2015
sS'9101548271894'
p2016
S'9101753083423'
p2017
sS'9101067469008'
p2018
NsS'9104021266994'
p2019
NsS'9103082652159'
p2020
S'9103714755804'
p2021
sS'9102566270482'
p2022
S'9102566270482'
p2023
sS'9104054437700'
p2024
S'9102035088875'
p2025
sS'9101225468130'
p2026
S'9101801391918'
p2027
sS'9104155352398'
p2028
S'9104155352398'
p2029
sS'9100117172770'
p2030
S'9100117172770'
p2031
sS'9100363040754'
p2032
S'9100363040754'
p2033
sS'9100252872493'
p2034
S'9100252872493'
p2035
sS'9102488627096'
p2036
S'9102488627096'
p2037
sS'9103658209558'
p2038
S'9103658209558'
p2039
sS'9103191230001'
p2040
S'9103191230001'
p2041
sS'9101144973127'
p2042
S'9101144973127'
p2043
sS'9102677858380'
p2044
S'9102677858380'
p2045
sS'9104175997356'
p2046
S'9104175997356'
p2047
sS'9103222303809'
p2048
S'9103222303809'
p2049
sS'9101463805663'
p2050
S'9100738177088'
p2051
sS'9100302229740'
p2052
S'9100302229740'
p2053
sS'9100374680205'
p2054
S'9100374680205'
p2055
sS'9101741622341'
p2056
S'9101741622341'
p2057
sS'9102418266331'
p2058
S'9102418266331'
p2059
sS'9103197693877'
p2060
S'9103197693877'
p2061
sS'9100078641488'
p2062
S'9100078641488'
p2063
sS'9101842627751'
p2064
S'9101842627751'
p2065
sS'9104186631512'
p2066
S'9104186631512'
p2067
sS'9100653810246'
p2068
S'9100653810246'
p2069
sS'9101352099203'
p2070
S'9101352099203'
p2071
sS'9101800752401'
p2072
S'9101800752401'
p2073
sS'9101798908567'
p2074
S'9101798908567'
p2075
sS'9101074570456'
p2076
S'9101074570456'
p2077
sS'9101368393577'
p2078
S'9101368393577'
p2079
sS'9103073779780'
p2080
S'9102332976967'
p2081
sS'9101879222069'
p2082
S'9101301304591'
p2083
sS'9100370852523'
p2084
S'9101080799309'
p2085
sS'9104153455857'
p2086
S'9103561706037'
p2087
sS'9100093683293'
p2088
S'9103005496037'
p2089
sS'9102321329510'
p2090
S'9102321329510'
p2091
sS'9102585350971'
p2092
S'9102585350971'
p2093
sS'9100372066767'
p2094
NsS'9102701319262'
p2095
NsS'9101597601539'
p2096
S'9101597601539'
p2097
sS'9103696172272'
p2098
S'9100738177088'
p2099
sS'9103480170100'
p2100
S'9103480170100'
p2101
sS'9102605402225'
p2102
S'9102605402225'
p2103
sS'9100772059678'
p2104
NsS'9100913090821'
p2105
S'9100913090821'
p2106
sS'9102777068856'
p2107
NsS'9103841565694'
p2108
S'9103841565694'
p2109
sS'9102687813628'
p2110
S'9102223102555'
p2111
sS'9103483345147'
p2112
S'9101801391918'
p2113
sS'9101735400738'
p2114
NsS'9103072057622'
p2115
S'9103072057622'
p2116
sS'9103322262877'
p2117
S'9103322262877'
p2118
sS'9103834636995'
p2119
S'9103834636995'
p2120
sS'9103995915077'
p2121
S'9103995915077'
p2122
sS'9100417558513'
p2123
S'9100417558513'
p2124
sS'9103397841328'
p2125
S'9103397841328'
p2126
sS'9104149205006'
p2127
S'9100738177088'
p2128
sS'9103148731374'
p2129
S'9103148731374'
p2130
sS'9100137981866'
p2131
S'9100137981866'
p2132
sS'9102800443973'
p2133
S'9101740393979'
p2134
sS'9103168676664'
p2135
S'9103168676664'
p2136
sS'9104206047250'
p2137
NsS'9103630965865'
p2138
S'9103630965865'
p2139
sS'9100786656755'
p2140
S'9100786656755'
p2141
sS'9101637906715'
p2142
S'9101637906715'
p2143
sS'9102931011222'
p2144
NsS'9100586164138'
p2145
S'9102928182631'
p2146
sS'9103467690055'
p2147
S'9103467690055'
p2148
sS'9104096773997'
p2149
S'9104096773997'
p2150
sS'9100297519781'
p2151
S'9100796717506'
p2152
sS'9102776490803'
p2153
S'9103564138057'
p2154
sS'9103646628829'
p2155
S'9103646628829'
p2156
sS'9102345130001'
p2157
S'9103366699253'
p2158
sS'9101070093546'
p2159
S'9103235479050'
p2160
sS'9100189434466'
p2161
S'9100189434466'
p2162
sS'9102754691087'
p2163
S'9103176084186'
p2164
sS'9101539486212'
p2165
S'9101539486212'
p2166
sS'9103866664415'
p2167
S'9100738177088'
p2168
sS'9100311064364'
p2169
S'9100311064364'
p2170
sS'9101968508222'
p2171
S'9101968508222'
p2172
sS'9102900644690'
p2173
S'9102900644690'
p2174
sS'9100142132476'
p2175
S'9100142132476'
p2176
sS'9101526236387'
p2177
S'9101526236387'
p2178
sS'9103036719249'
p2179
S'9100738177088'
p2180
sS'9100670472933'
p2181
S'9100670472933'
p2182
sS'9101046810017'
p2183
S'9100580461221'
p2184
sS'9103034356142'
p2185
NsS'9102826910151'
p2186
S'9103718769500'
p2187
sS'9103813519547'
p2188
S'9103813519547'
p2189
sS'9102602392113'
p2190
S'9102602392113'
p2191
sS'9101332041341'
p2192
S'9101332041341'
p2193
sS'9103981093215'
p2194
S'9103981093215'
p2195
sS'9100775235446'
p2196
S'9103558439077'
p2197
sS'9104243035448'
p2198
S'9104243035448'
p2199
sS'9102175351253'
p2200
NsS'9100563830984'
p2201
S'9100563830984'
p2202
sS'9104167589589'
p2203
S'9104167589589'
p2204
sS'9103851928228'
p2205
S'9103851928228'
p2206
sS'9102225285537'
p2207
S'9100190181031'
p2208
sS'9102137506577'
p2209
S'9102137506577'
p2210
sS'9103473529957'
p2211
S'9103473529957'
p2212
sS'9100816373569'
p2213
NsS'9100230082905'
p2214
S'9100230082905'
p2215
sS'9102581450938'
p2216
S'9102581450938'
p2217
sS'9100040871752'
p2218
S'9100040871752'
p2219
sS'9100874399848'
p2220
S'9100874399848'
p2221
sS'9100556554361'
p2222
NsS'9100241089922'
p2223
NsS'9100341018293'
p2224
S'9100341018293'
p2225
sS'9103902253870'
p2226
S'9101158676418'
p2227
sS'9101744480589'
p2228
S'9100117291999'
p2229
sS'9103397042226'
p2230
S'9100738177088'
p2231
sS'9102246964067'
p2232
S'9102497406114'
p2233
sS'9103288041263'
p2234
S'9103288041263'
p2235
sS'9103297150990'
p2236
S'9103297150990'
p2237
sS'9102745457712'
p2238
S'9102745457712'
p2239
sS'9100245541763'
p2240
S'9100245541763'
p2241
sS'9101171708547'
p2242
S'9101171708547'
p2243
sS'9101443829449'
p2244
S'9101443829449'
p2245
sS'9102792504739'
p2246
S'9102451323954'
p2247
sS'9102332976967'
p2248
S'9102332976967'
p2249
sS'9103997607101'
p2250
S'9103997607101'
p2251
sS'9103702341080'
p2252
NsS'9103602060523'
p2253
S'9104251212791'
p2254
sS'9103043930610'
p2255
S'9103841692153'
p2256
sS'9101433096199'
p2257
S'9100596987474'
p2258
sS'9100185843952'
p2259
S'9100185843952'
p2260
sS'9103427721154'
p2261
S'9103427721154'
p2262
sS'9103718769500'
p2263
S'9103718769500'
p2264
sS'9102546312007'
p2265
S'9102546312007'
p2266
sS'9102860107108'
p2267
S'9102860107108'
p2268
sS'9104120467787'
p2269
S'9104120467787'
p2270
sS'9103631816369'
p2271
S'9102146823888'
p2272
sS'9101715976472'
p2273
S'9101801391918'
p2274
sS'9100930224489'
p2275
S'9100930224489'
p2276
sS'9102207924144'
p2277
S'9102207924144'
p2278
sS'9103123775439'
p2279
S'9100738177088'
p2280
sS'9104030147018'
p2281
S'9104030147018'
p2282
sS'9102160750389'
p2283
S'9102160750389'
p2284
sS'9102538881466'
p2285
S'9102538881466'
p2286
sS'9104266360756'
p2287
S'9104266360756'
p2288
sS'9101009109221'
p2289
S'9101009109221'
p2290
sS'9100794137172'
p2291
S'9100896813589'
p2292
sS'9101553108015'
p2293
S'9103717974115'
p2294
sS'9102060958057'
p2295
S'9100580461221'
p2296
sS'9101589196099'
p2297
S'9101589196099'
p2298
sS'9103870341405'
p2299
S'9103870341405'
p2300
sS'9102793259104'
p2301
S'9102793259104'
p2302
sS'9103575675436'
p2303
S'9103575675436'
p2304
sS'9100225274363'
p2305
S'9100225274363'
p2306
sS'9100048402613'
p2307
S'9100048402613'
p2308
sS'9101144250112'
p2309
S'9101144250112'
p2310
sS'9103952713253'
p2311
S'9104055175888'
p2312
sS'9101740393979'
p2313
S'9101740393979'
p2314
sS'9102792440286'
p2315
S'9102792440286'
p2316
sS'9100958322428'
p2317
S'9100738177088'
p2318
sS'9101987556105'
p2319
S'9101987556105'
p2320
sS'9101712222380'
p2321
S'9101712222380'
p2322
sS'9100419178991'
p2323
S'9100419178991'
p2324
sS'9101209956443'
p2325
S'9101209956443'
p2326
sS'9103647534364'
p2327
S'9103647534364'
p2328
sS'9101396104689'
p2329
S'9101396104689'
p2330
sS'9102558229775'
p2331
S'9102558229775'
p2332
sS'9101051927317'
p2333
S'9101416017153'
p2334
sS'9103558220399'
p2335
S'9103558220399'
p2336
sS'9101984356201'
p2337
NsS'9101356598850'
p2338
S'9101356598850'
p2339
sS'9101902781363'
p2340
S'9101902781363'
p2341
sS'9104049788989'
p2342
S'9100738177088'
p2343
sS'9102421553845'
p2344
S'9102421553845'
p2345
sS'9100548182198'
p2346
S'9100548182198'
p2347
sS'9102868810114'
p2348
S'9103788348610'
p2349
sS'9100335925245'
p2350
S'9103504704786'
p2351
sS'9101604584406'
p2352
NsS'9100158890334'
p2353
S'9100158890334'
p2354
sS'9101220019700'
p2355
NsS'9101290492335'
p2356
S'9101290492335'
p2357
sS'9100896813589'
p2358
S'9100896813589'
p2359
sS'9101951900108'
p2360
S'9100738177088'
p2361
sS'9103861964025'
p2362
S'9103861964025'
p2363
sS'9101725441155'
p2364
S'9101725441155'
p2365
sS'9100772935259'
p2366
S'9100738177088'
p2367
sS'9102178593493'
p2368
S'9103714728119'
p2369
sS'9104144653923'
p2370
S'9104144653923'
p2371
sS'9100941692465'
p2372
S'9100941692465'
p2373
sS'9102275156107'
p2374
NsS'9103666929126'
p2375
S'9103666929126'
p2376
sS'9101664565440'
p2377
NsS'9102827921329'
p2378
S'9102827921329'
p2379
sS'9101054572709'
p2380
S'9101054572709'
p2381
sS'9104097575131'
p2382
S'9104097575131'
p2383
sS'9103552199926'
p2384
S'9103552199926'
p2385
sS'9101720934780'
p2386
S'9101720934780'
p2387
sS'9102161655890'
p2388
S'9102161655890'
p2389
sS'9104251212791'
p2390
NsS'9103172453646'
p2391
S'9103172453646'
p2392
sS'9101021756378'
p2393
S'9101021756378'
p2394
sS'9100678316355'
p2395
S'9100678316355'
p2396
sS'9101905945889'
p2397
S'9101905945889'
p2398
sS'9103002212661'
p2399
S'9103002212661'
p2400
sS'9103599066973'
p2401
S'9103599066973'
p2402
sS'9103533231053'
p2403
S'9103463375117'
p2404
sS'9100754517806'
p2405
S'9100754517806'
p2406
sS'9100594458042'
p2407
S'9100580461221'
p2408
sS'9103366699253'
p2409
S'9103366699253'
p2410
sS'9103563126287'
p2411
S'9103563126287'
p2412
sS'9101553279016'
p2413
NsS'9103262713922'
p2414
NsS'9100811149791'
p2415
S'9100811149791'
p2416
sS'9102803628142'
p2417
NsS'9100777194792'
p2418
S'9100777194792'
p2419
sS'9100555268722'
p2420
S'9100555268722'
p2421
sS'9102974540281'
p2422
S'9102974540281'
p2423
sS'9102451323954'
p2424
S'9102451323954'
p2425
sS'9101780810203'
p2426
S'9101780810203'
p2427
sS'9103398805833'
p2428
S'9103398805833'
p2429
sS'9102482055304'
p2430
S'9102035088875'
p2431
sS'9102007243846'
p2432
S'9102007243846'
p2433
sS'9101062317959'
p2434
NsS'9101106654667'
p2435
S'9103235479050'
p2436
sS'9100014978616'
p2437
S'9100014978616'
p2438
sS'9102623038996'
p2439
S'9104117059534'
p2440
sS'9104069002497'
p2441
S'9104069002497'
p2442
sS'9104049492347'
p2443
S'9104049492347'
p2444
sS'9100672652944'
p2445
S'9100672652944'
p2446
sS'9100029173262'
p2447
S'9100029173262'
p2448
sS'9100062072001'
p2449
S'9100062072001'
p2450
sS'9100117291999'
p2451
S'9100117291999'
p2452
sS'9103727793082'
p2453
S'9100896813589'
p2454
sS'9100942236627'
p2455
NsS'9102303587361'
p2456
S'9102303587361'
p2457
sS'9102524409934'
p2458
S'9103271369556'
p2459
sS'9101118610481'
p2460
NsS'9101071490398'
p2461
S'9100738177088'
p2462
sS'9102776028317'
p2463
S'9102776028317'
p2464
sS'9102148594981'
p2465
S'9102148594981'
p2466
sS'9101892509741'
p2467
S'9101801391918'
p2468
sS'9104102211498'
p2469
S'9104102211498'
p2470
sS'9100564361286'
p2471
S'9101801391918'
p2472
sS'9104211869378'
p2473
S'9104211869378'
p2474
sS'9103144391603'
p2475
S'9102910557773'
p2476
sS'9100240959876'
p2477
S'9100240959876'
p2478
sS'9102257226186'
p2479
S'9101753083423'
p2480
sS'9102273863516'
p2481
S'9102273863516'
p2482
sS'9103317579856'
p2483
S'9103317579856'
p2484
sS'9101846523439'
p2485
S'9101846523439'
p2486
sS'9101886986152'
p2487
S'9101886986152'
p2488
sS'9103231200701'
p2489
S'9101801391918'
p2490
sS'9100236425719'
p2491
NsS'9103273368622'
p2492
S'9103273368622'
p2493
sS'9100555899129'
p2494
NsS'9104226111959'
p2495
S'9104226111959'
p2496
sS'9103038220232'
p2497
S'9103038220232'
p2498
sS'9102956600966'
p2499
S'9102956600966'
p2500
sS'9100244007018'
p2501
S'9100244007018'
p2502
sS'9102203301235'
p2503
S'9102203301235'
p2504
sS'9100933116500'
p2505
NsS'9100246625970'
p2506
S'9100246625970'
p2507
sS'9102066755384'
p2508
S'9102066755384'
p2509
sS'9101428543288'
p2510
S'9103813519547'
p2511
sS'9104171746921'
p2512
S'9100580461221'
p2513
sS'9101334395332'
p2514
S'9101334395332'
p2515
sS'9104123559366'
p2516
S'9103005496037'
p2517
sS'9104218297669'
p2518
S'9104218297669'
p2519
sS'9100142459342'
p2520
S'9100142459342'
p2521
sS'9102353456076'
p2522
S'9102353456076'
p2523
sS'9100163727772'
p2524
NsS'9100570019927'
p2525
S'9100570019927'
p2526
sS'9102327403283'
p2527
S'9102327403283'
p2528
sS'9102028240459'
p2529
S'9100738177088'
p2530
sS'9102609841687'
p2531
NsS'9102779440014'
p2532
S'9102779440014'
p2533
sS'9102175795120'
p2534
S'9104243035448'
p2535
sS'9100156259207'
p2536
S'9100738177088'
p2537
sS'9102737572069'
p2538
NsS'9101615062738'
p2539
S'9103869935026'
p2540
sS'9104120461900'
p2541
S'9102931011222'
p2542
sS'9100406562703'
p2543
S'9100406562703'
p2544
sS'9101726523640'
p2545
S'9103813519547'
p2546
sS'9103188802427'
p2547
S'9103188802427'
p2548
sS'9100639380340'
p2549
S'9101301304591'
p2550
sS'9100267557430'
p2551
S'9100738177088'
p2552
sS'9102257233246'
p2553
S'9102257233246'
p2554
sS'9100312724701'
p2555
S'9100580461221'
p2556
sS'9102053517419'
p2557
S'9102900644690'
p2558
sS'9101320632059'
p2559
S'9101301304591'
p2560
sS'9102512375012'
p2561
S'9102512375012'
p2562
sS'9101876788481'
p2563
S'9101876788481'
p2564
sS'9103903091086'
p2565
S'9102681714933'
p2566
sS'9100063039669'
p2567
S'9100063039669'
p2568
sS'9103628503380'
p2569
NsS'9104137731364'
p2570
S'9104137731364'
p2571
sS'9103869674067'
p2572
S'9103869674067'
p2573
sS'9101391781195'
p2574
NsS'9102307396701'
p2575
S'9102307396701'
p2576
sS'9101515504888'
p2577
NsS'9103251532639'
p2578
S'9103251532639'
p2579
sS'9103630749590'
p2580
S'9103630749590'
p2581
sS'9101158676418'
p2582
S'9101158676418'
p2583
sS'9102181315618'
p2584
S'9102181315618'
p2585
sS'9102651573795'
p2586
S'9102651573795'
p2587
sS'9101996565428'
p2588
S'9101996565428'
p2589
sS'9102277127729'
p2590
NsS'9100596987474'
p2591
S'9100596987474'
p2592
sS'9101645249817'
p2593
S'9101645249817'
p2594
sS'9101481571550'
p2595
S'9103813519547'
p2596
sS'9103939902783'
p2597
NsS'9102764423134'
p2598
S'9102764423134'
p2599
sS'9100490267209'
p2600
S'9101633884674'
p2601
sS'9103147711436'
p2602
NsS'9102194817305'
p2603
S'9102194817305'
p2604
sS'9103650826044'
p2605
S'9103757782036'
p2606
sS'9102625445318'
p2607
S'9102250341801'
p2608
sS'9104045603442'
p2609
S'9104045603442'
p2610
sS'9103018953319'
p2611
NsS'9100588412298'
p2612
NsS'9102408992989'
p2613
S'9102408992989'
p2614
sS'9101357695652'
p2615
S'9101357695652'
p2616
sS'9102378769951'
p2617
S'9102378769951'
p2618
sS'9102804435607'
p2619
S'9102931011222'
p2620
sS'9102159803538'
p2621
S'9102159803538'
p2622
sS'9100215230026'
p2623
NsS'9101185466389'
p2624
S'9103180074357'
p2625
sS'9102726023858'
p2626
S'9102726023858'
p2627
sS'9100872408993'
p2628
S'9103718769500'
p2629
sS'9101625615295'
p2630
S'9101625615295'
p2631
sS'9104137359250'
p2632
S'9104137359250'
p2633
sS'9101437928581'
p2634
S'9101437928581'
p2635
sS'9103794675425'
p2636
S'9101739263026'
p2637
sS'9102543142454'
p2638
S'9102543142454'
p2639
sS'9102798492507'
p2640
S'9103752237201'
p2641
sS'9102145564010'
p2642
S'9102145564010'
p2643
sS'9104123566536'
p2644
S'9104123566536'
p2645
sS'9103280613206'
p2646
S'9103280613206'
p2647
sS'9103076488198'
p2648
S'9103076488198'
p2649
sS'9102699745343'
p2650
S'9102699745343'
p2651
sS'9101368101114'
p2652
S'9101368101114'
p2653
sS'9101701045555'
p2654
S'9101701045555'
p2655
sS'9103877451459'
p2656
S'9103877451459'
p2657
sS'9102230688708'
p2658
S'9102230688708'
p2659
sS'9102071748416'
p2660
S'9102071748416'
p2661
sS'9103783238560'
p2662
S'9103783238560'
p2663
sS'9103685278762'
p2664
S'9103685278762'
p2665
sS'9103755201159'
p2666
S'9103755201159'
p2667
sS'9103055822028'
p2668
NsS'9102086244368'
p2669
S'9100738177088'
p2670
sS'9100933011480'
p2671
S'9100933011480'
p2672
sS'9100622462297'
p2673
S'9100622462297'
p2674
sS'9100002490204'
p2675
NsS'9103732514685'
p2676
S'9103732514685'
p2677
sS'9101382970766'
p2678
S'9101382970766'
p2679
sS'9100898605162'
p2680
S'9100898605162'
p2681
sS'9101673301361'
p2682
S'9101673301361'
p2683
sS'9102769638177'
p2684
S'9102769638177'
p2685
s.