ccollections
defaultdict
p0
(c__builtin__
str
p1
tp2
Rp3
S'803721931806'
p4
S'802446224750'
p5
sS'804257502419'
p6
S'804257502419'
p7
sS'803500942494'
p8
S'802934714575'
p9
sS'800083675569'
p10
S'801985693833'
p11
sS'800319817069'
p12
S'801462701889'
p13
sS'802254450066'
p14
S'802254450066'
p15
sS'802184822193'
p16
NsS'803424710985'
p17
NsS'803724919986'
p18
S'803918767709'
p19
sS'802659737371'
p20
S'803166012932'
p21
sS'802577161110'
p22
NsS'802911210090'
p23
NsS'803742783015'
p24
S'800238198597'
p25
sS'800463166551'
p26
S'800463166551'
p27
sS'803469563662'
p28
S'803469563662'
p29
sS'802150686494'
p30
S'802210053135'
p31
sS'803838561250'
p32
NsS'803960162407'
p33
S'803960162407'
p34
sS'803458767955'
p35
S'803458767955'
p36
sS'802562873910'
p37
S'803106623100'
p38
sS'802709222608'
p39
S'802709222608'
p40
sS'804059872916'
p41
S'804059872916'
p42
sS'802617372949'
p43
S'800420284194'
p44
sS'800934915854'
p45
S'800934915854'
p46
sS'803935780924'
p47
S'800330491811'
p48
sS'803757702453'
p49
S'803287179656'
p50
sS'801294792826'
p51
S'802812784845'
p52
sS'803699265231'
p53
S'800921866653'
p54
sS'800957923898'
p55
S'800119511690'
p56
sS'800917426097'
p57
S'804077334269'
p58
sS'800992411463'
p59
S'800184008127'
p60
sS'804154267688'
p61
S'803859093058'
p62
sS'800477980228'
p63
S'800931630275'
p64
sS'800259320391'
p65
S'800259320391'
p66
sS'801120196734'
p67
S'800716073058'
p68
sS'802457130345'
p69
S'803106623100'
p70
sS'801877989846'
p71
S'803490056756'
p72
sS'803967817020'
p73
S'800967148072'
p74
sS'802067658918'
p75
S'802067658918'
p76
sS'802611600210'
p77
S'802611600210'
p78
sS'803125567974'
p79
S'802932734340'
p80
sS'800392775604'
p81
S'800392775604'
p82
sS'800071424655'
p83
S'802740086595'
p84
sS'802342450774'
p85
S'802342450774'
p86
sS'803145003770'
p87
S'803145003770'
p88
sS'800427749178'
p89
S'802448242086'
p90
sS'801812775209'
p91
S'800542321441'
p92
sS'801476061031'
p93
S'801450333288'
p94
sS'802800146120'
p95
NsS'801865988594'
p96
S'801773591120'
p97
sS'802076240126'
p98
S'802076240126'
p99
sS'803091871174'
p100
S'803568425394'
p101
sS'803565675315'
p102
S'800452746527'
p103
sS'801085701257'
p104
S'802610606767'
p105
sS'800271966770'
p106
S'800271966770'
p107
sS'801760409614'
p108
S'800542321441'
p109
sS'802382517334'
p110
S'800568336716'
p111
sS'801591843309'
p112
S'801591843309'
p113
sS'803299581401'
p114
S'802907056512'
p115
sS'801541817723'
p116
S'803848174373'
p117
sS'800028912185'
p118
S'802009130560'
p119
sS'801080597993'
p120
S'801864696936'
p121
sS'802484641985'
p122
S'802484641985'
p123
sS'800465862906'
p124
S'800465862906'
p125
sS'801064171818'
p126
S'801064171818'
p127
sS'802386013442'
p128
NsS'803982736688'
p129
S'803982736688'
p130
sS'801364402659'
p131
S'801364402659'
p132
sS'801458096439'
p133
S'801067702536'
p134
sS'801029282987'
p135
S'800225008936'
p136
sS'800546999380'
p137
S'803201349318'
p138
sS'802273627391'
p139
S'802273627391'
p140
sS'801274098610'
p141
S'801274098610'
p142
sS'800981760018'
p143
S'800981760018'
p144
sS'803679113805'
p145
S'803679113805'
p146
sS'800311804590'
p147
S'801371087309'
p148
sS'800789703032'
p149
S'800887324537'
p150
sS'802268872646'
p151
NsS'803067802106'
p152
S'800368824514'
p153
sS'800670478129'
p154
S'800670478129'
p155
sS'800931630275'
p156
S'800931630275'
p157
sS'803700081192'
p158
S'803700081192'
p159
sS'802167602662'
p160
S'802167602662'
p161
sS'804139193014'
p162
S'802650838215'
p163
sS'801608918139'
p164
NsS'800887585202'
p165
NsS'802092567209'
p166
S'802092567209'
p167
sS'804113814588'
p168
S'804113814588'
p169
sS'801455459489'
p170
S'803950252338'
p171
sS'800149609279'
p172
NsS'800562241044'
p173
S'800562241044'
p174
sS'802808443098'
p175
S'804026864776'
p176
sS'803815087758'
p177
S'802145343638'
p178
sS'801775745972'
p179
S'803412555595'
p180
sS'802457453727'
p181
S'800308410492'
p182
sS'800490108427'
p183
S'803268526162'
p184
sS'802092652848'
p185
S'801371087309'
p186
sS'801394229911'
p187
S'802480864542'
p188
sS'801192142154'
p189
S'801192142154'
p190
sS'801289253606'
p191
S'801289253606'
p192
sS'803471785747'
p193
S'803931230584'
p194
sS'803273632791'
p195
S'803273632791'
p196
sS'802176761038'
p197
S'800657970642'
p198
sS'801337012493'
p199
S'800872918103'
p200
sS'800180413445'
p201
NsS'800906502313'
p202
S'802832209998'
p203
sS'803100852656'
p204
S'802387568561'
p205
sS'801138798239'
p206
S'800149609279'
p207
sS'803169601831'
p208
S'801113211630'
p209
sS'803857830045'
p210
NsS'801764512582'
p211
S'800465862906'
p212
sS'802524677999'
p213
S'801744256183'
p214
sS'802448242086'
p215
S'802448242086'
p216
sS'803480616284'
p217
S'803480616284'
p218
sS'803335849303'
p219
S'803080849737'
p220
sS'803194509772'
p221
S'800894012117'
p222
sS'800064200402'
p223
S'800825794597'
p224
sS'801048934130'
p225
S'801048934130'
p226
sS'803421387859'
p227
S'800170129927'
p228
sS'800587635384'
p229
S'802306500665'
p230
sS'804008213705'
p231
S'803358524403'
p232
sS'800368824514'
p233
S'800368824514'
p234
sS'800485624915'
p235
S'800388266727'
p236
sS'801969285867'
p237
S'801969285867'
p238
sS'802851674836'
p239
S'802851674836'
p240
sS'802409312929'
p241
S'800403782429'
p242
sS'803174626508'
p243
S'800238198597'
p244
sS'804233045840'
p245
S'802160397051'
p246
sS'803750080812'
p247
S'801073933370'
p248
sS'800594782952'
p249
S'800594782952'
p250
sS'802313972618'
p251
S'800445669518'
p252
sS'803339676844'
p253
S'803339676844'
p254
sS'803125968738'
p255
S'803125968738'
p256
sS'802976540219'
p257
S'801968742290'
p258
sS'801347275357'
p259
NsS'802888100859'
p260
S'801514454189'
p261
sS'800896109445'
p262
S'800896109445'
p263
sS'801534693259'
p264
S'802175791187'
p265
sS'803322564917'
p266
S'803322564917'
p267
sS'802732337470'
p268
S'802759541564'
p269
sS'803693599497'
p270
S'803688397946'
p271
sS'802796620371'
p272
S'802796620371'
p273
sS'804216832554'
p274
S'804216832554'
p275
sS'802688769739'
p276
S'802688769739'
p277
sS'801172269462'
p278
S'801172269462'
p279
sS'802544635356'
p280
S'802544635356'
p281
sS'801436920602'
p282
NsS'803866881075'
p283
S'802861431528'
p284
sS'800403782429'
p285
NsS'802270152343'
p286
S'804193751242'
p287
sS'801319637357'
p288
S'800872918103'
p289
sS'801935207769'
p290
NsS'800483316560'
p291
S'801417961884'
p292
sS'800743876110'
p293
S'801717636436'
p294
sS'800053709077'
p295
S'801073933370'
p296
sS'800589235084'
p297
S'803688397946'
p298
sS'802599938015'
p299
S'802646575436'
p300
sS'803406323186'
p301
S'802709148119'
p302
sS'804049013082'
p303
NsS'801554592452'
p304
S'804005219855'
p305
sS'800502360838'
p306
NsS'802377436624'
p307
S'800420284194'
p308
sS'803390753216'
p309
NsS'803408908868'
p310
S'800637327459'
p311
sS'800479344505'
p312
S'803848174373'
p313
sS'801300376303'
p314
S'800463922417'
p315
sS'801450333288'
p316
S'801450333288'
p317
sS'802076757386'
p318
S'802076757386'
p319
sS'800435247565'
p320
NsS'803677051973'
p321
S'800657970642'
p322
sS'803996904561'
p323
S'803996904561'
p324
sS'804111138122'
p325
S'802932713792'
p326
sS'802111023421'
p327
S'802145343638'
p328
sS'802808761926'
p329
S'802276258802'
p330
sS'801908012140'
p331
S'803688397946'
p332
sS'803033208069'
p333
S'803033208069'
p334
sS'802152217182'
p335
S'802740086595'
p336
sS'801076253511'
p337
S'801076253511'
p338
sS'803578798326'
p339
S'800887324537'
p340
sS'803930811927'
p341
NsS'802671233912'
p342
S'804112035355'
p343
sS'802835776407'
p344
NsS'803131141065'
p345
S'803131141065'
p346
sS'803193029669'
p347
S'803193029669'
p348
sS'800078860342'
p349
S'802208275668'
p350
sS'803443811212'
p351
S'803443811212'
p352
sS'800083722642'
p353
S'800542321441'
p354
sS'803080849737'
p355
S'803080849737'
p356
sS'800625726383'
p357
S'800625726383'
p358
sS'800686511554'
p359
S'804125555274'
p360
sS'801880089549'
p361
NsS'804134281299'
p362
S'802468084272'
p363
sS'803323801653'
p364
S'802067658918'
p365
sS'801019003478'
p366
S'801019003478'
p367
sS'804045119830'
p368
S'803470959388'
p369
sS'804155050532'
p370
NsS'803557446073'
p371
S'802145343638'
p372
sS'802898132759'
p373
S'804155050532'
p374
sS'801464569086'
p375
S'803531829546'
p376
sS'801527078798'
p377
S'801744256183'
p378
sS'803908454212'
p379
S'803908454212'
p380
sS'803950347523'
p381
S'803950347523'
p382
sS'801721057248'
p383
S'802037899033'
p384
sS'800843434839'
p385
S'803010329174'
p386
sS'804241020260'
p387
S'803691551147'
p388
sS'803422776682'
p389
S'803992079866'
p390
sS'804282662284'
p391
S'802649694450'
p392
sS'800343679018'
p393
S'800343679018'
p394
sS'802475772353'
p395
S'801668447250'
p396
sS'802503263247'
p397
S'803688397946'
p398
sS'802420019960'
p399
S'801390409423'
p400
sS'800144503801'
p401
S'800144503801'
p402
sS'804059721809'
p403
S'804059721809'
p404
sS'801469567703'
p405
NsS'800228140782'
p406
S'800228140782'
p407
sS'802552011895'
p408
S'802552011895'
p409
sS'801101878889'
p410
S'800471745404'
p411
sS'802791425564'
p412
S'802791425564'
p413
sS'802336313852'
p414
S'802342450774'
p415
sS'803967385923'
p416
S'801969285867'
p417
sS'800560190408'
p418
S'802145343638'
p419
sS'804074621848'
p420
S'802934714575'
p421
sS'800830737784'
p422
S'800830737784'
p423
sS'802026378967'
p424
S'802026378967'
p425
sS'801436918199'
p426
S'800604017483'
p427
sS'802861431528'
p428
S'802861431528'
p429
sS'803932870753'
p430
S'803932870753'
p431
sS'803870144623'
p432
S'800471745404'
p433
sS'803470959388'
p434
NsS'800647465234'
p435
S'802253714843'
p436
sS'802861983982'
p437
S'800502360838'
p438
sS'802547892040'
p439
S'802547892040'
p440
sS'801745336790'
p441
S'800238198597'
p442
sS'800517476665'
p443
S'800517476665'
p444
sS'803577901811'
p445
S'800308410492'
p446
sS'801192101180'
p447
S'800542321441'
p448
sS'800227072337'
p449
S'800967148072'
p450
sS'802373700789'
p451
S'802373700789'
p452
sS'803219982401'
p453
S'804155050532'
p454
sS'802075533875'
p455
S'804193751242'
p456
sS'801526933599'
p457
S'803661312656'
p458
sS'803427334142'
p459
NsS'802707548401'
p460
S'802486229987'
p461
sS'802994005532'
p462
S'800344465833'
p463
sS'802210053135'
p464
NsS'801519945788'
p465
S'801519945788'
p466
sS'803872643236'
p467
S'803872643236'
p468
sS'803638413835'
p469
S'802459185254'
p470
sS'802286247039'
p471
S'803661312656'
p472
sS'800800261687'
p473
S'800388266727'
p474
sS'802067617336'
p475
NsS'800297299006'
p476
NsS'802213619270'
p477
S'802213619270'
p478
sS'800119511690'
p479
S'800119511690'
p480
sS'804024737690'
p481
S'800108169214'
p482
sS'801022895322'
p483
S'801073933370'
p484
sS'800878163142'
p485
S'803412555595'
p486
sS'800576763618'
p487
S'801050028688'
p488
sS'800977665116'
p489
S'802319817122'
p490
sS'801793619881'
p491
S'803700081192'
p492
sS'801262979952'
p493
S'801968703342'
p494
sS'801199940422'
p495
S'801199940422'
p496
sS'803091298489'
p497
S'803091298489'
p498
sS'802946919603'
p499
S'803287179656'
p500
sS'801744365590'
p501
S'801744365590'
p502
sS'803123415662'
p503
S'803287179656'
p504
sS'802195729524'
p505
S'801667551939'
p506
sS'804216376768'
p507
S'803688397946'
p508
sS'802488929425'
p509
S'804140751007'
p510
sS'803216521440'
p511
S'800511332640'
p512
sS'803288979197'
p513
S'803288979197'
p514
sS'800347225356'
p515
S'800347225356'
p516
sS'803832716340'
p517
S'803832716340'
p518
sS'803772904557'
p519
S'803772904557'
p520
sS'800401750068'
p521
S'802853001732'
p522
sS'801390409423'
p523
S'801390409423'
p524
sS'802103899996'
p525
S'802822630494'
p526
sS'803048810870'
p527
S'800955901613'
p528
sS'803995186535'
p529
S'803908452880'
p530
sS'800014837743'
p531
S'800014837743'
p532
sS'803938302872'
p533
S'801125889295'
p534
sS'803361661719'
p535
S'802145343638'
p536
sS'803897646746'
p537
S'800500118454'
p538
sS'801590492228'
p539
S'802911210090'
p540
sS'802907056512'
p541
S'802907056512'
p542
sS'802284365295'
p543
S'800523141209'
p544
sS'803165542488'
p545
S'803797235115'
p546
sS'800681714452'
p547
NsS'801189298933'
p548
S'801656506942'
p549
sS'801666130602'
p550
S'802688769739'
p551
sS'801259747907'
p552
S'800753539749'
p553
sS'804137924377'
p554
S'804137924377'
p555
sS'800172123483'
p556
S'800172123483'
p557
sS'802403067057'
p558
NsS'802571831654'
p559
S'803469563662'
p560
sS'803637641410'
p561
NsS'801439852995'
p562
S'800388266727'
p563
sS'804007926991'
p564
NsS'800266355751'
p565
S'800266355751'
p566
sS'802159969864'
p567
NsS'802263993396'
p568
S'802145343638'
p569
sS'802979562581'
p570
S'802979562581'
p571
sS'802401628477'
p572
S'802401628477'
p573
sS'800307644466'
p574
S'800307644466'
p575
sS'801851442177'
p576
S'803124524520'
p577
sS'801119368363'
p578
S'802387568561'
p579
sS'801599318234'
p580
NsS'803106266093'
p581
S'801756472121'
p582
sS'802670280689'
p583
S'803809286236'
p584
sS'803232574009'
p585
S'800200618259'
p586
sS'804045914717'
p587
S'803857830045'
p588
sS'802415577427'
p589
S'802979562581'
p590
sS'801229991835'
p591
S'803469563662'
p592
sS'803288984333'
p593
S'802706172778'
p594
sS'801838543004'
p595
NsS'802919243336'
p596
S'804045502493'
p597
sS'803264736026'
p598
NsS'800882107237'
p599
NsS'803068303997'
p600
S'800149609279'
p601
sS'803982697219'
p602
S'800542321441'
p603
sS'803751223630'
p604
S'803751223630'
p605
sS'803996948288'
p606
S'801228707687'
p607
sS'801334199384'
p608
S'803982736688'
p609
sS'802303701486'
p610
S'802303701486'
p611
sS'800511332640'
p612
NsS'800246203762'
p613
S'800246203762'
p614
sS'801181868484'
p615
NsS'803987039232'
p616
S'801717636436'
p617
sS'802858015137'
p618
NsS'801211867401'
p619
S'802273627391'
p620
sS'802149803533'
p621
S'802448242086'
p622
sS'803464677755'
p623
S'801942827817'
p624
sS'802361610172'
p625
S'802361610172'
p626
sS'801209800057'
p627
S'800686273854'
p628
sS'802471968870'
p629
S'803834469602'
p630
sS'803012614255'
p631
S'803012614255'
p632
sS'804050468161'
p633
S'804050468161'
p634
sS'803081451418'
p635
S'803081451418'
p636
sS'801432831029'
p637
S'801432831029'
p638
sS'800816387912'
p639
S'801606070128'
p640
sS'802984771181'
p641
S'802984771181'
p642
sS'802480864542'
p643
S'802480864542'
p644
sS'802183230455'
p645
S'800894012117'
p646
sS'800836239086'
p647
S'803844274084'
p648
sS'804167921059'
p649
S'803358524403'
p650
sS'802276258802'
p651
S'802276258802'
p652
sS'804112035355'
p653
S'804112035355'
p654
sS'802195951098'
p655
NsS'802662283381'
p656
S'803848174373'
p657
sS'803216759310'
p658
S'803796287312'
p659
sS'801072438010'
p660
S'802037899033'
p661
sS'800978853582'
p662
S'800038400650'
p663
sS'802055705266'
p664
S'800568336716'
p665
sS'801629276595'
p666
S'804155050532'
p667
sS'802743912579'
p668
S'800542321441'
p669
sS'801121985683'
p670
NsS'801462701889'
p671
S'801462701889'
p672
sS'803844274084'
p673
S'803844274084'
p674
sS'802045005757'
p675
S'800228140782'
p676
sS'800174821879'
p677
S'803688397946'
p678
sS'800047470147'
p679
S'800047470147'
p680
sS'802681454169'
p681
S'803688397946'
p682
sS'800715999272'
p683
S'800238198597'
p684
sS'802260543670'
p685
S'800825794597'
p686
sS'803018582379'
p687
S'803131141065'
p688
sS'802023261419'
p689
NsS'803341386832'
p690
S'801606070128'
p691
sS'803013336184'
p692
S'803013336184'
p693
sS'800497091178'
p694
S'804059721809'
p695
sS'801712797289'
p696
S'802649694450'
p697
sS'803131558051'
p698
S'803131558051'
p699
sS'803639779251'
p700
S'804204053499'
p701
sS'801662462792'
p702
S'802610606767'
p703
sS'803145371324'
p704
S'803145371324'
p705
sS'803354361650'
p706
S'803354361650'
p707
sS'802324998450'
p708
S'802324998450'
p709
sS'803240364991'
p710
S'800475920255'
p711
sS'802713976179'
p712
S'802713976179'
p713
sS'801906101186'
p714
S'801906101186'
p715
sS'800238198597'
p716
S'800238198597'
p717
sS'800695275571'
p718
S'802812784845'
p719
sS'801939525152'
p720
S'801939525152'
p721
sS'804182416892'
p722
S'802387568561'
p723
sS'804104491838'
p724
S'800471745404'
p725
sS'803710860551'
p726
S'802145343638'
p727
sS'802669468136'
p728
S'803531829546'
p729
sS'801282899870'
p730
NsS'800063559461'
p731
S'800063559461'
p732
sS'801153309097'
p733
S'801153309097'
p734
sS'802486229987'
p735
NsS'803481910080'
p736
S'801738107948'
p737
sS'800225008936'
p738
NsS'802200397710'
p739
S'802200397710'
p740
sS'803625054809'
p741
S'803531829546'
p742
sS'802843949129'
p743
S'802843949129'
p744
sS'800584002887'
p745
NsS'800233353758'
p746
S'801105193100'
p747
sS'803519814162'
p748
S'803519814162'
p749
sS'801150728501'
p750
NsS'800784797932'
p751
NsS'800302737793'
p752
S'800302737793'
p753
sS'804060947384'
p754
S'804060947384'
p755
sS'800708092031'
p756
S'800708092031'
p757
sS'802408265372'
p758
S'800302737793'
p759
sS'802823221464'
p760
NsS'804140751007'
p761
S'804140751007'
p762
sS'801449442642'
p763
S'803166012932'
p764
sS'802059578637'
p765
S'802059578637'
p766
sS'801887077902'
p767
S'801887077902'
p768
sS'802771040564'
p769
S'802771040564'
p770
sS'800896579872'
p771
NsS'804036479506'
p772
S'804036479506'
p773
sS'801086283535'
p774
S'801086283535'
p775
sS'800133135138'
p776
S'800568336716'
p777
sS'802459185254'
p778
S'802459185254'
p779
sS'800741700056'
p780
S'800741700056'
p781
sS'800118366641'
p782
NsS'800895647651'
p783
S'803982736688'
p784
sS'800020405351'
p785
NsS'802029886721'
p786
S'801274098610'
p787
sS'804031038876'
p788
S'801048934130'
p789
sS'802465835062'
p790
S'802465835062'
p791
sS'800463922417'
p792
S'800463922417'
p793
sS'801139638035'
p794
S'802409515060'
p795
sS'803866886212'
p796
S'803680606261'
p797
sS'803336207560'
p798
NsS'801475079243'
p799
S'801475079243'
p800
sS'800184646007'
p801
S'803688397946'
p802
sS'802946936761'
p803
S'800259320391'
p804
sS'801610200816'
p805
S'802276258802'
p806
sS'801517201397'
p807
S'801517201397'
p808
sS'803124375891'
p809
S'803124375891'
p810
sS'803010105387'
p811
S'803010105387'
p812
sS'803310885261'
p813
S'800238198597'
p814
sS'801914749151'
p815
S'803797235115'
p816
sS'802691858683'
p817
S'802691858683'
p818
sS'802370573116'
p819
NsS'801008284168'
p820
NsS'802286547498'
p821
S'801977653107'
p822
sS'801947104190'
p823
S'801947104190'
p824
sS'803326655663'
p825
S'803326655663'
p826
sS'800192194421'
p827
NsS'800486262505'
p828
S'802614647128'
p829
sS'801773819577'
p830
S'801773819577'
p831
sS'802229216913'
p832
S'800149609279'
p833
sS'801645623535'
p834
S'804059872916'
p835
sS'801688146382'
p836
S'800872918103'
p837
sS'804180733683'
p838
S'804180733683'
p839
sS'801339896234'
p840
S'802610606767'
p841
sS'800954016951'
p842
S'802305494433'
p843
sS'801089895961'
p844
S'803953506328'
p845
sS'803108698116'
p846
S'803108698116'
p847
sS'804264909985'
p848
S'803125968738'
p849
sS'803358641086'
p850
S'803358641086'
p851
sS'803223085816'
p852
S'803223085816'
p853
sS'803179834296'
p854
S'800225008936'
p855
sS'801884692977'
p856
S'802184822193'
p857
sS'801371087309'
p858
S'801371087309'
p859
sS'802718593456'
p860
S'802718593456'
p861
sS'800542321441'
p862
S'800542321441'
p863
sS'802614647128'
p864
S'802614647128'
p865
sS'801162177297'
p866
S'800523141209'
p867
sS'801183322418'
p868
S'801183322418'
p869
sS'802070471752'
p870
S'801286008220'
p871
sS'801541233552'
p872
NsS'802956871210'
p873
S'803480616284'
p874
sS'800568336716'
p875
S'800568336716'
p876
sS'801100204817'
p877
S'801100204817'
p878
sS'803342223290'
p879
S'803342223290'
p880
sS'802806048757'
p881
S'802706172778'
p882
sS'800269413318'
p883
S'800681714452'
p884
sS'800612260110'
p885
S'803124375891'
p886
sS'801100589974'
p887
S'801113211630'
p888
sS'803474658998'
p889
NsS'802832209998'
p890
S'802832209998'
p891
sS'803942449383'
p892
S'802646575436'
p893
sS'802333191685'
p894
S'802333191685'
p895
sS'801416365238'
p896
S'800853830046'
p897
sS'800825794597'
p898
S'800825794597'
p899
sS'802630137542'
p900
NsS'802037899033'
p901
S'802037899033'
p902
sS'801968742290'
p903
NsS'800409377867'
p904
S'800409377867'
p905
sS'803101451090'
p906
S'803680606261'
p907
sS'802484735601'
p908
S'800020405351'
p909
sS'801702928070'
p910
NsS'801392042602'
p911
S'804007926991'
p912
sS'800425309625'
p913
S'800425309625'
p914
sS'804077691709'
p915
S'803395534792'
p916
sS'801073933370'
p917
NsS'800350666520'
p918
S'800350666520'
p919
sS'801717636436'
p920
S'801717636436'
p921
sS'803377977480'
p922
S'803377977480'
p923
sS'804007822823'
p924
S'802740086595'
p925
sS'801285731973'
p926
S'800225008936'
p927
sS'802338286747'
p928
S'802338286747'
p929
sS'800585776008'
p930
S'801248182394'
p931
sS'800753539749'
p932
NsS'800208554566'
p933
S'800149609279'
p934
sS'802646575436'
p935
S'802646575436'
p936
sS'800215054461'
p937
S'800215054461'
p938
sS'803440301426'
p939
S'800542321441'
p940
sS'801403943059'
p941
S'801403943059'
p942
sS'803848174373'
p943
S'803848174373'
p944
sS'801378125737'
p945
S'804104813813'
p946
sS'802253714843'
p947
S'802253714843'
p948
sS'801351412728'
p949
S'803688397946'
p950
sS'800196005763'
p951
S'803322564917'
p952
sS'803404906793'
p953
S'803404906793'
p954
sS'801105193100'
p955
NsS'802540383050'
p956
S'803700081192'
p957
sS'802533998927'
p958
S'802533998927'
p959
sS'803080225096'
p960
NsS'800154593007'
p961
S'800154593007'
p962
sS'800720717910'
p963
S'802139374627'
p964
sS'800740962413'
p965
S'804059721809'
p966
sS'803113613356'
p967
S'803106623100'
p968
sS'804026864776'
p969
S'804026864776'
p970
sS'803601038945'
p971
S'801985693833'
p972
sS'801515439376'
p973
S'801515439376'
p974
sS'803251914283'
p975
S'800409377867'
p976
sS'800351871987'
p977
S'800351871987'
p978
sS'802683526457'
p979
S'802683526457'
p980
sS'802768055313'
p981
S'802768055313'
p982
sS'801166345112'
p983
S'800542321441'
p984
sS'803525589473'
p985
S'803525589473'
p986
sS'803058614738'
p987
S'803866016115'
p988
sS'800601447783'
p989
S'800601447783'
p990
sS'801430198205'
p991
S'802542371207'
p992
sS'800797518194'
p993
NsS'803804652549'
p994
S'802054974757'
p995
sS'802102782967'
p996
S'801693445190'
p997
sS'803099230390'
p998
S'801762605020'
p999
sS'802674209930'
p1000
S'802145343638'
p1001
sS'800523129437'
p1002
S'803013336184'
p1003
sS'804240121891'
p1004
S'801773591120'
p1005
sS'803067105245'
p1006
S'803067105245'
p1007
sS'802749613314'
p1008
S'803124524520'
p1009
sS'800475920255'
p1010
S'800475920255'
p1011
sS'803948697860'
p1012
S'803223085816'
p1013
sS'800961121707'
p1014
NsS'804202829159'
p1015
S'804266585294'
p1016
sS'802056317545'
p1017
S'802056317545'
p1018
sS'802584129386'
p1019
S'802770463782'
p1020
sS'800058419722'
p1021
S'802740086595'
p1022
sS'804246927515'
p1023
S'803992079866'
p1024
sS'804005219855'
p1025
S'804005219855'
p1026
sS'800308063935'
p1027
S'800308063935'
p1028
sS'803106623100'
p1029
S'803106623100'
p1030
sS'800628870958'
p1031
S'800628870958'
p1032
sS'803126710465'
p1033
S'801475079243'
p1034
sS'802556093517'
p1035
S'802092567209'
p1036
sS'803232037943'
p1037
S'803232037943'
p1038
sS'800658532094'
p1039
S'801475079243'
p1040
sS'802935167316'
p1041
S'802935167316'
p1042
sS'801129890423'
p1043
NsS'801090489694'
p1044
S'803796287312'
p1045
sS'802122089262'
p1046
S'802122089262'
p1047
sS'803936390918'
p1048
NsS'803083732439'
p1049
S'800308410492'
p1050
sS'802665532324'
p1051
S'802665532324'
p1052
sS'800087471618'
p1053
S'804204053499'
p1054
sS'801688035346'
p1055
S'801688035346'
p1056
sS'802885190593'
p1057
S'801417961884'
p1058
sS'800190547605'
p1059
NsS'801775417835'
p1060
S'803273632791'
p1061
sS'803732283138'
p1062
NsS'802934714575'
p1063
S'802934714575'
p1064
sS'801943626223'
p1065
S'804212660634'
p1066
sS'802221299881'
p1067
S'802221299881'
p1068
sS'801588195438'
p1069
S'801588195438'
p1070
sS'801286008220'
p1071
S'801286008220'
p1072
sS'800866676106'
p1073
S'800225008936'
p1074
sS'802768011567'
p1075
S'803538413809'
p1076
sS'802857684980'
p1077
S'800238198597'
p1078
sS'803575819336'
p1079
NsS'801558638267'
p1080
NsS'802035130428'
p1081
NsS'803166012932'
p1082
S'803166012932'
p1083
sS'801744256183'
p1084
S'801744256183'
p1085
sS'801567968301'
p1086
S'800628870958'
p1087
sS'803901137742'
p1088
S'801437951758'
p1089
sS'803071486448'
p1090
S'800955901613'
p1091
sS'800314937717'
p1092
S'804104813813'
p1093
sS'800926536837'
p1094
S'802306500665'
p1095
sS'803399398477'
p1096
S'800020405351'
p1097
sS'803311376638'
p1098
S'800955901613'
p1099
sS'804132738605'
p1100
S'804132738605'
p1101
sS'802513999381'
p1102
S'801475079243'
p1103
sS'804204053499'
p1104
S'804204053499'
p1105
sS'800017955644'
p1106
S'802547892040'
p1107
sS'802580274420'
p1108
S'802448242086'
p1109
sS'803700620325'
p1110
S'803700620325'
p1111
sS'800695403715'
p1112
S'802184822193'
p1113
sS'803406686564'
p1114
S'803848174373'
p1115
sS'803535947546'
p1116
S'801667551939'
p1117
sS'802440638094'
p1118
NsS'802454699141'
p1119
S'802454699141'
p1120
sS'803023990552'
p1121
S'803412555595'
p1122
sS'803616483484'
p1123
S'801105193100'
p1124
sS'800445669518'
p1125
S'800445669518'
p1126
sS'802709148119'
p1127
S'802709148119'
p1128
sS'800689334431'
p1129
S'802850402256'
p1130
sS'802468084272'
p1131
S'802468084272'
p1132
sS'803268526162'
p1133
S'803268526162'
p1134
sS'802113670897'
p1135
S'801073933370'
p1136
sS'801664202292'
p1137
S'804112035355'
p1138
sS'801324485274'
p1139
S'800388266727'
p1140
sS'801437951758'
p1141
S'801437951758'
p1142
sS'802143914219'
p1143
S'802823221464'
p1144
sS'800253257443'
p1145
NsS'802897436750'
p1146
S'801744256183'
p1147
sS'803586445503'
p1148
S'802851674836'
p1149
sS'804166546506'
p1150
S'804166546506'
p1151
sS'802531047042'
p1152
S'803491999327'
p1153
sS'803261014616'
p1154
S'803688397946'
p1155
sS'804081853081'
p1156
S'803531829546'
p1157
sS'802649694450'
p1158
NsS'803412555595'
p1159
S'803412555595'
p1160
sS'800137538181'
p1161
NsS'803899727794'
p1162
S'802771040564'
p1163
sS'801013101922'
p1164
S'801013101922'
p1165
sS'800500118454'
p1166
S'800500118454'
p1167
sS'804273112000'
p1168
S'802197244399'
p1169
sS'803204440261'
p1170
NsS'802566682614'
p1171
S'800020405351'
p1172
sS'801531489725'
p1173
S'801248453923'
p1174
sS'802477889602'
p1175
S'800887324537'
p1176
sS'800472785993'
p1177
S'800472785993'
p1178
sS'801930419417'
p1179
NsS'801175757813'
p1180
S'800825794597'
p1181
sS'801750372893'
p1182
S'801750372893'
p1183
sS'800921866653'
p1184
NsS'801682609595'
p1185
NsS'804176047816'
p1186
S'804176047816'
p1187
sS'803271497407'
p1188
S'804212660634'
p1189
sS'801736696506'
p1190
S'801736696506'
p1191
sS'804228470548'
p1192
S'801125889295'
p1193
sS'801049507057'
p1194
S'800568336716'
p1195
sS'802610606767'
p1196
NsS'803514198197'
p1197
S'800628870958'
p1198
sS'801737763687'
p1199
S'803982736688'
p1200
sS'800304045741'
p1201
S'804243788691'
p1202
sS'800811945074'
p1203
S'803187893740'
p1204
sS'804194936479'
p1205
S'802850402256'
p1206
sS'803642726265'
p1207
S'803642726265'
p1208
sS'802616959754'
p1209
S'803982736688'
p1210
sS'801251588556'
p1211
NsS'800071484840'
p1212
S'800071484840'
p1213
sS'802710298024'
p1214
S'800307644466'
p1215
sS'803047069385'
p1216
S'804026864776'
p1217
sS'804071351351'
p1218
S'804071351351'
p1219
sS'800338571837'
p1220
S'800199472412'
p1221
sS'801179021886'
p1222
NsS'802311793379'
p1223
S'802311793379'
p1224
sS'804193751242'
p1225
NsS'801773591120'
p1226
S'801773591120'
p1227
sS'802079785880'
p1228
S'802079785880'
p1229
sS'801498458674'
p1230
S'803531829546'
p1231
sS'800647096166'
p1232
S'801975758018'
p1233
sS'801705082528'
p1234
S'802145343638'
p1235
sS'800614590795'
p1236
S'802841085212'
p1237
sS'803187893740'
p1238
NsS'804104813813'
p1239
NsS'801113211630'
p1240
S'801113211630'
p1241
sS'804289432363'
p1242
S'801668447250'
p1243
sS'802162137488'
p1244
S'800825794597'
p1245
sS'800452746527'
p1246
S'800452746527'
p1247
sS'803057025135'
p1248
S'803057025135'
p1249
sS'800721858872'
p1250
S'802145343638'
p1251
sS'800377131812'
p1252
S'800377131812'
p1253
sS'804187599587'
p1254
S'804187599587'
p1255
sS'800633456236'
p1256
S'803950252338'
p1257
sS'800793337533'
p1258
S'803642726265'
p1259
sS'802942268790'
p1260
S'801756472121'
p1261
sS'801775822778'
p1262
S'802646575436'
p1263
sS'803894576871'
p1264
S'803894576871'
p1265
sS'803704661595'
p1266
NsS'801750045683'
p1267
S'801750045683'
p1268
sS'801624283266'
p1269
S'803772904557'
p1270
sS'803859093058'
p1271
S'803859093058'
p1272
sS'802674994819'
p1273
S'803864543579'
p1274
sS'803802787427'
p1275
S'803802787427'
p1276
sS'800712551637'
p1277
NsS'803189397930'
p1278
S'801309606548'
p1279
sS'800185648601'
p1280
S'803124375891'
p1281
sS'801853140273'
p1282
S'801839324271'
p1283
sS'803177462243'
p1284
S'803177462243'
p1285
sS'800019392606'
p1286
S'800308410492'
p1287
sS'800636424396'
p1288
NsS'800788470104'
p1289
NsS'803932998565'
p1290
S'803932998565'
p1291
sS'800290065334'
p1292
S'802056317545'
p1293
sS'800291489646'
p1294
S'800291489646'
p1295
sS'800603813475'
p1296
S'804187599587'
p1297
sS'803945051157'
p1298
NsS'801323506582'
p1299
S'802844819964'
p1300
sS'800134121590'
p1301
S'800628870958'
p1302
sS'802033259359'
p1303
S'801788268965'
p1304
sS'803320549099'
p1305
S'801599318234'
p1306
sS'803927723101'
p1307
S'803927723101'
p1308
sS'802045497852'
p1309
NsS'802719673255'
p1310
S'802218567258'
p1311
sS'801907073027'
p1312
S'801907073027'
p1313
sS'800262384636'
p1314
S'800262384636'
p1315
sS'801710455340'
p1316
S'801710455340'
p1317
sS'803113670496'
p1318
S'800955901613'
p1319
sS'801428105068'
p1320
S'804109829866'
p1321
sS'803538413809'
p1322
NsS'804276113185'
p1323
S'804276113185'
p1324
sS'801756472121'
p1325
S'801756472121'
p1326
sS'802361609752'
p1327
S'803982736688'
p1328
sS'802917711387'
p1329
S'802917711387'
p1330
sS'803162613120'
p1331
S'801599318234'
p1332
sS'800636887735'
p1333
S'803538413809'
p1334
sS'802745784379'
p1335
S'802373700789'
p1336
sS'802191016014'
p1337
NsS'801254188761'
p1338
S'802911210090'
p1339
sS'800395627339'
p1340
S'800395627339'
p1341
sS'800038400650'
p1342
S'800038400650'
p1343
sS'803124211210'
p1344
S'800490677924'
p1345
sS'804198127904'
p1346
S'804198127904'
p1347
sS'800604017483'
p1348
NsS'802965855765'
p1349
S'802965855765'
p1350
sS'802853001732'
p1351
NsS'801975758018'
p1352
NsS'802740086595'
p1353
S'802740086595'
p1354
sS'801574309743'
p1355
S'803797520907'
p1356
sS'800696396970'
p1357
S'800696396970'
p1358
sS'802753621712'
p1359
S'802753621712'
p1360
sS'802781013687'
p1361
S'803154422308'
p1362
sS'801476774776'
p1363
S'800308410492'
p1364
sS'800894012117'
p1365
S'800894012117'
p1366
sS'800179863684'
p1367
S'801736696506'
p1368
sS'802793602444'
p1369
S'801371087309'
p1370
sS'802139374627'
p1371
NsS'800744578637'
p1372
S'800744578637'
p1373
sS'800142393341'
p1374
S'800853830046'
p1375
sS'803254152415'
p1376
S'803982736688'
p1377
sS'802540502373'
p1378
S'800894012117'
p1379
sS'802841085212'
p1380
NsS'802295497705'
p1381
NsS'800944619896'
p1382
S'800944619896'
p1383
sS'800035789736'
p1384
S'800035789736'
p1385
sS'803918767709'
p1386
S'803918767709'
p1387
sS'801305454260'
p1388
NsS'802206024047'
p1389
S'800657970642'
p1390
sS'803379494517'
p1391
S'802364823961'
p1392
sS'802207762885'
p1393
S'802207762885'
p1394
sS'800543282410'
p1395
NsS'801851592728'
p1396
S'803106623100'
p1397
sS'803525839864'
p1398
NsS'802536547310'
p1399
S'802536547310'
p1400
sS'801166901715'
p1401
S'802361017302'
p1402
sS'802927327152'
p1403
S'801930419417'
p1404
sS'802163210343'
p1405
S'802373700789'
p1406
sS'801981956465'
p1407
S'800872918103'
p1408
sS'802149506183'
p1409
S'802149506183'
p1410
sS'800085436987'
p1411
NsS'802922171939'
p1412
S'802922171939'
p1413
sS'803358524403'
p1414
NsS'802579041691'
p1415
S'802542371207'
p1416
sS'801608563178'
p1417
S'801762605020'
p1418
sS'800106255892'
p1419
NsS'800276546058'
p1420
S'800276546058'
p1421
sS'803691551147'
p1422
S'803691551147'
p1423
sS'801942827817'
p1424
S'801942827817'
p1425
sS'804141213844'
p1426
S'800225008936'
p1427
sS'800576282325'
p1428
S'803844274084'
p1429
sS'802814418290'
p1430
S'802814418290'
p1431
sS'801849221750'
p1432
S'800149609279'
p1433
sS'801552561766'
p1434
S'804266585294'
p1435
sS'801393234358'
p1436
S'801393234358'
p1437
sS'800249768367'
p1438
S'800955901613'
p1439
sS'802300053112'
p1440
NsS'800736227108'
p1441
S'800736227108'
p1442
sS'802817916523'
p1443
S'802817916523'
p1444
sS'802706172778'
p1445
NsS'802759541564'
p1446
S'802759541564'
p1447
sS'800609472825'
p1448
S'801125889295'
p1449
sS'802959972346'
p1450
S'803802318092'
p1451
sS'803039957144'
p1452
S'800825794597'
p1453
sS'803902440106'
p1454
S'800955901613'
p1455
sS'800980806548'
p1456
S'801585991526'
p1457
sS'804142738764'
p1458
S'800302737793'
p1459
sS'802126918202'
p1460
S'802126918202'
p1461
sS'801561653297'
p1462
S'801286008220'
p1463
sS'801763681405'
p1464
S'801019003478'
p1465
sS'803159903710'
p1466
S'803159903710'
p1467
sS'801033651390'
p1468
S'803081451418'
p1469
sS'802552750163'
p1470
S'802552750163'
p1471
sS'804125555274'
p1472
S'804125555274'
p1473
sS'801219284454'
p1474
S'803688397946'
p1475
sS'801120903881'
p1476
NsS'802509179027'
p1477
NsS'800507438089'
p1478
S'802653143527'
p1479
sS'802280119169'
p1480
S'802280119169'
p1481
sS'803491999327'
p1482
S'803491999327'
p1483
sS'802449483722'
p1484
S'800200618259'
p1485
sS'802203171279'
p1486
S'802203171279'
p1487
sS'800502569596'
p1488
S'803700081192'
p1489
sS'801964314492'
p1490
S'801600012871'
p1491
sS'802653143527'
p1492
S'802653143527'
p1493
sS'800718750767'
p1494
S'801985693833'
p1495
sS'802622915401'
p1496
S'800137538181'
p1497
sS'803838351503'
p1498
S'803838351503'
p1499
sS'803033279380'
p1500
S'801371087309'
p1501
sS'800199472412'
p1502
NsS'801034382776'
p1503
S'801034382776'
p1504
sS'802328192092'
p1505
NsS'802651146555'
p1506
S'800471745404'
p1507
sS'803532526455'
p1508
S'803532526455'
p1509
sS'803568425394'
p1510
S'803568425394'
p1511
sS'803180753970'
p1512
S'803180753970'
p1513
sS'801880553998'
p1514
S'801880553998'
p1515
sS'801248182394'
p1516
S'801248182394'
p1517
sS'801184033104'
p1518
S'801184033104'
p1519
sS'800471745404'
p1520
NsS'803982183768'
p1521
S'803982183768'
p1522
sS'803931230584'
p1523
S'803931230584'
p1524
sS'802542371207'
p1525
NsS'802770463782'
p1526
S'802770463782'
p1527
sS'802652576560'
p1528
S'804198127904'
p1529
sS'802129639664'
p1530
S'802129639664'
p1531
sS'801791688699'
p1532
S'802611600210'
p1533
sS'800630762494'
p1534
S'803177462243'
p1535
sS'804141284365'
p1536
S'801179021886'
p1537
sS'801600012871'
p1538
S'801600012871'
p1539
sS'804245731316'
p1540
S'802484641985'
p1541
sS'803946637875'
p1542
S'803908454212'
p1543
sS'803105305656'
p1544
S'803105305656'
p1545
sS'802460588806'
p1546
S'802460588806'
p1547
sS'803376667097'
p1548
S'800119511690'
p1549
sS'802739899637'
p1550
S'803950252338'
p1551
sS'800278538997'
p1552
S'803700081192'
p1553
sS'800567659058'
p1554
S'803872643236'
p1555
sS'801544950488'
p1556
S'801544950488'
p1557
sS'801248453923'
p1558
S'801248453923'
p1559
sS'801525435435'
p1560
S'802770463782'
p1561
sS'803851073959'
p1562
S'803851073959'
p1563
sS'802822630494'
p1564
NsS'803933786056'
p1565
S'803918767709'
p1566
sS'803992079866'
p1567
NsS'800901640353'
p1568
S'800276546058'
p1569
sS'801511728802'
p1570
S'801511728802'
p1571
sS'800827697463'
p1572
S'801756472121'
p1573
sS'800951836335'
p1574
S'802370573116'
p1575
sS'803988721824'
p1576
S'800238198597'
p1577
sS'800716073058'
p1578
S'800716073058'
p1579
sS'802743471972'
p1580
S'804212660634'
p1581
sS'800184008127'
p1582
S'800184008127'
p1583
sS'803531829546'
p1584
NsS'802844819964'
p1585
S'802844819964'
p1586
sS'800532052867'
p1587
S'800532052867'
p1588
sS'802203703521'
p1589
S'803125968738'
p1590
sS'801383922521'
p1591
S'800517476665'
p1592
sS'801067702536'
p1593
S'801067702536'
p1594
sS'800173171141'
p1595
S'800173171141'
p1596
sS'802306500665'
p1597
S'802306500665'
p1598
sS'800381834083'
p1599
S'800625726383'
p1600
sS'801413814904'
p1601
S'803474658998'
p1602
sS'803969916733'
p1603
S'802059578637'
p1604
sS'802382627743'
p1605
S'803480616284'
p1606
sS'800600167316'
p1607
S'803992327376'
p1608
sS'800480312248'
p1609
S'803412555595'
p1610
sS'803717081873'
p1611
S'803717081873'
p1612
sS'801278981231'
p1613
NsS'801044978080'
p1614
S'801710455340'
p1615
sS'800634592502'
p1616
S'803688397946'
p1617
sS'803124524520'
p1618
NsS'801066038029'
p1619
S'801066038029'
p1620
sS'801138861987'
p1621
S'801138861987'
p1622
sS'802640613339'
p1623
NsS'801651745649'
p1624
S'801985693833'
p1625
sS'803856181429'
p1626
S'803856181429'
p1627
sS'803059555118'
p1628
S'803059555118'
p1629
sS'804109829866'
p1630
NsS'803680606261'
p1631
S'803680606261'
p1632
sS'803705703211'
p1633
S'803705703211'
p1634
sS'802401093511'
p1635
S'801437951758'
p1636
sS'804277984161'
p1637
S'800042753330'
p1638
sS'800308410492'
p1639
S'800308410492'
p1640
sS'803908452880'
p1641
NsS'800490677924'
p1642
S'800490677924'
p1643
sS'803951040077'
p1644
S'803951040077'
p1645
sS'801056528885'
p1646
S'801968742290'
p1647
sS'801248123337'
p1648
S'801248123337'
p1649
sS'801968703342'
p1650
S'801968703342'
p1651
sS'803367606550'
p1652
S'801067251746'
p1653
sS'802693882085'
p1654
S'802693882085'
p1655
sS'802536572882'
p1656
S'801286008220'
p1657
sS'802214073603'
p1658
NsS'801062460826'
p1659
S'800308410492'
p1660
sS'802158567028'
p1661
S'802158567028'
p1662
sS'803743557222'
p1663
NsS'804144363223'
p1664
S'803568425394'
p1665
sS'803224001055'
p1666
S'801942827817'
p1667
sS'801813012325'
p1668
NsS'803686973856'
p1669
S'801248182394'
p1670
sS'800523141209'
p1671
S'800523141209'
p1672
sS'800102273254'
p1673
S'801309606548'
p1674
sS'802950114203'
p1675
NsS'801050028688'
p1676
NsS'803151265004'
p1677
S'803108698116'
p1678
sS'800122621563'
p1679
S'801050028688'
p1680
sS'803902811946'
p1681
S'803531829546'
p1682
sS'803154422308'
p1683
S'803154422308'
p1684
sS'801480710790'
p1685
S'800568336716'
p1686
sS'801787372737'
p1687
S'804125555274'
p1688
sS'803201392291'
p1689
NsS'800614648483'
p1690
S'800199472412'
p1691
sS'802894554067'
p1692
S'802894554067'
p1693
sS'802732550832'
p1694
S'800238198597'
p1695
sS'803292457024'
p1696
S'800238198597'
p1697
sS'800578425641'
p1698
S'803982736688'
p1699
sS'802544703036'
p1700
S'802547892040'
p1701
sS'800957854355'
p1702
S'800716073058'
p1703
sS'803547555888'
p1704
S'803547555888'
p1705
sS'800235991813'
p1706
S'800235991813'
p1707
sS'800549619295'
p1708
S'800149609279'
p1709
sS'802538900901'
p1710
S'800388266727'
p1711
sS'803064689858'
p1712
S'801050028688'
p1713
sS'801207968705'
p1714
S'801207968705'
p1715
sS'801464445377'
p1716
S'801464445377'
p1717
sS'800380748283'
p1718
S'800380748283'
p1719
sS'803496172634'
p1720
S'803496172634'
p1721
sS'801778399916'
p1722
S'803288979197'
p1723
sS'800330491811'
p1724
S'800330491811'
p1725
sS'803305829168'
p1726
S'803305829168'
p1727
sS'804181985746'
p1728
S'804212660634'
p1729
sS'801185842779'
p1730
S'801185842779'
p1731
sS'800678217688'
p1732
S'800678217688'
p1733
sS'802104881732'
p1734
NsS'803797520907'
p1735
NsS'800495777425'
p1736
S'801138861987'
p1737
sS'802423654641'
p1738
S'802690799544'
p1739
sS'800828938994'
p1740
S'801248182394'
p1741
sS'800526633223'
p1742
S'800184008127'
p1743
sS'803940255267'
p1744
S'803940255267'
p1745
sS'801021383967'
p1746
S'801891871381'
p1747
sS'802764331685'
p1748
S'802169460352'
p1749
sS'800287767603'
p1750
S'800287767603'
p1751
sS'804064548150'
p1752
S'800170129927'
p1753
sS'803514670631'
p1754
S'802167602662'
p1755
sS'803864543579'
p1756
S'803864543579'
p1757
sS'804179725192'
p1758
S'800291489646'
p1759
sS'804020203750'
p1760
S'804020203750'
p1761
sS'801338628414'
p1762
S'803851073959'
p1763
sS'802516173169'
p1764
S'803936390918'
p1765
sS'801871766715'
p1766
S'801871766715'
p1767
sS'803794478616'
p1768
S'803794478616'
p1769
sS'804283872994'
p1770
S'800463922417'
p1771
sS'803613589798'
p1772
S'803613589798'
p1773
sS'803073816222'
p1774
S'803688397946'
p1775
sS'802650838215'
p1776
S'802650838215'
p1777
sS'804279029053'
p1778
S'804279029053'
p1779
sS'800610799266'
p1780
S'800610799266'
p1781
sS'801010493144'
p1782
S'800657970642'
p1783
sS'800180037849'
p1784
S'800149609279'
p1785
sS'804064012415'
p1786
S'801515439376'
p1787
sS'801330474865'
p1788
S'803702637777'
p1789
sS'800291810696'
p1790
NsS'800717321210'
p1791
S'800717321210'
p1792
sS'802726645308'
p1793
S'802726645308'
p1794
sS'800258235652'
p1795
S'800887324537'
p1796
sS'800344465833'
p1797
S'800344465833'
p1798
sS'800198485855'
p1799
S'800198485855'
p1800
sS'801048461455'
p1801
S'802690799544'
p1802
sS'800265118661'
p1803
S'800265118661'
p1804
sS'803002698559'
p1805
S'800831225465'
p1806
sS'802858133390'
p1807
NsS'804160788602'
p1808
S'802611600210'
p1809
sS'801163361444'
p1810
S'800020405351'
p1811
sS'801578885347'
p1812
S'803531829546'
p1813
sS'801891871381'
p1814
S'801891871381'
p1815
sS'803509875508'
p1816
S'802129639664'
p1817
sS'803891444066'
p1818
S'802387568561'
p1819
sS'802115071157'
p1820
S'802709148119'
p1821
sS'803933242248'
p1822
S'803933242248'
p1823
sS'802888904835'
p1824
S'802888904835'
p1825
sS'803490056756'
p1826
S'803490056756'
p1827
sS'800200618259'
p1828
S'800200618259'
p1829
sS'802814835757'
p1830
NsS'804157181774'
p1831
S'801307481625'
p1832
sS'803219616747'
p1833
S'803219616747'
p1834
sS'803959017843'
p1835
S'803959017843'
p1836
sS'803213084365'
p1837
S'800042753330'
p1838
sS'800872019041'
p1839
S'804001732393'
p1840
sS'802575709722'
p1841
S'800872918103'
p1842
sS'803376786023'
p1843
S'803159903710'
p1844
sS'801864696936'
p1845
S'801864696936'
p1846
sS'803491999605'
p1847
S'800238198597'
p1848
sS'800811049716'
p1849
S'801050028688'
p1850
sS'801289852673'
p1851
NsS'803949048255'
p1852
S'801251180034'
p1853
sS'803418999697'
p1854
S'801289852673'
p1855
sS'803319945329'
p1856
S'803319945329'
p1857
sS'802917036942'
p1858
S'800388266727'
p1859
sS'801047539916'
p1860
NsS'800981698692'
p1861
S'800887324537'
p1862
sS'801228707687'
p1863
S'801228707687'
p1864
sS'802731503185'
p1865
S'802731503185'
p1866
sS'802801378651'
p1867
S'802801378651'
p1868
sS'801595574951'
p1869
S'802853001732'
p1870
sS'803096356114'
p1871
S'803096356114'
p1872
sS'803516685654'
p1873
S'801975758018'
p1874
sS'800317820717'
p1875
S'800317820717'
p1876
sS'800451745286'
p1877
S'800451745286'
p1878
sS'800831225465'
p1879
S'800831225465'
p1880
sS'800156779621'
p1881
S'801475079243'
p1882
sS'802263777745'
p1883
S'803927723101'
p1884
sS'802701506534'
p1885
S'802701506534'
p1886
sS'802235376862'
p1887
S'803950252338'
p1888
sS'802611879154'
p1889
S'803688397946'
p1890
sS'800887324537'
p1891
S'800887324537'
p1892
sS'801565985653'
p1893
S'801565985653'
p1894
sS'802550010417'
p1895
NsS'802694479067'
p1896
S'800894012117'
p1897
sS'802402337036'
p1898
S'802402337036'
p1899
sS'801207431816'
p1900
S'801207431816'
p1901
sS'804077334269'
p1902
NsS'804212660634'
p1903
S'804212660634'
p1904
sS'803451619908'
p1905
S'803451619908'
p1906
sS'802760534206'
p1907
S'800542321441'
p1908
sS'802395493924'
p1909
S'800826754090'
p1910
sS'801693445190'
p1911
S'801693445190'
p1912
sS'804001732393'
p1913
S'804001732393'
p1914
sS'801955619834'
p1915
S'802253714843'
p1916
sS'801961409896'
p1917
S'800144503801'
p1918
sS'801767016042'
p1919
S'801756472121'
p1920
sS'801045766688'
p1921
S'801045766688'
p1922
sS'801668447250'
p1923
NsS'803208289564'
p1924
S'803797520907'
p1925
sS'801229414794'
p1926
S'803108698116'
p1927
sS'804141070260'
p1928
S'803982736688'
p1929
sS'803569781338'
p1930
S'803547555888'
p1931
sS'803976316823'
p1932
S'803976316823'
p1933
sS'803627110547'
p1934
S'801864696936'
p1935
sS'803196533175'
p1936
S'802139374627'
p1937
sS'800906354718'
p1938
S'803204440261'
p1939
sS'804094939634'
p1940
S'804094939634'
p1941
sS'802072039221'
p1942
S'802698565083'
p1943
sS'801483624881'
p1944
S'801483624881'
p1945
sS'800348346499'
p1946
S'800753539749'
p1947
sS'800063275920'
p1948
S'800063275920'
p1949
sS'800077650853'
p1950
S'801143704809'
p1951
sS'803313393399'
p1952
NsS'802299274771'
p1953
S'804077334269'
p1954
sS'804280340977'
p1955
S'804280340977'
p1956
sS'804171447309'
p1957
S'801019003478'
p1958
sS'803345633463'
p1959
S'803480616284'
p1960
sS'801365940074'
p1961
S'801816330061'
p1962
sS'804045502493'
p1963
S'804045502493'
p1964
sS'803834469602'
p1965
S'803834469602'
p1966
sS'803940101406'
p1967
S'803940101406'
p1968
sS'802916565496'
p1969
S'802916565496'
p1970
sS'800841098766'
p1971
S'803717081873'
p1972
sS'803676151232'
p1973
S'803676151232'
p1974
sS'801792238434'
p1975
S'802718593456'
p1976
sS'801656506942'
p1977
S'801656506942'
p1978
sS'800418401865'
p1979
S'801656506942'
p1980
sS'801248964677'
p1981
S'801248964677'
p1982
sS'802364823961'
p1983
S'802364823961'
p1984
sS'801331628812'
p1985
S'802139374627'
p1986
sS'802862331986'
p1987
S'800921866653'
p1988
sS'802318813441'
p1989
S'803717081873'
p1990
sS'801665303281'
p1991
S'800395627339'
p1992
sS'803839708483'
p1993
NsS'800810629439'
p1994
S'800810629439'
p1995
sS'803828407341'
p1996
S'800038400650'
p1997
sS'801308425916'
p1998
S'803908454212'
p1999
sS'803744612551'
p2000
S'801736696506'
p2001
sS'800424613447'
p2002
S'803531829546'
p2003
sS'804142438039'
p2004
S'804142438039'
p2005
sS'802966676782'
p2006
S'800517225918'
p2007
sS'802488060219'
p2008
S'801588195438'
p2009
sS'801985693833'
p2010
S'801985693833'
p2011
sS'801431698794'
p2012
S'800955901613'
p2013
sS'801038874865'
p2014
S'804007926991'
p2015
sS'803539764009'
p2016
S'800568336716'
p2017
sS'803771397637'
p2018
S'803771397637'
p2019
sS'802006758978'
p2020
S'803908454212'
p2021
sS'801451632019'
p2022
S'800472785993'
p2023
sS'802218567258'
p2024
S'802218567258'
p2025
sS'804290918319'
p2026
S'804290918319'
p2027
sS'802706093767'
p2028
NsS'802293173305'
p2029
S'800625726383'
p2030
sS'801988398197'
p2031
S'801988398197'
p2032
sS'800905837666'
p2033
S'800425309625'
p2034
sS'801234354495'
p2035
S'801234354495'
p2036
sS'803615381848'
p2037
S'803615381848'
p2038
sS'802313121069'
p2039
NsS'800888308660'
p2040
S'802907056512'
p2041
sS'802201655013'
p2042
S'802201655013'
p2043
sS'803142125351'
p2044
S'800388266727'
p2045
sS'800388266727'
p2046
NsS'802652899225'
p2047
S'803797520907'
p2048
sS'803111227754'
p2049
NsS'802690799544'
p2050
S'802690799544'
p2051
sS'800811264282'
p2052
S'800894012117'
p2053
sS'804266585294'
p2054
NsS'802723007070'
p2055
S'802723007070'
p2056
sS'801377738358'
p2057
S'802158567028'
p2058
sS'801307481625'
p2059
S'801307481625'
p2060
sS'801788268965'
p2061
S'801788268965'
p2062
sS'803797235115'
p2063
S'803797235115'
p2064
sS'801977653107'
p2065
S'801977653107'
p2066
sS'802384635543'
p2067
S'802384635543'
p2068
sS'800657970642'
p2069
NsS'802535973029'
p2070
S'804077334269'
p2071
sS'802464139045'
p2072
S'800020405351'
p2073
sS'801290601002'
p2074
S'801290601002'
p2075
sS'803273598246'
p2076
S'803857830045'
p2077
sS'803198913207'
p2078
NsS'802760097612'
p2079
S'803688397946'
p2080
sS'803661312656'
p2081
NsS'802099028495'
p2082
S'802099028495'
p2083
sS'803238232915'
p2084
S'801105193100'
p2085
sS'803597218630'
p2086
S'803688397946'
p2087
sS'802208275668'
p2088
S'802208275668'
p2089
sS'801590421807'
p2090
S'803490056756'
p2091
sS'801417961884'
p2092
NsS'800876403453'
p2093
S'800876403453'
p2094
sS'801931405297'
p2095
S'802210053135'
p2096
sS'800637327459'
p2097
S'800637327459'
p2098
sS'801333251933'
p2099
S'801333251933'
p2100
sS'800669239085'
p2101
S'802614647128'
p2102
sS'803688397946'
p2103
NsS'800253739713'
p2104
S'800517476665'
p2105
sS'803299427278'
p2106
NsS'803130871073'
p2107
S'802145343638'
p2108
sS'801935195624'
p2109
S'800708092031'
p2110
sS'802256290749'
p2111
S'800409377867'
p2112
sS'800955901613'
p2113
S'800955901613'
p2114
sS'801661696512'
p2115
S'803688397946'
p2116
sS'803738629754'
p2117
S'803738629754'
p2118
sS'800041891656'
p2119
NsS'800967148072'
p2120
S'800967148072'
p2121
sS'800812930051'
p2122
S'801248964677'
p2123
sS'803209285996'
p2124
NsS'801174926111'
p2125
NsS'801910107944'
p2126
S'803106623100'
p2127
sS'802601617732'
p2128
S'800266355751'
p2129
sS'803214266110'
p2130
S'802145343638'
p2131
sS'800405667407'
p2132
S'800944619896'
p2133
sS'802715512726'
p2134
NsS'801869507678'
p2135
S'800238198597'
p2136
sS'802160397051'
p2137
S'802160397051'
p2138
sS'802932734340'
p2139
S'802932734340'
p2140
sS'804130594712'
p2141
S'804130594712'
p2142
sS'800454607053'
p2143
S'804266585294'
p2144
sS'804181064391'
p2145
S'804181064391'
p2146
sS'802158900829'
p2147
S'800853830046'
p2148
sS'802175791187'
p2149
S'802175791187'
p2150
sS'802276250153'
p2151
S'802276250153'
p2152
sS'801015528633'
p2153
S'800238198597'
p2154
sS'800025173285'
p2155
S'800025173285'
p2156
sS'803950252338'
p2157
S'803950252338'
p2158
sS'804002811308'
p2159
S'800149609279'
p2160
sS'800236124077'
p2161
S'801086283535'
p2162
sS'803516136583'
p2163
S'802858015137'
p2164
sS'803210635054'
p2165
S'800465862906'
p2166
sS'801467589611'
p2167
S'801744256183'
p2168
sS'802253272103'
p2169
S'801282899870'
p2170
sS'802930387602'
p2171
S'802930387602'
p2172
sS'803821245110'
p2173
S'803821245110'
p2174
sS'800648077583'
p2175
S'802207762885'
p2176
sS'801084521705'
p2177
S'801084521705'
p2178
sS'801667551939'
p2179
S'801667551939'
p2180
sS'800517225918'
p2181
S'800517225918'
p2182
sS'803010329174'
p2183
S'803010329174'
p2184
sS'803894531075'
p2185
S'803976316823'
p2186
sS'803207343589'
p2187
S'803688397946'
p2188
sS'800072760555'
p2189
NsS'801317628683'
p2190
S'801317628683'
p2191
sS'804200645212'
p2192
S'802858015137'
p2193
sS'803125365605'
p2194
S'803125365605'
p2195
sS'802587655103'
p2196
S'801307481625'
p2197
sS'800872918103'
p2198
S'800872918103'
p2199
sS'800010113562'
p2200
S'800517476665'
p2201
sS'800884220613'
p2202
S'803377977480'
p2203
sS'802277155866'
p2204
S'802277155866'
p2205
sS'802599028270'
p2206
S'802599028270'
p2207
sS'801867865561'
p2208
S'801773591120'
p2209
sS'803867329249'
p2210
S'803867329249'
p2211
sS'803785170328'
p2212
S'800887324537'
p2213
sS'801382799655'
p2214
NsS'800420284194'
p2215
S'800420284194'
p2216
sS'801839331578'
p2217
S'802459185254'
p2218
sS'804111772674'
p2219
S'801086283535'
p2220
sS'804174278123'
p2221
S'804174278123'
p2222
sS'801583761168'
p2223
S'801583761168'
p2224
sS'801480790839'
p2225
S'803322564917'
p2226
sS'801036537714'
p2227
NsS'800095013075'
p2228
S'800184008127'
p2229
sS'802812784845'
p2230
S'802812784845'
p2231
sS'802396248775'
p2232
S'802361017302'
p2233
sS'802746304305'
p2234
S'802409515060'
p2235
sS'800335522673'
p2236
S'800308410492'
p2237
sS'800364191572'
p2238
S'803797520907'
p2239
sS'802728856113'
p2240
S'802139374627'
p2241
sS'800758584292'
p2242
NsS'801678194951'
p2243
S'803538413809'
p2244
sS'803864777817'
p2245
S'802056317545'
p2246
sS'800190454893'
p2247
S'800409377867'
p2248
sS'802005608085'
p2249
S'802005608085'
p2250
sS'803809286236'
p2251
S'803809286236'
p2252
sS'803634880248'
p2253
S'800199472412'
p2254
sS'803151478628'
p2255
S'803151478628'
p2256
sS'803390106631'
p2257
S'803390106631'
p2258
sS'803992327376'
p2259
S'803992327376'
p2260
sS'800457346935'
p2261
S'802753621712'
p2262
sS'801996331830'
p2263
S'803490056756'
p2264
sS'803604599464'
p2265
S'800562241044'
p2266
sS'800087862041'
p2267
S'800388266727'
p2268
sS'801734482330'
p2269
S'802768055313'
p2270
sS'804202071870'
p2271
S'804202071870'
p2272
sS'803648518749'
p2273
S'803936390918'
p2274
sS'802350644520'
p2275
S'803738629754'
p2276
sS'802976989866'
p2277
S'801121985683'
p2278
sS'800042753330'
p2279
S'800042753330'
p2280
sS'803130956218'
p2281
S'800020405351'
p2282
sS'804020885666'
p2283
S'800825794597'
p2284
sS'802555591743'
p2285
S'802555591743'
p2286
sS'803100484074'
p2287
NsS'803021369953'
p2288
S'804155050532'
p2289
sS'802850402256'
p2290
S'802850402256'
p2291
sS'803866016115'
p2292
S'803866016115'
p2293
sS'801719028046'
p2294
S'802547892040'
p2295
sS'800126740902'
p2296
S'800126740902'
p2297
sS'800319921807'
p2298
S'801432831029'
p2299
sS'800651179410'
p2300
S'804077334269'
p2301
sS'803461700175'
p2302
S'802145343638'
p2303
sS'800349373011'
p2304
S'800349373011'
p2305
sS'802986905997'
p2306
S'803679113805'
p2307
sS'801567970791'
p2308
S'800291489646'
p2309
sS'801067251746'
p2310
S'801067251746'
p2311
sS'800136113562'
p2312
S'803927723101'
p2313
sS'802836968009'
p2314
S'802026378967'
p2315
sS'803953506328'
p2316
S'803953506328'
p2317
sS'802632653951'
p2318
S'803688397946'
p2319
sS'803575287487'
p2320
S'803575287487'
p2321
sS'802660629924'
p2322
NsS'802729591728'
p2323
S'800542321441'
p2324
sS'802361017302'
p2325
NsS'802169460352'
p2326
S'802169460352'
p2327
sS'803970291937'
p2328
S'803680606261'
p2329
sS'801379331055'
p2330
S'801228707687'
p2331
sS'800681102665'
p2332
S'801693445190'
p2333
sS'804115942388'
p2334
S'801234354495'
p2335
sS'802246996156'
p2336
S'800471745404'
p2337
sS'800076679002'
p2338
S'803688397946'
p2339
sS'800261585670'
p2340
S'800261585670'
p2341
sS'801765029839'
p2342
S'802688769739'
p2343
sS'802088869148'
p2344
S'800678217688'
p2345
sS'803474531218'
p2346
NsS'800983258295'
p2347
NsS'801066741036'
p2348
S'803106623100'
p2349
sS'801669818891'
p2350
S'801669818891'
p2351
sS'802387568561'
p2352
S'802387568561'
p2353
sS'803759833601'
p2354
S'800825794597'
p2355
sS'801251180034'
p2356
S'801251180034'
p2357
sS'801941167614'
p2358
S'801941167614'
p2359
sS'800921466548'
p2360
S'801185842779'
p2361
sS'800538420075'
p2362
NsS'802078029277'
p2363
S'800409377867'
p2364
sS'801059483825'
p2365
S'802210053135'
p2366
sS'801837731488'
p2367
S'802139374627'
p2368
sS'802793220199'
p2369
S'802793220199'
p2370
sS'800964373872'
p2371
S'800964373872'
p2372
sS'800844762800'
p2373
S'800844762800'
p2374
sS'800151488782'
p2375
S'802145343638'
p2376
sS'804243788691'
p2377
S'804243788691'
p2378
sS'800636094794'
p2379
S'801942827817'
p2380
sS'800826754090'
p2381
S'800826754090'
p2382
sS'803796287312'
p2383
NsS'802284901174'
p2384
S'800349373011'
p2385
sS'802197244399'
p2386
S'802197244399'
p2387
sS'803211311954'
p2388
S'802122089262'
p2389
sS'804272715026'
p2390
S'803688397946'
p2391
sS'801762605020'
p2392
S'801762605020'
p2393
sS'800161382685'
p2394
S'801047539916'
p2395
sS'801849361136'
p2396
S'801849361136'
p2397
sS'800340086634'
p2398
S'800340086634'
p2399
sS'801514454189'
p2400
S'801514454189'
p2401
sS'800886931794'
p2402
S'802599028270'
p2403
sS'802698565083'
p2404
S'802698565083'
p2405
sS'801565658498'
p2406
S'800471745404'
p2407
sS'801816330061'
p2408
S'801816330061'
p2409
sS'801938043000'
p2410
S'802139374627'
p2411
sS'802498814680'
p2412
S'801289852673'
p2413
sS'801606070128'
p2414
NsS'800449168917'
p2415
S'800853830046'
p2416
sS'803357524246'
p2417
S'801286008220'
p2418
sS'801337388887'
p2419
NsS'803087711934'
p2420
S'800225008936'
p2421
sS'801080255359'
p2422
S'802361017302'
p2423
sS'802305494433'
p2424
NsS'800200293035'
p2425
S'802361610172'
p2426
sS'801031219769'
p2427
NsS'801466487091'
p2428
S'801045766688'
p2429
sS'801693078073'
p2430
S'802665532324'
p2431
sS'803449942551'
p2432
S'803449942551'
p2433
sS'804060958115'
p2434
S'804060958115'
p2435
sS'803203681768'
p2436
S'803680606261'
p2437
sS'802619473727'
p2438
S'803705703211'
p2439
sS'801125889295'
p2440
S'801125889295'
p2441
sS'804231422073'
p2442
S'802273627391'
p2443
sS'801575583476'
p2444
S'803940255267'
p2445
sS'803201349318'
p2446
S'803201349318'
p2447
sS'803702637777'
p2448
S'803702637777'
p2449
sS'801756190538'
p2450
S'801125889295'
p2451
sS'804292194864'
p2452
S'800894012117'
p2453
sS'802145343638'
p2454
S'802145343638'
p2455
sS'802963909501'
p2456
S'801121985683'
p2457
sS'804293723452'
p2458
S'804293723452'
p2459
sS'801497227096'
p2460
S'801138861987'
p2461
sS'803758255768'
p2462
S'802145343638'
p2463
sS'802502871271'
p2464
S'800681714452'
p2465
sS'802549573358'
p2466
S'802549573358'
p2467
sS'803784010506'
p2468
S'801511728802'
p2469
sS'800502709633'
p2470
S'800502709633'
p2471
sS'800354662109'
p2472
S'800025173285'
p2473
sS'803887588052'
p2474
S'800368824514'
p2475
sS'800853830046'
p2476
S'800853830046'
p2477
sS'803604055241'
p2478
S'803976316823'
p2479
sS'800113878697'
p2480
S'802018474267'
p2481
sS'804095139426'
p2482
S'803470959388'
p2483
sS'803701964155'
p2484
S'802361610172'
p2485
sS'801527235780'
p2486
S'800825794597'
p2487
sS'800686273854'
p2488
S'800686273854'
p2489
sS'802009130560'
p2490
S'802009130560'
p2491
sS'801536478369'
p2492
S'802841085212'
p2493
sS'803480688475'
p2494
NsS'802581460619'
p2495
S'800681714452'
p2496
sS'803583529368'
p2497
S'802361017302'
p2498
sS'801417727382'
p2499
S'802126918202'
p2500
sS'802213448033'
p2501
NsS'801309606548'
p2502
S'801309606548'
p2503
sS'800170129927'
p2504
S'800170129927'
p2505
sS'803511749932'
p2506
S'803013336184'
p2507
sS'802652549323'
p2508
S'803532526455'
p2509
sS'803428990680'
p2510
S'802145343638'
p2511
sS'802054974757'
p2512
S'802054974757'
p2513
sS'802428805160'
p2514
S'802718593456'
p2515
sS'800462194219'
p2516
S'803219616747'
p2517
sS'803368252983'
p2518
S'803368252983'
p2519
sS'802409515060'
p2520
S'802409515060'
p2521
sS'801973005227'
p2522
S'803193029669'
p2523
sS'800662916672'
p2524
S'800662916672'
p2525
sS'803287179656'
p2526
S'803287179656'
p2527
sS'804069089370'
p2528
S'804069089370'
p2529
sS'800108169214'
p2530
S'800108169214'
p2531
sS'801263706905'
p2532
S'800542321441'
p2533
s.