(dp0
crdflib.term
Literal
p1
(Vtime.h
p2
NNtp3
Rp4
g1
(V1
p5
Ncrdflib.term
URIRef
p6
(Vhttp://www.w3.org/2001/XMLSchema#integer
p7
tp8
Rp9
tp10
Rp11
sg1
(Vtime.h_1
p12
NNtp13
Rp14
g1
(V2
p15
Ng9
tp16
Rp17
sg1
(Vios_base.h
p18
NNtp19
Rp20
g1
(g5
Ng9
tp21
Rp22
sg1
(Vfs.cpp
p23
NNtp24
Rp25
g1
(V74
p26
Ng9
tp27
Rp28
sg1
(Vstdio.h_1
p29
NNtp30
Rp31
g1
(g5
Ng9
tp32
Rp33
sg1
(Vfilesys.h
p34
NNtp35
Rp36
g1
(V18
p37
Ng9
tp38
Rp39
sg1
(Vfilesys.cpp
p40
NNtp41
Rp42
g1
(V103
p43
Ng9
tp44
Rp45
sg1
(Viosfwd_1
p46
NNtp47
Rp48
g1
(g15
Ng9
tp49
Rp50
sg1
(Vpthread.h
p51
NNtp52
Rp53
g1
(V4
p54
Ng9
tp55
Rp56
sg1
(Vstdio.h
p57
NNtp58
Rp59
g1
(g5
Ng9
tp60
Rp61
sg1
(Viostream
p62
NNtp63
Rp64
g1
(g5
Ng9
tp65
Rp66
sg1
(Vstructures.h
p67
NNtp68
Rp69
g1
(V54
p70
Ng9
tp71
Rp72
sg1
(Vstructures.h_1
p73
NNtp74
Rp75
g1
(V43
p76
Ng9
tp77
Rp78
sg1
(Vstring.h
p79
NNtp80
Rp81
g1
(g15
Ng9
tp82
Rp83
sg1
(Vsignal.h
p84
NNtp85
Rp86
g1
(g5
Ng9
tp87
Rp88
sg1
(Vfilesys.h_1
p89
NNtp90
Rp91
g1
(V16
p92
Ng9
tp93
Rp94
sg1
(Viosfwd
p95
NNtp96
Rp97
g1
(g54
Ng9
tp98
Rp99
sg1
(Vtest3.cpp
p100
NNtp101
Rp102
g1
(V30
p103
Ng9
tp104
Rp105
sg1
(Vsb.cpp
p106
NNtp107
Rp108
g1
(V27
p109
Ng9
tp110
Rp111
sg1
(Vin.cpp
p112
NNtp113
Rp114
g1
(V33
p115
Ng9
tp116
Rp117
sg1
(Vstringfwd.h
p118
NNtp119
Rp120
g1
(g15
Ng9
tp121
Rp122
sg1
(Vunistd.h
p123
NNtp124
Rp125
g1
(g15
Ng9
tp126
Rp127
s.