(dp0
S'operations'
p1
(dp2
sS'restore'
p3
(dp4
crdflib.term
Literal
p5
(Vpngpriv.h_1
p6
NNtp7
Rp8
g5
(V16
p9
Ncrdflib.term
URIRef
p10
(Vhttp://www.w3.org/2001/XMLSchema#integer
p11
tp12
Rp13
tp14
Rp15
sg5
(Vpngpriv.h
p16
NNtp17
Rp18
g5
(V1
p19
Ng13
tp20
Rp21
sg5
(Vpngpread.c
p22
NNtp23
Rp24
g5
(g19
Ng13
tp25
Rp26
ssS'allowed'
p27
(dp28
g5
(Vpnginfo.h
p29
NNtp30
Rp31
g5
(g19
Ng13
tp32
Rp33
sg5
(Vpngset.c
p34
NNtp35
Rp36
g5
(V3
p37
Ng13
tp38
Rp39
sg5
(Vpngtest.c
p40
NNtp41
Rp42
g5
(g19
Ng13
tp43
Rp44
sg18
g5
(g19
Ng13
tp45
Rp46
sg5
(Vpngget.c
p47
NNtp48
Rp49
g5
(g19
Ng13
tp50
Rp51
sg5
(Vpngconf.h_1
p52
NNtp53
Rp54
g5
(g19
Ng13
tp55
Rp56
sg5
(Vpngrio.c
p57
NNtp58
Rp59
g5
(g19
Ng13
tp60
Rp61
sg5
(Vpnginfo.h_1
p62
NNtp63
Rp64
g5
(g19
Ng13
tp65
Rp66
sg8
g5
(g19
Ng13
tp67
Rp68
sg5
(Vpngmem.c
p69
NNtp70
Rp71
g5
(g19
Ng13
tp72
Rp73
sg5
(Vpng.h_1
p74
NNtp75
Rp76
g5
(V35
p77
Ng13
tp78
Rp79
sg5
(Vpngwutil.c
p80
NNtp81
Rp82
g5
(g19
Ng13
tp83
Rp84
sg5
(Vpngrtran.c
p85
NNtp86
Rp87
g5
(g19
Ng13
tp88
Rp89
sg5
(Vfilter_sse2_intrinsics.c
p90
NNtp91
Rp92
g5
(g19
Ng13
tp93
Rp94
sg5
(Vpng.h
p95
NNtp96
Rp97
g5
(g37
Ng13
tp98
Rp99
sg5
(Vpngread.c
p100
NNtp101
Rp102
g5
(g19
Ng13
tp103
Rp104
sg5
(Vpng.c
p105
NNtp106
Rp107
g5
(g19
Ng13
tp108
Rp109
sg24
g5
(g19
Ng13
tp110
Rp111
sg5
(Vpngconf.h
p112
NNtp113
Rp114
g5
(g19
Ng13
tp115
Rp116
sg5
(Vpngerror.c
p117
NNtp118
Rp119
g5
(g19
Ng13
tp120
Rp121
sg5
(Vpngstruct.h_1
p122
NNtp123
Rp124
g5
(g19
Ng13
tp125
Rp126
sg5
(Vpngrutil.c
p127
NNtp128
Rp129
g5
(g19
Ng13
tp130
Rp131
sg5
(Vpngwtran.c
p132
NNtp133
Rp134
g5
(g19
Ng13
tp135
Rp136
sg5
(Vpngtrans.c
p137
NNtp138
Rp139
g5
(g19
Ng13
tp140
Rp141
sg5
(Vpngwrite.c
p142
NNtp143
Rp144
g5
(g19
Ng13
tp145
Rp146
sg5
(Vpngwio.c
p147
NNtp148
Rp149
g5
(g19
Ng13
tp150
Rp151
sg5
(Vpngstruct.h
p152
NNtp153
Rp154
g5
(g19
Ng13
tp155
Rp156
ssS'cout'
p157
(dp158
sS'show'
p159
(dp160
sS'unistdh'
p161
(dp162
sS'supported'
p163
(dp164
g31
g5
(g19
Ng13
tp165
Rp166
sg36
g5
(g19
Ng13
tp167
Rp168
sg42
g5
(g19
Ng13
tp169
Rp170
sg18
g5
(g19
Ng13
tp171
Rp172
sg49
g5
(g19
Ng13
tp173
Rp174
sg54
g5
(g19
Ng13
tp175
Rp176
sg59
g5
(g19
Ng13
tp177
Rp178
sg64
g5
(g19
Ng13
tp179
Rp180
sg8
g5
(g19
Ng13
tp181
Rp182
sg71
g5
(g19
Ng13
tp183
Rp184
sg76
g5
(g19
Ng13
tp185
Rp186
sg82
g5
(g19
Ng13
tp187
Rp188
sg87
g5
(g19
Ng13
tp189
Rp190
sg92
g5
(g19
Ng13
tp191
Rp192
sg97
g5
(g19
Ng13
tp193
Rp194
sg102
g5
(g19
Ng13
tp195
Rp196
sg107
g5
(g19
Ng13
tp197
Rp198
sg24
g5
(g19
Ng13
tp199
Rp200
sg114
g5
(g19
Ng13
tp201
Rp202
sg119
g5
(g19
Ng13
tp203
Rp204
sg124
g5
(g19
Ng13
tp205
Rp206
sg129
g5
(g19
Ng13
tp207
Rp208
sg134
g5
(g19
Ng13
tp209
Rp210
sg139
g5
(g19
Ng13
tp211
Rp212
sg144
g5
(g19
Ng13
tp213
Rp214
sg149
g5
(g19
Ng13
tp215
Rp216
sg154
g5
(g19
Ng13
tp217
Rp218
ssS'dbbmap'
p219
(dp220
sS'successfullynn'
p221
(dp222
sS'operator<<'
p223
(dp224
sS'Progressn'
p225
(dp226
sS'ffi'
p227
(dp228
sS'fsys'
p229
(dp230
sS'gcount'
p231
(dp232
sS'ofstream'
p233
(dp234
sS'pointer'
p235
(dp236
g31
g5
(g19
Ng13
tp237
Rp238
sg36
g5
(g19
Ng13
tp239
Rp240
sg42
g5
(g19
Ng13
tp241
Rp242
sg18
g5
(g19
Ng13
tp243
Rp244
sg49
g5
(g19
Ng13
tp245
Rp246
sg54
g5
(g19
Ng13
tp247
Rp248
sg59
g5
(g19
Ng13
tp249
Rp250
sg64
g5
(g19
Ng13
tp251
Rp252
sg8
g5
(g19
Ng13
tp253
Rp254
sg71
g5
(g19
Ng13
tp255
Rp256
sg76
g5
(g19
Ng13
tp257
Rp258
sg82
g5
(g19
Ng13
tp259
Rp260
sg87
g5
(g19
Ng13
tp261
Rp262
sg92
g5
(g19
Ng13
tp263
Rp264
sg97
g5
(g19
Ng13
tp265
Rp266
sg102
g5
(g19
Ng13
tp267
Rp268
sg107
g5
(g19
Ng13
tp269
Rp270
sg24
g5
(g19
Ng13
tp271
Rp272
sg114
g5
(g19
Ng13
tp273
Rp274
sg119
g5
(g19
Ng13
tp275
Rp276
sg124
g5
(g19
Ng13
tp277
Rp278
sg129
g5
(g19
Ng13
tp279
Rp280
sg134
g5
(g19
Ng13
tp281
Rp282
sg139
g5
(g19
Ng13
tp283
Rp284
sg144
g5
(g19
Ng13
tp285
Rp286
sg149
g5
(g19
Ng13
tp287
Rp288
sg154
g5
(g19
Ng13
tp289
Rp290
ssS'find'
p291
(dp292
g31
g5
(g19
Ng13
tp293
Rp294
sg36
g5
(g19
Ng13
tp295
Rp296
sg42
g5
(g19
Ng13
tp297
Rp298
sg18
g5
(V2
p299
Ng13
tp300
Rp301
sg49
g5
(g19
Ng13
tp302
Rp303
sg54
g5
(g19
Ng13
tp304
Rp305
sg59
g5
(g19
Ng13
tp306
Rp307
sg64
g5
(g19
Ng13
tp308
Rp309
sg8
g5
(V17
p310
Ng13
tp311
Rp312
sg71
g5
(g19
Ng13
tp313
Rp314
sg76
g5
(g19
Ng13
tp315
Rp316
sg82
g5
(g299
Ng13
tp317
Rp318
sg87
g5
(g19
Ng13
tp319
Rp320
sg92
g5
(g19
Ng13
tp321
Rp322
sg97
g5
(g19
Ng13
tp323
Rp324
sg102
g5
(g19
Ng13
tp325
Rp326
sg107
g5
(g19
Ng13
tp327
Rp328
sg24
g5
(g19
Ng13
tp329
Rp330
sg114
g5
(g19
Ng13
tp331
Rp332
sg119
g5
(g19
Ng13
tp333
Rp334
sg124
g5
(g19
Ng13
tp335
Rp336
sg129
g5
(g19
Ng13
tp337
Rp338
sg134
g5
(g19
Ng13
tp339
Rp340
sg139
g5
(g19
Ng13
tp341
Rp342
sg144
g5
(g299
Ng13
tp343
Rp344
sg149
g5
(g19
Ng13
tp345
Rp346
sg154
g5
(g19
Ng13
tp347
Rp348
ssS'inibno'
p349
(dp350
sS'removed'
p351
(dp352
sS'struct'
p353
(dp354
g31
g5
(g299
Ng13
tp355
Rp356
sg36
g5
(g19
Ng13
tp357
Rp358
sg42
g5
(V9
p359
Ng13
tp360
Rp361
sg18
g5
(V4
p362
Ng13
tp363
Rp364
sg49
g5
(g19
Ng13
tp365
Rp366
sg54
g5
(g19
Ng13
tp367
Rp368
sg59
g5
(g19
Ng13
tp369
Rp370
sg64
g5
(V17
p371
Ng13
tp372
Rp373
sg8
g5
(V49
p374
Ng13
tp375
Rp376
sg71
g5
(g362
Ng13
tp377
Rp378
sg76
g5
(V375
p379
Ng13
tp380
Rp381
sg82
g5
(g19
Ng13
tp382
Rp383
sg107
g5
(g359
Ng13
tp384
Rp385
sg92
g5
(g19
Ng13
tp386
Rp387
sg97
g5
(V23
p388
Ng13
tp389
Rp390
sg102
g5
(V8
p391
Ng13
tp392
Rp393
sg87
g5
(g299
Ng13
tp394
Rp395
sg24
g5
(g19
Ng13
tp396
Rp397
sg114
g5
(g19
Ng13
tp398
Rp399
sg119
g5
(g19
Ng13
tp400
Rp401
sg124
g5
(V33
p402
Ng13
tp403
Rp404
sg129
g5
(g19
Ng13
tp405
Rp406
sg134
g5
(g19
Ng13
tp407
Rp408
sg139
g5
(g19
Ng13
tp409
Rp410
sg144
g5
(g359
Ng13
tp411
Rp412
sg149
g5
(g19
Ng13
tp413
Rp414
sg154
g5
(g37
Ng13
tp415
Rp416
ssS'located'
p417
(dp418
sS'Attempting'
p419
(dp420
sS'enno'
p421
(dp422
sS'creationn'
p423
(dp424
sS'writing'
p425
(dp426
g31
g5
(g19
Ng13
tp427
Rp428
sg36
g5
(g19
Ng13
tp429
Rp430
sg42
g5
(g19
Ng13
tp431
Rp432
sg18
g5
(g19
Ng13
tp433
Rp434
sg49
g5
(g19
Ng13
tp435
Rp436
sg54
g5
(g19
Ng13
tp437
Rp438
sg59
g5
(g19
Ng13
tp439
Rp440
sg64
g5
(g19
Ng13
tp441
Rp442
sg8
g5
(g19
Ng13
tp443
Rp444
sg71
g5
(g19
Ng13
tp445
Rp446
sg76
g5
(g19
Ng13
tp447
Rp448
sg82
g5
(g19
Ng13
tp449
Rp450
sg87
g5
(g19
Ng13
tp451
Rp452
sg92
g5
(g19
Ng13
tp453
Rp454
sg97
g5
(g19
Ng13
tp455
Rp456
sg102
g5
(g19
Ng13
tp457
Rp458
sg107
g5
(g19
Ng13
tp459
Rp460
sg24
g5
(g19
Ng13
tp461
Rp462
sg114
g5
(g19
Ng13
tp463
Rp464
sg119
g5
(g19
Ng13
tp465
Rp466
sg124
g5
(g19
Ng13
tp467
Rp468
sg129
g5
(g19
Ng13
tp469
Rp470
sg134
g5
(g19
Ng13
tp471
Rp472
sg139
g5
(g19
Ng13
tp473
Rp474
sg144
g5
(g19
Ng13
tp475
Rp476
sg149
g5
(g19
Ng13
tp477
Rp478
sg154
g5
(g19
Ng13
tp479
Rp480
ssS'tellg'
p481
(dp482
sS'init'
p483
(dp484
g97
g5
(g299
Ng13
tp485
Rp486
sg102
g5
(g19
Ng13
tp487
Rp488
sg129
g5
(g37
Ng13
tp489
Rp490
sg87
g5
(g37
Ng13
tp491
Rp492
sg8
g5
(V32
p493
Ng13
tp494
Rp495
sg144
g5
(g19
Ng13
tp496
Rp497
sg76
g5
(V34
p498
Ng13
tp499
Rp500
sg5
(Vintel_init.c
p501
NNtp502
Rp503
g5
(g19
Ng13
tp504
Rp505
sg82
g5
(g19
Ng13
tp506
Rp507
sg42
g5
(g299
Ng13
tp508
Rp509
sg107
g5
(g299
Ng13
tp510
Rp511
sg18
g5
(g299
Ng13
tp512
Rp513
ssS'ftype'
p514
(dp515
sS'bno'
p516
(dp517
sS'getpid'
p518
(dp519
sS'writen'
p520
(dp521
sS'usage'
p522
(dp523
g31
g5
(g19
Ng13
tp524
Rp525
sg36
g5
(g19
Ng13
tp526
Rp527
sg42
g5
(g19
Ng13
tp528
Rp529
sg18
g5
(g19
Ng13
tp530
Rp531
sg49
g5
(g19
Ng13
tp532
Rp533
sg54
g5
(g19
Ng13
tp534
Rp535
sg59
g5
(g19
Ng13
tp536
Rp537
sg64
g5
(g19
Ng13
tp538
Rp539
sg8
g5
(g19
Ng13
tp540
Rp541
sg71
g5
(g19
Ng13
tp542
Rp543
sg76
g5
(g19
Ng13
tp544
Rp545
sg82
g5
(g19
Ng13
tp546
Rp547
sg87
g5
(g19
Ng13
tp548
Rp549
sg92
g5
(g19
Ng13
tp550
Rp551
sg97
g5
(g19
Ng13
tp552
Rp553
sg102
g5
(g19
Ng13
tp554
Rp555
sg107
g5
(g19
Ng13
tp556
Rp557
sg24
g5
(g19
Ng13
tp558
Rp559
sg114
g5
(g19
Ng13
tp560
Rp561
sg119
g5
(g19
Ng13
tp562
Rp563
sg124
g5
(g19
Ng13
tp564
Rp565
sg129
g5
(g19
Ng13
tp566
Rp567
sg134
g5
(g19
Ng13
tp568
Rp569
sg139
g5
(g19
Ng13
tp570
Rp571
sg144
g5
(g19
Ng13
tp572
Rp573
sg149
g5
(g19
Ng13
tp574
Rp575
sg154
g5
(g19
Ng13
tp576
Rp577
ssS'dblist'
p578
(dp579
sS'sem2'
p580
(dp581
sS'Change'
p582
(dp583
sS'mydocs'
p584
(dp585
sS'int2char'
p586
(dp587
sS'inused'
p588
(dp589
sS'string'
p590
(dp591
g36
g5
(g19
Ng13
tp592
Rp593
sg107
g5
(g362
Ng13
tp594
Rp595
sg8
g5
(V80
p596
Ng13
tp597
Rp598
sg119
g5
(g299
Ng13
tp599
Rp600
sg82
g5
(g299
Ng13
tp601
Rp602
sg42
g5
(g19
Ng13
tp603
Rp604
sg18
g5
(V5
p605
Ng13
tp606
Rp607
ssS'read'
p608
(dp609
g31
g5
(g19
Ng13
tp610
Rp611
sg36
g5
(g605
Ng13
tp612
Rp613
sg503
g5
(V7
p614
Ng13
tp615
Rp616
sg42
g5
(V14
p617
Ng13
tp618
Rp619
sg18
g5
(V29
p620
Ng13
tp621
Rp622
sg49
g5
(g299
Ng13
tp623
Rp624
sg54
g5
(g19
Ng13
tp625
Rp626
sg59
g5
(V6
p627
Ng13
tp628
Rp629
sg64
g5
(g19
Ng13
tp630
Rp631
sg8
g5
(V449
p632
Ng13
tp633
Rp634
sg71
g5
(g19
Ng13
tp635
Rp636
sg76
g5
(V426
p637
Ng13
tp638
Rp639
sg82
g5
(g19
Ng13
tp640
Rp641
sg107
g5
(g299
Ng13
tp642
Rp643
sg92
g5
(g614
Ng13
tp644
Rp645
sg97
g5
(V26
p646
Ng13
tp647
Rp648
sg102
g5
(V46
p649
Ng13
tp650
Rp651
sg87
g5
(V10
p652
Ng13
tp653
Rp654
sg24
g5
(V11
p655
Ng13
tp656
Rp657
sg114
g5
(g19
Ng13
tp658
Rp659
sg119
g5
(g19
Ng13
tp660
Rp661
sg124
g5
(V145
p662
Ng13
tp663
Rp664
sg129
g5
(V27
p665
Ng13
tp666
Rp667
sg134
g5
(g19
Ng13
tp668
Rp669
sg139
g5
(g19
Ng13
tp670
Rp671
sg144
g5
(g19
Ng13
tp672
Rp673
sg149
g5
(g299
Ng13
tp674
Rp675
sg154
g5
(V10
p676
Ng13
tp677
Rp678
ssS'Bytes'
p679
(dp680
sS'Maximum'
p681
(dp682
sS'occuredn'
p683
(dp684
sS'newman'
p685
(dp686
sS'curinno'
p687
(dp688
sS'Bad'
p689
(dp690
sS'getinblock'
p691
(dp692
sS'Superblock'
p693
(dp694
sS'Filesystem'
p695
(dp696
sS'mutex1'
p697
(dp698
sS'memcpy'
p699
(dp700
g31
g5
(g19
Ng13
tp701
Rp702
sg36
g5
(g19
Ng13
tp703
Rp704
sg42
g5
(g19
Ng13
tp705
Rp706
sg18
g5
(g19
Ng13
tp707
Rp708
sg49
g5
(g19
Ng13
tp709
Rp710
sg54
g5
(g19
Ng13
tp711
Rp712
sg59
g5
(g19
Ng13
tp713
Rp714
sg64
g5
(g19
Ng13
tp715
Rp716
sg8
g5
(g19
Ng13
tp717
Rp718
sg71
g5
(g19
Ng13
tp719
Rp720
sg76
g5
(g19
Ng13
tp721
Rp722
sg82
g5
(g19
Ng13
tp723
Rp724
sg87
g5
(g19
Ng13
tp725
Rp726
sg92
g5
(g19
Ng13
tp727
Rp728
sg97
g5
(g19
Ng13
tp729
Rp730
sg102
g5
(g19
Ng13
tp731
Rp732
sg107
g5
(g19
Ng13
tp733
Rp734
sg24
g5
(g19
Ng13
tp735
Rp736
sg114
g5
(g19
Ng13
tp737
Rp738
sg119
g5
(g19
Ng13
tp739
Rp740
sg124
g5
(g19
Ng13
tp741
Rp742
sg129
g5
(g19
Ng13
tp743
Rp744
sg134
g5
(g19
Ng13
tp745
Rp746
sg139
g5
(g19
Ng13
tp747
Rp748
sg144
g5
(g19
Ng13
tp749
Rp750
sg149
g5
(g19
Ng13
tp751
Rp752
sg154
g5
(g19
Ng13
tp753
Rp754
ssS'%10d'
p755
(dp756
sS'permissions'
p757
(dp758
sS'Process'
p759
(dp760
sS'unsuccessfulnn'
p761
(dp762
sS'bar'
p763
(dp764
sS'ctime'
p765
(dp766
sS'Width'
p767
(dp768
sS'dname'
p769
(dp770
sS'chpwd'
p771
(dp772
sS'sstream'
p773
(dp774
sS'remove'
p775
(dp776
g31
g5
(g19
Ng13
tp777
Rp778
sg36
g5
(g19
Ng13
tp779
Rp780
sg42
g5
(g19
Ng13
tp781
Rp782
sg18
g5
(g19
Ng13
tp783
Rp784
sg49
g5
(g19
Ng13
tp785
Rp786
sg54
g5
(g19
Ng13
tp787
Rp788
sg59
g5
(g19
Ng13
tp789
Rp790
sg64
g5
(g19
Ng13
tp791
Rp792
sg8
g5
(g19
Ng13
tp793
Rp794
sg71
g5
(g19
Ng13
tp795
Rp796
sg76
g5
(g19
Ng13
tp797
Rp798
sg82
g5
(g19
Ng13
tp799
Rp800
sg87
g5
(g19
Ng13
tp801
Rp802
sg92
g5
(g19
Ng13
tp803
Rp804
sg97
g5
(g19
Ng13
tp805
Rp806
sg102
g5
(g19
Ng13
tp807
Rp808
sg107
g5
(g19
Ng13
tp809
Rp810
sg24
g5
(g19
Ng13
tp811
Rp812
sg114
g5
(g19
Ng13
tp813
Rp814
sg119
g5
(g19
Ng13
tp815
Rp816
sg124
g5
(g19
Ng13
tp817
Rp818
sg129
g5
(g19
Ng13
tp819
Rp820
sg134
g5
(g19
Ng13
tp821
Rp822
sg139
g5
(g19
Ng13
tp823
Rp824
sg144
g5
(g19
Ng13
tp825
Rp826
sg149
g5
(g19
Ng13
tp827
Rp828
sg154
g5
(g19
Ng13
tp829
Rp830
ssS'semaphoreh'
p831
(dp832
sS'newmd'
p833
(dp834
sS'vector'
p835
(dp836
sS'mode'
p837
(dp838
g31
g5
(g19
Ng13
tp839
Rp840
sg36
g5
(g299
Ng13
tp841
Rp842
sg42
g5
(g299
Ng13
tp843
Rp844
sg18
g5
(g19
Ng13
tp845
Rp846
sg49
g5
(g299
Ng13
tp847
Rp848
sg54
g5
(g19
Ng13
tp849
Rp850
sg59
g5
(g19
Ng13
tp851
Rp852
sg64
g5
(g19
Ng13
tp853
Rp854
sg8
g5
(g19
Ng13
tp855
Rp856
sg71
g5
(g19
Ng13
tp857
Rp858
sg76
g5
(V69
p859
Ng13
tp860
Rp861
sg82
g5
(g299
Ng13
tp862
Rp863
sg87
g5
(g627
Ng13
tp864
Rp865
sg92
g5
(g19
Ng13
tp866
Rp867
sg97
g5
(g605
Ng13
tp868
Rp869
sg102
g5
(g362
Ng13
tp870
Rp871
sg107
g5
(g299
Ng13
tp872
Rp873
sg24
g5
(g37
Ng13
tp874
Rp875
sg114
g5
(g19
Ng13
tp876
Rp877
sg119
g5
(g299
Ng13
tp878
Rp879
sg124
g5
(V33
p880
Ng13
tp881
Rp882
sg129
g5
(g299
Ng13
tp883
Rp884
sg134
g5
(g19
Ng13
tp885
Rp886
sg139
g5
(g299
Ng13
tp887
Rp888
sg144
g5
(g299
Ng13
tp889
Rp890
sg149
g5
(g19
Ng13
tp891
Rp892
sg154
g5
(g37
Ng13
tp893
Rp894
ssS'directoryn'
p895
(dp896
sS'kill'
p897
(dp898
sS'Displaying'
p899
(dp900
sS'strcmp'
p901
(dp902
g31
g5
(g19
Ng13
tp903
Rp904
sg36
g5
(g19
Ng13
tp905
Rp906
sg42
g5
(g19
Ng13
tp907
Rp908
sg18
g5
(g19
Ng13
tp909
Rp910
sg49
g5
(g19
Ng13
tp911
Rp912
sg54
g5
(g19
Ng13
tp913
Rp914
sg59
g5
(g19
Ng13
tp915
Rp916
sg64
g5
(g19
Ng13
tp917
Rp918
sg8
g5
(g19
Ng13
tp919
Rp920
sg71
g5
(g19
Ng13
tp921
Rp922
sg76
g5
(g19
Ng13
tp923
Rp924
sg82
g5
(g19
Ng13
tp925
Rp926
sg87
g5
(g19
Ng13
tp927
Rp928
sg92
g5
(g19
Ng13
tp929
Rp930
sg97
g5
(g19
Ng13
tp931
Rp932
sg102
g5
(g19
Ng13
tp933
Rp934
sg107
g5
(g19
Ng13
tp935
Rp936
sg24
g5
(g19
Ng13
tp937
Rp938
sg114
g5
(g19
Ng13
tp939
Rp940
sg119
g5
(g19
Ng13
tp941
Rp942
sg124
g5
(g19
Ng13
tp943
Rp944
sg129
g5
(g19
Ng13
tp945
Rp946
sg134
g5
(g19
Ng13
tp947
Rp948
sg139
g5
(g19
Ng13
tp949
Rp950
sg144
g5
(g19
Ng13
tp951
Rp952
sg149
g5
(g19
Ng13
tp953
Rp954
sg154
g5
(g19
Ng13
tp955
Rp956
ssS'force'
p957
(dp958
sS'moden'
p959
(dp960
sS'dump'
p961
(dp962
sS'pc2myfs'
p963
(dp964
sS'initiatednn'
p965
(dp966
sS'Create'
p967
(dp968
sS'maxin'
p969
(dp970
sS'past'
p971
(dp972
sS'Source'
p973
(dp974
sS'unlock'
p975
(dp976
sS'filesysh'
p977
(dp978
sS'lastrd'
p979
(dp980
sS'yourselfnn'
p981
(dp982
sS'thread1'
p983
(dp984
sS'flush'
p985
(dp986
g129
g5
(g19
Ng13
tp987
Rp988
sg97
g5
(g362
Ng13
tp989
Rp990
sg59
g5
(g19
Ng13
tp991
Rp992
sg8
g5
(V64
p993
Ng13
tp994
Rp995
sg144
g5
(g627
Ng13
tp996
Rp997
sg76
g5
(V68
p998
Ng13
tp999
Rp1000
sg124
g5
(V64
p1001
Ng13
tp1002
Rp1003
sg82
g5
(g362
Ng13
tp1004
Rp1005
sg149
g5
(g605
Ng13
tp1006
Rp1007
sg154
g5
(g362
Ng13
tp1008
Rp1009
sg18
g5
(g362
Ng13
tp1010
Rp1011
ssS'inno'
p1012
(dp1013
sS'Attempt'
p1014
(dp1015
sS'operation'
p1016
(dp1017
sS'existn'
p1018
(dp1019
sS'successfulnn'
p1020
(dp1021
sS'inbmap'
p1022
(dp1023
sS'opened'
p1024
(dp1025
sS'Deleted'
p1026
(dp1027
sS'MBnn'
p1028
(dp1029
sS'seekg'
p1030
(dp1031
sS'access'
p1032
(dp1033
g97
g5
(g19
Ng13
tp1034
Rp1035
sg107
g5
(g19
Ng13
tp1036
Rp1037
sg76
g5
(V17
p1038
Ng13
tp1039
Rp1040
sg42
g5
(g19
Ng13
tp1041
Rp1042
ssS'cassert'
p1043
(dp1044
sS'mutex'
p1045
(dp1046
sS'sprintf'
p1047
(dp1048
sS'closed'
p1049
(dp1050
sS'initiatedn'
p1051
(dp1052
sS'print'
p1053
(dp1054
sS'progress'
p1055
(dp1056
sS'Trying'
p1057
(dp1058
sS'reachedn'
p1059
(dp1060
sS'failednn'
p1061
(dp1062
sS'locate'
p1063
(dp1064
sS'fpar'
p1065
(dp1066
sS'iostream'
p1067
(dp1068
sS'createdn'
p1069
(dp1070
sS'opening'
p1071
(dp1072
sS'opertaion'
p1073
(dp1074
sS'Youre'
p1075
(dp1076
sS'argv'
p1077
(dp1078
g42
g5
(g19
Ng13
tp1079
Rp1080
ssS'pthreadh'
p1081
(dp1082
sS'Directory'
p1083
(dp1084
sS'argc'
p1085
(dp1086
g42
g5
(g19
Ng13
tp1087
Rp1088
ssS'change'
p1089
(dp1090
g31
g5
(g19
Ng13
tp1091
Rp1092
sg36
g5
(g19
Ng13
tp1093
Rp1094
sg42
g5
(g19
Ng13
tp1095
Rp1096
sg18
g5
(g19
Ng13
tp1097
Rp1098
sg49
g5
(g19
Ng13
tp1099
Rp1100
sg54
g5
(g19
Ng13
tp1101
Rp1102
sg59
g5
(g19
Ng13
tp1103
Rp1104
sg64
g5
(g19
Ng13
tp1105
Rp1106
sg8
g5
(g19
Ng13
tp1107
Rp1108
sg71
g5
(g19
Ng13
tp1109
Rp1110
sg76
g5
(g19
Ng13
tp1111
Rp1112
sg82
g5
(g19
Ng13
tp1113
Rp1114
sg87
g5
(g19
Ng13
tp1115
Rp1116
sg92
g5
(g19
Ng13
tp1117
Rp1118
sg97
g5
(g19
Ng13
tp1119
Rp1120
sg102
g5
(g299
Ng13
tp1121
Rp1122
sg107
g5
(g19
Ng13
tp1123
Rp1124
sg24
g5
(g19
Ng13
tp1125
Rp1126
sg114
g5
(g19
Ng13
tp1127
Rp1128
sg119
g5
(g19
Ng13
tp1129
Rp1130
sg124
g5
(g19
Ng13
tp1131
Rp1132
sg129
g5
(g19
Ng13
tp1133
Rp1134
sg134
g5
(g19
Ng13
tp1135
Rp1136
sg139
g5
(g19
Ng13
tp1137
Rp1138
sg144
g5
(g19
Ng13
tp1139
Rp1140
sg149
g5
(g19
Ng13
tp1141
Rp1142
sg154
g5
(g19
Ng13
tp1143
Rp1144
ssS'Delete'
p1145
(dp1146
sS'createdir'
p1147
(dp1148
sS'src'
p1149
(dp1150
sS'search'
p1151
(dp1152
sS'ifstream'
p1153
(dp1154
sS'newpwd'
p1155
(dp1156
sS'Dump'
p1157
(dp1158
sS'mypapers'
p1159
(dp1160
sS'changed'
p1161
(dp1162
g31
g5
(g19
Ng13
tp1163
Rp1164
sg36
g5
(g19
Ng13
tp1165
Rp1166
sg42
g5
(g19
Ng13
tp1167
Rp1168
sg18
g5
(g19
Ng13
tp1169
Rp1170
sg49
g5
(g19
Ng13
tp1171
Rp1172
sg54
g5
(g19
Ng13
tp1173
Rp1174
sg59
g5
(g19
Ng13
tp1175
Rp1176
sg64
g5
(g19
Ng13
tp1177
Rp1178
sg8
g5
(g19
Ng13
tp1179
Rp1180
sg71
g5
(g19
Ng13
tp1181
Rp1182
sg76
g5
(g19
Ng13
tp1183
Rp1184
sg82
g5
(g19
Ng13
tp1185
Rp1186
sg87
g5
(g19
Ng13
tp1187
Rp1188
sg92
g5
(g19
Ng13
tp1189
Rp1190
sg97
g5
(g19
Ng13
tp1191
Rp1192
sg102
g5
(g19
Ng13
tp1193
Rp1194
sg107
g5
(g19
Ng13
tp1195
Rp1196
sg24
g5
(g19
Ng13
tp1197
Rp1198
sg114
g5
(g19
Ng13
tp1199
Rp1200
sg119
g5
(g19
Ng13
tp1201
Rp1202
sg124
g5
(g19
Ng13
tp1203
Rp1204
sg129
g5
(g19
Ng13
tp1205
Rp1206
sg134
g5
(g19
Ng13
tp1207
Rp1208
sg139
g5
(g19
Ng13
tp1209
Rp1210
sg144
g5
(g19
Ng13
tp1211
Rp1212
sg149
g5
(g19
Ng13
tp1213
Rp1214
sg154
g5
(g19
Ng13
tp1215
Rp1216
ssS'showfile'
p1217
(dp1218
sS'properlyn'
p1219
(dp1220
sS'data'
p1221
(dp1222
g31
g5
(g19
Ng13
tp1223
Rp1224
sg36
g5
(g37
Ng13
tp1225
Rp1226
sg42
g5
(V10
p1227
Ng13
tp1228
Rp1229
sg18
g5
(V14
p1230
Ng13
tp1231
Rp1232
sg49
g5
(g19
Ng13
tp1233
Rp1234
sg54
g5
(g19
Ng13
tp1235
Rp1236
sg59
g5
(g391
Ng13
tp1237
Rp1238
sg64
g5
(g19
Ng13
tp1239
Rp1240
sg8
g5
(V209
p1241
Ng13
tp1242
Rp1243
sg71
g5
(g19
Ng13
tp1244
Rp1245
sg76
g5
(V188
p1246
Ng13
tp1247
Rp1248
sg82
g5
(V12
p1249
Ng13
tp1250
Rp1251
sg107
g5
(g362
Ng13
tp1252
Rp1253
sg92
g5
(g19
Ng13
tp1254
Rp1255
sg97
g5
(V12
p1256
Ng13
tp1257
Rp1258
sg102
g5
(g627
Ng13
tp1259
Rp1260
sg87
g5
(g19
Ng13
tp1261
Rp1262
sg24
g5
(g627
Ng13
tp1263
Rp1264
sg114
g5
(g19
Ng13
tp1265
Rp1266
sg119
g5
(g19
Ng13
tp1267
Rp1268
sg124
g5
(V33
p1269
Ng13
tp1270
Rp1271
sg129
g5
(g627
Ng13
tp1272
Rp1273
sg134
g5
(g19
Ng13
tp1274
Rp1275
sg139
g5
(g19
Ng13
tp1276
Rp1277
sg144
g5
(g37
Ng13
tp1278
Rp1279
sg149
g5
(g391
Ng13
tp1280
Rp1281
sg154
g5
(g37
Ng13
tp1282
Rp1283
ssS'superbl'
p1284
(dp1285
sS'inlist'
p1286
(dp1287
g36
g5
(g19
Ng13
tp1288
Rp1289
ssS'block'
p1290
(dp1291
sS'Mode'
p1292
(dp1293
sS'sindbl'
p1294
(dp1295
sS'signalh'
p1296
(dp1297
sS'restoredn'
p1298
(dp1299
sS'Working'
p1300
(dp1301
sS'resetn'
p1302
(dp1303
sS'Errno'
p1304
(dp1305
sS'Please'
p1306
(dp1307
sS'pos'
p1308
(dp1309
g8
g5
(V16
p1310
Ng13
tp1311
Rp1312
sg42
g5
(g19
Ng13
tp1313
Rp1314
sg107
g5
(g37
Ng13
tp1315
Rp1316
sg119
g5
(g299
Ng13
tp1317
Rp1318
sg18
g5
(g19
Ng13
tp1319
Rp1320
ssS'chmod'
p1321
(dp1322
sS'getting'
p1323
(dp1324
sS'bytesn'
p1325
(dp1326
g31
g5
(g19
Ng13
tp1327
Rp1328
sg36
g5
(g19
Ng13
tp1329
Rp1330
sg42
g5
(g19
Ng13
tp1331
Rp1332
sg18
g5
(g19
Ng13
tp1333
Rp1334
sg49
g5
(g19
Ng13
tp1335
Rp1336
sg54
g5
(g19
Ng13
tp1337
Rp1338
sg59
g5
(g19
Ng13
tp1339
Rp1340
sg64
g5
(g19
Ng13
tp1341
Rp1342
sg8
g5
(g19
Ng13
tp1343
Rp1344
sg71
g5
(g19
Ng13
tp1345
Rp1346
sg76
g5
(g19
Ng13
tp1347
Rp1348
sg82
g5
(g19
Ng13
tp1349
Rp1350
sg87
g5
(g19
Ng13
tp1351
Rp1352
sg92
g5
(g19
Ng13
tp1353
Rp1354
sg97
g5
(g19
Ng13
tp1355
Rp1356
sg102
g5
(g19
Ng13
tp1357
Rp1358
sg107
g5
(g19
Ng13
tp1359
Rp1360
sg24
g5
(g19
Ng13
tp1361
Rp1362
sg114
g5
(g19
Ng13
tp1363
Rp1364
sg119
g5
(g19
Ng13
tp1365
Rp1366
sg124
g5
(g19
Ng13
tp1367
Rp1368
sg129
g5
(g19
Ng13
tp1369
Rp1370
sg134
g5
(g19
Ng13
tp1371
Rp1372
sg139
g5
(g19
Ng13
tp1373
Rp1374
sg144
g5
(g19
Ng13
tp1375
Rp1376
sg149
g5
(g19
Ng13
tp1377
Rp1378
sg154
g5
(g19
Ng13
tp1379
Rp1380
ssS'operator-'
p1381
(dp1382
sS'operator'
p1383
(dp1384
sS'table'
p1385
(dp1386
g31
g5
(g19
Ng13
tp1387
Rp1388
sg36
g5
(g19
Ng13
tp1389
Rp1390
sg42
g5
(g19
Ng13
tp1391
Rp1392
sg18
g5
(g605
Ng13
tp1393
Rp1394
sg49
g5
(g19
Ng13
tp1395
Rp1396
sg54
g5
(g19
Ng13
tp1397
Rp1398
sg59
g5
(g19
Ng13
tp1399
Rp1400
sg64
g5
(g19
Ng13
tp1401
Rp1402
sg8
g5
(V65
p1403
Ng13
tp1404
Rp1405
sg71
g5
(g19
Ng13
tp1406
Rp1407
sg76
g5
(g19
Ng13
tp1408
Rp1409
sg82
g5
(g19
Ng13
tp1410
Rp1411
sg87
g5
(g359
Ng13
tp1412
Rp1413
sg92
g5
(g19
Ng13
tp1414
Rp1415
sg97
g5
(g19
Ng13
tp1416
Rp1417
sg102
g5
(g37
Ng13
tp1418
Rp1419
sg107
g5
(V14
p1420
Ng13
tp1421
Rp1422
sg24
g5
(g19
Ng13
tp1423
Rp1424
sg114
g5
(g19
Ng13
tp1425
Rp1426
sg119
g5
(g19
Ng13
tp1427
Rp1428
sg124
g5
(V33
p1429
Ng13
tp1430
Rp1431
sg129
g5
(g299
Ng13
tp1432
Rp1433
sg134
g5
(g19
Ng13
tp1434
Rp1435
sg139
g5
(g299
Ng13
tp1436
Rp1437
sg144
g5
(g19
Ng13
tp1438
Rp1439
sg149
g5
(g19
Ng13
tp1440
Rp1441
sg154
g5
(g37
Ng13
tp1442
Rp1443
ssS'accp'
p1444
(dp1445
sS'size'
p1446
(dp1447
g31
g5
(g19
Ng13
tp1448
Rp1449
sg36
g5
(g614
Ng13
tp1450
Rp1451
sg42
g5
(g299
Ng13
tp1452
Rp1453
sg18
g5
(V12
p1454
Ng13
tp1455
Rp1456
sg49
g5
(g605
Ng13
tp1457
Rp1458
sg54
g5
(V69
p1459
Ng13
tp1460
Rp1461
sg59
g5
(g19
Ng13
tp1462
Rp1463
sg64
g5
(g19
Ng13
tp1464
Rp1465
sg8
g5
(V177
p1466
Ng13
tp1467
Rp1468
sg71
g5
(V10
p1469
Ng13
tp1470
Rp1471
sg76
g5
(V222
p1472
Ng13
tp1473
Rp1474
sg82
g5
(V15
p1475
Ng13
tp1476
Rp1477
sg87
g5
(g299
Ng13
tp1478
Rp1479
sg92
g5
(g19
Ng13
tp1480
Rp1481
sg97
g5
(V14
p1482
Ng13
tp1483
Rp1484
sg102
g5
(g391
Ng13
tp1485
Rp1486
sg107
g5
(V10
p1487
Ng13
tp1488
Rp1489
sg24
g5
(V12
p1490
Ng13
tp1491
Rp1492
sg114
g5
(g605
Ng13
tp1493
Rp1494
sg119
g5
(g605
Ng13
tp1495
Rp1496
sg124
g5
(V161
p1497
Ng13
tp1498
Rp1499
sg129
g5
(V17
p1500
Ng13
tp1501
Rp1502
sg134
g5
(g19
Ng13
tp1503
Rp1504
sg139
g5
(g19
Ng13
tp1505
Rp1506
sg144
g5
(g627
Ng13
tp1507
Rp1508
sg149
g5
(g19
Ng13
tp1509
Rp1510
sg154
g5
(V11
p1511
Ng13
tp1512
Rp1513
ssS'freeblock'
p1514
(dp1515
sS'loc'
p1516
(dp1517
g139
g5
(g299
Ng13
tp1518
Rp1519
ssS'haltednn'
p1520
(dp1521
sS'occured'
p1522
(dp1523
sS'snprintf'
p1524
(dp1525
sS'Copy'
p1526
(dp1527
sS'fstream'
p1528
(dp1529
sS'create'
p1530
(dp1531
g97
g5
(g605
Ng13
tp1532
Rp1533
sg102
g5
(g605
Ng13
tp1534
Rp1535
sg107
g5
(g362
Ng13
tp1536
Rp1537
sg8
g5
(V16
p1538
Ng13
tp1539
Rp1540
sg144
g5
(g362
Ng13
tp1541
Rp1542
sg76
g5
(V85
p1543
Ng13
tp1544
Rp1545
sg42
g5
(g37
Ng13
tp1546
Rp1547
sg18
g5
(g19
Ng13
tp1548
Rp1549
ssS'cstring'
p1550
(dp1551
sS'mkdir'
p1552
(dp1553
sS'system'
p1554
(dp1555
g31
g5
(g19
Ng13
tp1556
Rp1557
sg36
g5
(g19
Ng13
tp1558
Rp1559
sg42
g5
(g19
Ng13
tp1560
Rp1561
sg18
g5
(g19
Ng13
tp1562
Rp1563
sg49
g5
(g19
Ng13
tp1564
Rp1565
sg54
g5
(g19
Ng13
tp1566
Rp1567
sg59
g5
(g19
Ng13
tp1568
Rp1569
sg64
g5
(g19
Ng13
tp1570
Rp1571
sg8
g5
(g19
Ng13
tp1572
Rp1573
sg71
g5
(g19
Ng13
tp1574
Rp1575
sg76
g5
(g19
Ng13
tp1576
Rp1577
sg82
g5
(g19
Ng13
tp1578
Rp1579
sg87
g5
(g19
Ng13
tp1580
Rp1581
sg92
g5
(g19
Ng13
tp1582
Rp1583
sg97
g5
(g19
Ng13
tp1584
Rp1585
sg102
g5
(g19
Ng13
tp1586
Rp1587
sg107
g5
(g19
Ng13
tp1588
Rp1589
sg24
g5
(g19
Ng13
tp1590
Rp1591
sg114
g5
(g19
Ng13
tp1592
Rp1593
sg119
g5
(g19
Ng13
tp1594
Rp1595
sg124
g5
(g19
Ng13
tp1596
Rp1597
sg129
g5
(g19
Ng13
tp1598
Rp1599
sg134
g5
(g19
Ng13
tp1600
Rp1601
sg139
g5
(g19
Ng13
tp1602
Rp1603
sg144
g5
(g19
Ng13
tp1604
Rp1605
sg149
g5
(g19
Ng13
tp1606
Rp1607
sg154
g5
(g19
Ng13
tp1608
Rp1609
ssS'name'
p1610
(dp1611
g129
g5
(g627
Ng13
tp1612
Rp1613
sg102
g5
(g362
Ng13
tp1614
Rp1615
sg36
g5
(g605
Ng13
tp1616
Rp1617
sg97
g5
(g391
Ng13
tp1618
Rp1619
sg49
g5
(g37
Ng13
tp1620
Rp1621
sg107
g5
(V13
p1622
Ng13
tp1623
Rp1624
sg64
g5
(V16
p1625
Ng13
tp1626
Rp1627
sg24
g5
(g37
Ng13
tp1628
Rp1629
sg8
g5
(V144
p1630
Ng13
tp1631
Rp1632
sg144
g5
(g37
Ng13
tp1633
Rp1634
sg76
g5
(V136
p1635
Ng13
tp1636
Rp1637
sg31
g5
(g19
Ng13
tp1638
Rp1639
sg119
g5
(g37
Ng13
tp1640
Rp1641
sg124
g5
(V16
p1642
Ng13
tp1643
Rp1644
sg82
g5
(V10
p1645
Ng13
tp1646
Rp1647
sg42
g5
(g362
Ng13
tp1648
Rp1649
sg154
g5
(g19
Ng13
tp1650
Rp1651
sg18
g5
(g359
Ng13
tp1652
Rp1653
ssS'abortednn'
p1654
(dp1655
sS'addblock'
p1656
(dp1657
sS'locatedn'
p1658
(dp1659
sS'rmdir'
p1660
(dp1661
sS'addentry'
p1662
(dp1663
sS'copied'
p1664
(dp1665
sS'wait'
p1666
(dp1667
sS'Data'
p1668
(dp1669
sS'copyingn'
p1670
(dp1671
sS'files'
p1672
(dp1673
g31
g5
(g19
Ng13
tp1674
Rp1675
sg36
g5
(g19
Ng13
tp1676
Rp1677
sg42
g5
(g19
Ng13
tp1678
Rp1679
sg18
g5
(g19
Ng13
tp1680
Rp1681
sg49
g5
(g19
Ng13
tp1682
Rp1683
sg54
g5
(g19
Ng13
tp1684
Rp1685
sg59
g5
(g19
Ng13
tp1686
Rp1687
sg64
g5
(g19
Ng13
tp1688
Rp1689
sg8
g5
(g19
Ng13
tp1690
Rp1691
sg71
g5
(g19
Ng13
tp1692
Rp1693
sg76
g5
(g19
Ng13
tp1694
Rp1695
sg82
g5
(g19
Ng13
tp1696
Rp1697
sg87
g5
(g19
Ng13
tp1698
Rp1699
sg92
g5
(g19
Ng13
tp1700
Rp1701
sg97
g5
(g19
Ng13
tp1702
Rp1703
sg102
g5
(g19
Ng13
tp1704
Rp1705
sg107
g5
(g19
Ng13
tp1706
Rp1707
sg24
g5
(g19
Ng13
tp1708
Rp1709
sg114
g5
(g19
Ng13
tp1710
Rp1711
sg119
g5
(g19
Ng13
tp1712
Rp1713
sg124
g5
(g19
Ng13
tp1714
Rp1715
sg129
g5
(g19
Ng13
tp1716
Rp1717
sg134
g5
(g19
Ng13
tp1718
Rp1719
sg139
g5
(g19
Ng13
tp1720
Rp1721
sg144
g5
(g19
Ng13
tp1722
Rp1723
sg149
g5
(g19
Ng13
tp1724
Rp1725
sg154
g5
(g19
Ng13
tp1726
Rp1727
ssS'structuresh'
p1728
(dp1729
sS'Display'
p1730
(dp1731
sS'operator|'
p1732
(dp1733
sS'sessions'
p1734
(dp1735
sS'dumpfile'
p1736
(dp1737
sS'fpos'
p1738
(dp1739
sS'bytes'
p1740
(dp1741
g31
g5
(g19
Ng13
tp1742
Rp1743
sg36
g5
(g19
Ng13
tp1744
Rp1745
sg42
g5
(g19
Ng13
tp1746
Rp1747
sg18
g5
(g19
Ng13
tp1748
Rp1749
sg49
g5
(g19
Ng13
tp1750
Rp1751
sg54
g5
(g19
Ng13
tp1752
Rp1753
sg59
g5
(g19
Ng13
tp1754
Rp1755
sg64
g5
(g19
Ng13
tp1756
Rp1757
sg8
g5
(g19
Ng13
tp1758
Rp1759
sg71
g5
(g19
Ng13
tp1760
Rp1761
sg76
g5
(V52
p1762
Ng13
tp1763
Rp1764
sg82
g5
(V13
p1765
Ng13
tp1766
Rp1767
sg107
g5
(g605
Ng13
tp1768
Rp1769
sg92
g5
(g19
Ng13
tp1770
Rp1771
sg97
g5
(g362
Ng13
tp1772
Rp1773
sg102
g5
(g614
Ng13
tp1774
Rp1775
sg87
g5
(g19
Ng13
tp1776
Rp1777
sg24
g5
(g299
Ng13
tp1778
Rp1779
sg114
g5
(g19
Ng13
tp1780
Rp1781
sg119
g5
(g19
Ng13
tp1782
Rp1783
sg124
g5
(V17
p1784
Ng13
tp1785
Rp1786
sg129
g5
(g391
Ng13
tp1787
Rp1788
sg134
g5
(g299
Ng13
tp1789
Rp1790
sg139
g5
(g19
Ng13
tp1791
Rp1792
sg144
g5
(g391
Ng13
tp1793
Rp1794
sg149
g5
(g19
Ng13
tp1795
Rp1796
sg154
g5
(g299
Ng13
tp1797
Rp1798
ssS'statusnn'
p1799
(dp1800
sS'descriptorn'
p1801
(dp1802
sS'Error'
p1803
(dp1804
g31
g5
(g19
Ng13
tp1805
Rp1806
sg36
g5
(g19
Ng13
tp1807
Rp1808
sg42
g5
(g19
Ng13
tp1809
Rp1810
sg18
g5
(g19
Ng13
tp1811
Rp1812
sg49
g5
(g19
Ng13
tp1813
Rp1814
sg54
g5
(g19
Ng13
tp1815
Rp1816
sg59
g5
(g19
Ng13
tp1817
Rp1818
sg64
g5
(g19
Ng13
tp1819
Rp1820
sg8
g5
(g19
Ng13
tp1821
Rp1822
sg71
g5
(g19
Ng13
tp1823
Rp1824
sg76
g5
(g19
Ng13
tp1825
Rp1826
sg82
g5
(g19
Ng13
tp1827
Rp1828
sg87
g5
(g19
Ng13
tp1829
Rp1830
sg92
g5
(g19
Ng13
tp1831
Rp1832
sg97
g5
(g19
Ng13
tp1833
Rp1834
sg102
g5
(g19
Ng13
tp1835
Rp1836
sg107
g5
(g19
Ng13
tp1837
Rp1838
sg24
g5
(g19
Ng13
tp1839
Rp1840
sg114
g5
(g19
Ng13
tp1841
Rp1842
sg119
g5
(g19
Ng13
tp1843
Rp1844
sg124
g5
(g19
Ng13
tp1845
Rp1846
sg129
g5
(g19
Ng13
tp1847
Rp1848
sg134
g5
(g19
Ng13
tp1849
Rp1850
sg139
g5
(g19
Ng13
tp1851
Rp1852
sg144
g5
(g19
Ng13
tp1853
Rp1854
sg149
g5
(g19
Ng13
tp1855
Rp1856
sg154
g5
(g19
Ng13
tp1857
Rp1858
ssS'getinode'
p1859
(dp1860
sS'copy'
p1861
(dp1862
g129
g5
(g19
Ng13
tp1863
Rp1864
ssS'filen'
p1865
(dp1866
g31
g5
(g19
Ng13
tp1867
Rp1868
sg36
g5
(g19
Ng13
tp1869
Rp1870
sg42
g5
(g19
Ng13
tp1871
Rp1872
sg18
g5
(g19
Ng13
tp1873
Rp1874
sg49
g5
(g19
Ng13
tp1875
Rp1876
sg54
g5
(g19
Ng13
tp1877
Rp1878
sg59
g5
(g19
Ng13
tp1879
Rp1880
sg64
g5
(g19
Ng13
tp1881
Rp1882
sg8
g5
(g19
Ng13
tp1883
Rp1884
sg71
g5
(g19
Ng13
tp1885
Rp1886
sg76
g5
(g19
Ng13
tp1887
Rp1888
sg82
g5
(g19
Ng13
tp1889
Rp1890
sg87
g5
(g19
Ng13
tp1891
Rp1892
sg92
g5
(g19
Ng13
tp1893
Rp1894
sg97
g5
(g19
Ng13
tp1895
Rp1896
sg102
g5
(g19
Ng13
tp1897
Rp1898
sg107
g5
(g19
Ng13
tp1899
Rp1900
sg24
g5
(g19
Ng13
tp1901
Rp1902
sg114
g5
(g19
Ng13
tp1903
Rp1904
sg119
g5
(g19
Ng13
tp1905
Rp1906
sg124
g5
(g19
Ng13
tp1907
Rp1908
sg129
g5
(g19
Ng13
tp1909
Rp1910
sg134
g5
(g19
Ng13
tp1911
Rp1912
sg139
g5
(g19
Ng13
tp1913
Rp1914
sg144
g5
(g19
Ng13
tp1915
Rp1916
sg149
g5
(g19
Ng13
tp1917
Rp1918
sg154
g5
(g19
Ng13
tp1919
Rp1920
ssS'maxfs'
p1921
(dp1922
sS'eof'
p1923
(dp1924
sS'std'
p1925
(dp1926
sS'replacer'
p1927
(dp1928
sS'chdir'
p1929
(dp1930
sS'join'
p1931
(dp1932
sS'dbno'
p1933
(dp1934
sS'spused'
p1935
(dp1936
sS'fdentry'
p1937
(dp1938
sS'created'
p1939
(dp1940
sS'lno'
p1941
(dp1942
sS'emptyn'
p1943
(dp1944
sS'descriptor'
p1945
(dp1946
sS'del'
p1947
(dp1948
sS'sem1'
p1949
(dp1950
sS'str'
p1951
(dp1952
g119
g5
(g19
Ng13
tp1953
Rp1954
ssS'Open'
p1955
(dp1956
sS'display'
p1957
(dp1958
g129
g5
(g299
Ng13
tp1959
Rp1960
sg102
g5
(V16
p1961
Ng13
tp1962
Rp1963
sg97
g5
(g299
Ng13
tp1964
Rp1965
sg8
g5
(V16
p1966
Ng13
tp1967
Rp1968
sg144
g5
(g391
Ng13
tp1969
Rp1970
sg76
g5
(V34
p1971
Ng13
tp1972
Rp1973
sg18
g5
(g19
Ng13
tp1974
Rp1975
ssS'delete'
p1976
(dp1977
sS'Destination'
p1978
(dp1979
sS'filesys'
p1980
(dp1981
sS'freeinode'
p1982
(dp1983
sS'process'
p1984
(dp1985
g31
g5
(g19
Ng13
tp1986
Rp1987
sg36
g5
(g19
Ng13
tp1988
Rp1989
sg42
g5
(g19
Ng13
tp1990
Rp1991
sg18
g5
(g362
Ng13
tp1992
Rp1993
sg49
g5
(g19
Ng13
tp1994
Rp1995
sg54
g5
(g19
Ng13
tp1996
Rp1997
sg59
g5
(g19
Ng13
tp1998
Rp1999
sg64
g5
(g19
Ng13
tp2000
Rp2001
sg8
g5
(V49
p2002
Ng13
tp2003
Rp2004
sg71
g5
(g19
Ng13
tp2005
Rp2006
sg76
g5
(V52
p2007
Ng13
tp2008
Rp2009
sg82
g5
(g19
Ng13
tp2010
Rp2011
sg87
g5
(g19
Ng13
tp2012
Rp2013
sg92
g5
(g19
Ng13
tp2014
Rp2015
sg97
g5
(g362
Ng13
tp2016
Rp2017
sg102
g5
(g299
Ng13
tp2018
Rp2019
sg107
g5
(g19
Ng13
tp2020
Rp2021
sg24
g5
(g391
Ng13
tp2022
Rp2023
sg114
g5
(g19
Ng13
tp2024
Rp2025
sg119
g5
(g19
Ng13
tp2026
Rp2027
sg124
g5
(V17
p2028
Ng13
tp2029
Rp2030
sg129
g5
(g19
Ng13
tp2031
Rp2032
sg134
g5
(g19
Ng13
tp2033
Rp2034
sg139
g5
(g19
Ng13
tp2035
Rp2036
sg144
g5
(g19
Ng13
tp2037
Rp2038
sg149
g5
(g19
Ng13
tp2039
Rp2040
sg154
g5
(g299
Ng13
tp2041
Rp2042
ssS'lock'
p2043
(dp2044
sS'dumped'
p2045
(dp2046
sS'dumpedn'
p2047
(dp2048
sS'readn'
p2049
(dp2050
sS'Write'
p2051
(dp2052
g31
g5
(g19
Ng13
tp2053
Rp2054
sg36
g5
(g19
Ng13
tp2055
Rp2056
sg42
g5
(g19
Ng13
tp2057
Rp2058
sg18
g5
(g19
Ng13
tp2059
Rp2060
sg49
g5
(g19
Ng13
tp2061
Rp2062
sg54
g5
(g19
Ng13
tp2063
Rp2064
sg59
g5
(g19
Ng13
tp2065
Rp2066
sg64
g5
(g19
Ng13
tp2067
Rp2068
sg8
g5
(g19
Ng13
tp2069
Rp2070
sg71
g5
(g19
Ng13
tp2071
Rp2072
sg76
g5
(g19
Ng13
tp2073
Rp2074
sg82
g5
(g19
Ng13
tp2075
Rp2076
sg87
g5
(g19
Ng13
tp2077
Rp2078
sg92
g5
(g19
Ng13
tp2079
Rp2080
sg97
g5
(g19
Ng13
tp2081
Rp2082
sg102
g5
(g19
Ng13
tp2083
Rp2084
sg107
g5
(g19
Ng13
tp2085
Rp2086
sg24
g5
(g19
Ng13
tp2087
Rp2088
sg114
g5
(g19
Ng13
tp2089
Rp2090
sg119
g5
(g19
Ng13
tp2091
Rp2092
sg124
g5
(g19
Ng13
tp2093
Rp2094
sg129
g5
(g19
Ng13
tp2095
Rp2096
sg134
g5
(g19
Ng13
tp2097
Rp2098
sg139
g5
(g19
Ng13
tp2099
Rp2100
sg144
g5
(g19
Ng13
tp2101
Rp2102
sg149
g5
(g19
Ng13
tp2103
Rp2104
sg154
g5
(g19
Ng13
tp2105
Rp2106
ssS'fail'
p2107
(dp2108
sS'thread2'
p2109
(dp2110
sS'file'
p2111
(dp2112
g31
g5
(g19
Ng13
tp2113
Rp2114
sg36
g5
(g37
Ng13
tp2115
Rp2116
sg42
g5
(g37
Ng13
tp2117
Rp2118
sg18
g5
(g37
Ng13
tp2119
Rp2120
sg49
g5
(g362
Ng13
tp2121
Rp2122
sg54
g5
(g19
Ng13
tp2123
Rp2124
sg59
g5
(g19
Ng13
tp2125
Rp2126
sg64
g5
(g19
Ng13
tp2127
Rp2128
sg8
g5
(V33
p2129
Ng13
tp2130
Rp2131
sg71
g5
(g19
Ng13
tp2132
Rp2133
sg76
g5
(V222
p2134
Ng13
tp2135
Rp2136
sg82
g5
(g299
Ng13
tp2137
Rp2138
sg107
g5
(g299
Ng13
tp2139
Rp2140
sg92
g5
(g19
Ng13
tp2141
Rp2142
sg97
g5
(V14
p2143
Ng13
tp2144
Rp2145
sg102
g5
(g391
Ng13
tp2146
Rp2147
sg87
g5
(g605
Ng13
tp2148
Rp2149
sg24
g5
(g19
Ng13
tp2150
Rp2151
sg114
g5
(g19
Ng13
tp2152
Rp2153
sg119
g5
(g19
Ng13
tp2154
Rp2155
sg124
g5
(g19
Ng13
tp2156
Rp2157
sg129
g5
(g19
Ng13
tp2158
Rp2159
sg134
g5
(g19
Ng13
tp2160
Rp2161
sg139
g5
(g19
Ng13
tp2162
Rp2163
sg144
g5
(g362
Ng13
tp2164
Rp2165
sg149
g5
(g19
Ng13
tp2166
Rp2167
sg154
g5
(g19
Ng13
tp2168
Rp2169
ssS'pthread'
p2170
(dp2171
sS'limit'
p2172
(dp2173
g31
g5
(g19
Ng13
tp2174
Rp2175
sg36
g5
(g19
Ng13
tp2176
Rp2177
sg42
g5
(g19
Ng13
tp2178
Rp2179
sg18
g5
(g19
Ng13
tp2180
Rp2181
sg49
g5
(g19
Ng13
tp2182
Rp2183
sg54
g5
(g19
Ng13
tp2184
Rp2185
sg59
g5
(g19
Ng13
tp2186
Rp2187
sg64
g5
(g19
Ng13
tp2188
Rp2189
sg8
g5
(g19
Ng13
tp2190
Rp2191
sg71
g5
(g19
Ng13
tp2192
Rp2193
sg76
g5
(g19
Ng13
tp2194
Rp2195
sg82
g5
(g19
Ng13
tp2196
Rp2197
sg87
g5
(g19
Ng13
tp2198
Rp2199
sg92
g5
(g19
Ng13
tp2200
Rp2201
sg97
g5
(g19
Ng13
tp2202
Rp2203
sg102
g5
(g19
Ng13
tp2204
Rp2205
sg107
g5
(g19
Ng13
tp2206
Rp2207
sg24
g5
(g19
Ng13
tp2208
Rp2209
sg114
g5
(g19
Ng13
tp2210
Rp2211
sg119
g5
(g19
Ng13
tp2212
Rp2213
sg124
g5
(g19
Ng13
tp2214
Rp2215
sg129
g5
(g605
Ng13
tp2216
Rp2217
sg134
g5
(g19
Ng13
tp2218
Rp2219
sg139
g5
(g19
Ng13
tp2220
Rp2221
sg144
g5
(g19
Ng13
tp2222
Rp2223
sg149
g5
(g19
Ng13
tp2224
Rp2225
sg154
g5
(g19
Ng13
tp2226
Rp2227
ssS'Copied'
p2228
(dp2229
sS'parpw'
p2230
(dp2231
sS'sem'
p2232
(dp2233
sS'binary'
p2234
(dp2235
sS'myfs'
p2236
(dp2237
sS'end'
p2238
(dp2239
g31
g5
(g19
Ng13
tp2240
Rp2241
sg36
g5
(g19
Ng13
tp2242
Rp2243
sg42
g5
(g605
Ng13
tp2244
Rp2245
sg18
g5
(g362
Ng13
tp2246
Rp2247
sg49
g5
(g37
Ng13
tp2248
Rp2249
sg54
g5
(g19
Ng13
tp2250
Rp2251
sg59
g5
(g19
Ng13
tp2252
Rp2253
sg64
g5
(g19
Ng13
tp2254
Rp2255
sg8
g5
(V49
p2256
Ng13
tp2257
Rp2258
sg71
g5
(g19
Ng13
tp2259
Rp2260
sg76
g5
(V103
p2261
Ng13
tp2262
Rp2263
sg82
g5
(g37
Ng13
tp2264
Rp2265
sg87
g5
(g605
Ng13
tp2266
Rp2267
sg92
g5
(g19
Ng13
tp2268
Rp2269
sg97
g5
(g614
Ng13
tp2270
Rp2271
sg102
g5
(g391
Ng13
tp2272
Rp2273
sg107
g5
(g362
Ng13
tp2274
Rp2275
sg24
g5
(g605
Ng13
tp2276
Rp2277
sg114
g5
(g19
Ng13
tp2278
Rp2279
sg119
g5
(g299
Ng13
tp2280
Rp2281
sg124
g5
(V65
p2282
Ng13
tp2283
Rp2284
sg129
g5
(g359
Ng13
tp2285
Rp2286
sg134
g5
(g19
Ng13
tp2287
Rp2288
sg139
g5
(g299
Ng13
tp2289
Rp2290
sg144
g5
(g627
Ng13
tp2291
Rp2292
sg149
g5
(g19
Ng13
tp2293
Rp2294
sg154
g5
(g605
Ng13
tp2295
Rp2296
ssS'stdifstream'
p2297
(dp2298
sS'stdofstream'
p2299
(dp2300
sS'Read'
p2301
(dp2302
g31
g5
(g19
Ng13
tp2303
Rp2304
sg36
g5
(g19
Ng13
tp2305
Rp2306
sg42
g5
(g19
Ng13
tp2307
Rp2308
sg18
g5
(g19
Ng13
tp2309
Rp2310
sg49
g5
(g19
Ng13
tp2311
Rp2312
sg54
g5
(g19
Ng13
tp2313
Rp2314
sg59
g5
(g19
Ng13
tp2315
Rp2316
sg64
g5
(g19
Ng13
tp2317
Rp2318
sg8
g5
(g19
Ng13
tp2319
Rp2320
sg71
g5
(g19
Ng13
tp2321
Rp2322
sg76
g5
(g19
Ng13
tp2323
Rp2324
sg82
g5
(g19
Ng13
tp2325
Rp2326
sg87
g5
(g19
Ng13
tp2327
Rp2328
sg92
g5
(g19
Ng13
tp2329
Rp2330
sg97
g5
(g19
Ng13
tp2331
Rp2332
sg102
g5
(g19
Ng13
tp2333
Rp2334
sg107
g5
(g19
Ng13
tp2335
Rp2336
sg24
g5
(g19
Ng13
tp2337
Rp2338
sg114
g5
(g19
Ng13
tp2339
Rp2340
sg119
g5
(g19
Ng13
tp2341
Rp2342
sg124
g5
(g19
Ng13
tp2343
Rp2344
sg129
g5
(g19
Ng13
tp2345
Rp2346
sg134
g5
(g19
Ng13
tp2347
Rp2348
sg139
g5
(g19
Ng13
tp2349
Rp2350
sg144
g5
(g19
Ng13
tp2351
Rp2352
sg149
g5
(g19
Ng13
tp2353
Rp2354
sg154
g5
(g19
Ng13
tp2355
Rp2356
ssS'lastmod'
p2357
(dp2358
sS'fsize'
p2359
(dp2360
sS'exception'
p2361
(dp2362
sS'dbused'
p2363
(dp2364
sS'write'
p2365
(dp2366
g31
g5
(g19
Ng13
tp2367
Rp2368
sg36
g5
(g19
Ng13
tp2369
Rp2370
sg42
g5
(V20
p2371
Ng13
tp2372
Rp2373
sg18
g5
(V30
p2374
Ng13
tp2375
Rp2376
sg49
g5
(g19
Ng13
tp2377
Rp2378
sg54
g5
(g19
Ng13
tp2379
Rp2380
sg59
g5
(g299
Ng13
tp2381
Rp2382
sg64
g5
(g19
Ng13
tp2383
Rp2384
sg8
g5
(V465
p2385
Ng13
tp2386
Rp2387
sg71
g5
(g19
Ng13
tp2388
Rp2389
sg76
g5
(V443
p2390
Ng13
tp2391
Rp2392
sg82
g5
(V37
p2393
Ng13
tp2394
Rp2395
sg107
g5
(g37
Ng13
tp2396
Rp2397
sg92
g5
(g19
Ng13
tp2398
Rp2399
sg97
g5
(V27
p2400
Ng13
tp2401
Rp2402
sg102
g5
(g299
Ng13
tp2403
Rp2404
sg87
g5
(g19
Ng13
tp2405
Rp2406
sg24
g5
(g19
Ng13
tp2407
Rp2408
sg114
g5
(g19
Ng13
tp2409
Rp2410
sg119
g5
(g19
Ng13
tp2411
Rp2412
sg124
g5
(V65
p2413
Ng13
tp2414
Rp2415
sg129
g5
(g19
Ng13
tp2416
Rp2417
sg134
g5
(g605
Ng13
tp2418
Rp2419
sg139
g5
(g19
Ng13
tp2420
Rp2421
sg144
g5
(V63
p2422
Ng13
tp2423
Rp2424
sg149
g5
(g627
Ng13
tp2425
Rp2426
sg154
g5
(g605
Ng13
tp2427
Rp2428
ssS'dest'
p2429
(dp2430
sS'Cannot'
p2431
(dp2432
sS'ent'
p2433
(dp2434
sS'fname'
p2435
(dp2436
sS'test'
p2437
(dp2438
g107
g5
(g299
Ng13
tp2439
Rp2440
sg42
g5
(g299
Ng13
tp2441
Rp2442
ssS'mycode'
p2443
(dp2444
sS'myfs2pc'
p2445
(dp2446
sS'foundn'
p2447
(dp2448
sS'buff'
p2449
(dp2450
sS'status'
p2451
(dp2452
g97
g5
(g605
Ng13
tp2453
Rp2454
sg102
g5
(g299
Ng13
tp2455
Rp2456
sg49
g5
(g299
Ng13
tp2457
Rp2458
sg87
g5
(g19
Ng13
tp2459
Rp2460
sg144
g5
(g299
Ng13
tp2461
Rp2462
sg76
g5
(V85
p2463
Ng13
tp2464
Rp2465
sg124
g5
(V48
p2466
Ng13
tp2467
Rp2468
sg42
g5
(g605
Ng13
tp2469
Rp2470
sg154
g5
(g37
Ng13
tp2471
Rp2472
ssS'finish'
p2473
(dp2474
g31
g5
(g19
Ng13
tp2475
Rp2476
sg36
g5
(g19
Ng13
tp2477
Rp2478
sg42
g5
(g19
Ng13
tp2479
Rp2480
sg18
g5
(g627
Ng13
tp2481
Rp2482
sg49
g5
(g19
Ng13
tp2483
Rp2484
sg54
g5
(g19
Ng13
tp2485
Rp2486
sg59
g5
(g19
Ng13
tp2487
Rp2488
sg64
g5
(g19
Ng13
tp2489
Rp2490
sg8
g5
(V81
p2491
Ng13
tp2492
Rp2493
sg71
g5
(g19
Ng13
tp2494
Rp2495
sg76
g5
(V18
p2496
Ng13
tp2497
Rp2498
sg82
g5
(g299
Ng13
tp2499
Rp2500
sg87
g5
(g19
Ng13
tp2501
Rp2502
sg92
g5
(g19
Ng13
tp2503
Rp2504
sg97
g5
(g299
Ng13
tp2505
Rp2506
sg102
g5
(g605
Ng13
tp2507
Rp2508
sg107
g5
(g19
Ng13
tp2509
Rp2510
sg24
g5
(g37
Ng13
tp2511
Rp2512
sg114
g5
(g19
Ng13
tp2513
Rp2514
sg119
g5
(g19
Ng13
tp2515
Rp2516
sg124
g5
(g19
Ng13
tp2517
Rp2518
sg129
g5
(g627
Ng13
tp2519
Rp2520
sg134
g5
(g19
Ng13
tp2521
Rp2522
sg139
g5
(g19
Ng13
tp2523
Rp2524
sg144
g5
(g299
Ng13
tp2525
Rp2526
sg149
g5
(g19
Ng13
tp2527
Rp2528
sg154
g5
(g19
Ng13
tp2529
Rp2530
ssS'blocks'
p2531
(dp2532
sS'maxdb'
p2533
(dp2534
sS'curfs'
p2535
(dp2536
sS'time'
p2537
(dp2538
g31
g5
(g37
Ng13
tp2539
Rp2540
sg36
g5
(g37
Ng13
tp2541
Rp2542
sg42
g5
(g37
Ng13
tp2543
Rp2544
sg18
g5
(g299
Ng13
tp2545
Rp2546
sg49
g5
(g37
Ng13
tp2547
Rp2548
sg54
g5
(g19
Ng13
tp2549
Rp2550
sg59
g5
(g19
Ng13
tp2551
Rp2552
sg64
g5
(V33
p2553
Ng13
tp2554
Rp2555
sg8
g5
(V17
p2556
Ng13
tp2557
Rp2558
sg71
g5
(g19
Ng13
tp2559
Rp2560
sg76
g5
(V86
p2561
Ng13
tp2562
Rp2563
sg82
g5
(g299
Ng13
tp2564
Rp2565
sg107
g5
(g299
Ng13
tp2566
Rp2567
sg92
g5
(g19
Ng13
tp2568
Rp2569
sg97
g5
(g627
Ng13
tp2570
Rp2571
sg102
g5
(g19
Ng13
tp2572
Rp2573
sg87
g5
(g19
Ng13
tp2574
Rp2575
sg24
g5
(g19
Ng13
tp2576
Rp2577
sg114
g5
(g19
Ng13
tp2578
Rp2579
sg119
g5
(g19
Ng13
tp2580
Rp2581
sg124
g5
(V17
p2582
Ng13
tp2583
Rp2584
sg129
g5
(g37
Ng13
tp2585
Rp2586
sg134
g5
(g19
Ng13
tp2587
Rp2588
sg139
g5
(g19
Ng13
tp2589
Rp2590
sg144
g5
(g37
Ng13
tp2591
Rp2592
sg149
g5
(g19
Ng13
tp2593
Rp2594
sg154
g5
(g299
Ng13
tp2595
Rp2596
ssS'ios'
p2597
(dp2598
sS'mytext'
p2599
(dp2600
sS'Remove'
p2601
(dp2602
sS'directory'
p2603
(dp2604
sS'running'
p2605
(dp2606
g31
g5
(g19
Ng13
tp2607
Rp2608
sg36
g5
(g19
Ng13
tp2609
Rp2610
sg42
g5
(g19
Ng13
tp2611
Rp2612
sg18
g5
(g19
Ng13
tp2613
Rp2614
sg49
g5
(g19
Ng13
tp2615
Rp2616
sg54
g5
(g19
Ng13
tp2617
Rp2618
sg59
g5
(g19
Ng13
tp2619
Rp2620
sg64
g5
(g19
Ng13
tp2621
Rp2622
sg8
g5
(g19
Ng13
tp2623
Rp2624
sg71
g5
(g19
Ng13
tp2625
Rp2626
sg76
g5
(g19
Ng13
tp2627
Rp2628
sg82
g5
(g19
Ng13
tp2629
Rp2630
sg87
g5
(g19
Ng13
tp2631
Rp2632
sg92
g5
(g19
Ng13
tp2633
Rp2634
sg97
g5
(g19
Ng13
tp2635
Rp2636
sg102
g5
(g19
Ng13
tp2637
Rp2638
sg107
g5
(g19
Ng13
tp2639
Rp2640
sg24
g5
(g19
Ng13
tp2641
Rp2642
sg114
g5
(g19
Ng13
tp2643
Rp2644
sg119
g5
(g19
Ng13
tp2645
Rp2646
sg124
g5
(g19
Ng13
tp2647
Rp2648
sg129
g5
(g19
Ng13
tp2649
Rp2650
sg134
g5
(g19
Ng13
tp2651
Rp2652
sg139
g5
(g19
Ng13
tp2653
Rp2654
sg144
g5
(g19
Ng13
tp2655
Rp2656
sg149
g5
(g19
Ng13
tp2657
Rp2658
sg154
g5
(g19
Ng13
tp2659
Rp2660
ssS'us2char'
p2661
(dp2662
sS'dindbl'
p2663
(dp2664
sS'dirbl'
p2665
(dp2666
sS'Root'
p2667
(dp2668
sS'stdstring'
p2669
(dp2670
sS'Restore'
p2671
(dp2672
sS'Creating'
p2673
(dp2674
sS'algorithm'
p2675
(dp2676
sS'existsn'
p2677
(dp2678
sS'getpwd'
p2679
(dp2680
sS'spill'
p2681
(dp2682
sS'getppid'
p2683
(dp2684
sS'perform'
p2685
(dp2686
sS'ext'
p2687
(dp2688
sS'nbytes'
p2689
(dp2690
sS'File'
p2691
(dp2692
sS'Max'
p2693
(dp2694
sS'stdios'
p2695
(dp2696
sS'Inode'
p2697
(dp2698
sS'restored'
p2699
(dp2700
sS'getblock'
p2701
(dp2702
s.