(dp0
S'problem_domain'
p1
ccollections
defaultdict
p2
(c__builtin__
set
p3
tp4
Rp5
Vstream
p6
g3
((lp7
g6
atp8
Rp9
sVprocess
p10
g3
((lp11
g10
atp12
Rp13
sVparser
p14
g3
((lp15
g14
atp16
Rp17
sVfile
p18
g3
((lp19
g18
atp20
Rp21
sVmsvc
p22
g3
((lp23
g22
atp24
Rp25
sVmessage
p26
g3
((lp27
g26
atp28
Rp29
sVinode
p30
g3
((lp31
g30
atp32
Rp33
sVgcc
p34
g3
((lp35
g34
atp36
Rp37
sVcompression
p38
g3
((lp39
g38
atp40
Rp41
sVpattern
p42
g3
((lp43
g42
atp44
Rp45
sVpc
p46
g3
((lp47
g46
atp48
Rp49
sVbuff
p50
g3
((lp51
g50
atp52
Rp53
sVfile descriptor
p54
g3
((lp55
g54
atp56
Rp57
sVfd
p58
g3
((lp59
g58
atp60
Rp61
sVcompressed
p62
g3
((lp63
g62
atp64
Rp65
sVcharacters
p66
g3
((lp67
g66
atp68
Rp69
sVentries
p70
g3
((lp71
g70
atp72
Rp73
sValpha
p74
g3
((lp75
g74
atp76
Rp77
sVdatablock
p78
g3
((lp79
g78
atp80
Rp81
sVmrfs
p82
g3
((lp83
g82
atp84
Rp85
sVcolor
p86
g3
((lp87
g86
atp88
Rp89
sVpwd
p90
g3
((lp91
g90
atp92
Rp93
sVsecondary file
p94
g3
((lp95
g94
atp96
Rp97
sVdepth
p98
g3
((lp99
g98
atp100
Rp101
sVtime
p102
g3
((lp103
g102
atp104
Rp105
sVdirectory
p106
g3
((lp107
g106
atp108
Rp109
ssS'symbol'
p110
g2
(g3
tp111
Rp112
S''
p113
g3
((lp114
VParmDecl
p115
aVCXXConstructor
p116
atp117
Rp118
sS'status_myfs'
p119
g3
((lp120
VFunctionDecl
p121
atp122
Rp123
sS'cout'
p124
g3
((lp125
VVarDecl
p126
atp127
Rp128
sS'restore'
p129
g3
((lp130
VCXXMethod
p131
atp132
Rp133
sS'dbbmap'
p134
g3
((lp135
VFieldDecl
p136
atp137
Rp138
sS'operator<<'
p139
g3
((lp140
g121
ag131
atp141
Rp142
sS'is_open'
p143
g3
((lp144
g131
atp145
Rp146
sS'ffi'
p147
g3
((lp148
g126
atp149
Rp150
sS'fsys'
p151
g3
((lp152
VStructDecl
p153
ag116
atp154
Rp155
sS'gcount'
p156
g3
((lp157
g131
atp158
Rp159
sS'inbmap'
p160
g3
((lp161
g136
atp162
Rp163
sS'pointer'
p164
g3
((lp165
g136
atp166
Rp167
sS'find'
p168
g3
((lp169
g126
atp170
Rp171
sS'rmdir_myfs'
p172
g3
((lp173
g121
atp174
Rp175
sS'copy'
p176
g3
((lp177
g126
atp178
Rp179
sS'progress_bar'
p180
g3
((lp181
g121
atp182
Rp183
sS'show'
p184
g3
((lp185
g126
atp186
Rp187
sS'enno'
p188
g3
((lp189
g126
atp190
Rp191
sS'init'
p192
g3
((lp193
g126
atp194
Rp195
sS'ftype'
p196
g3
((lp197
g136
atp198
Rp199
sS'bno'
p200
g3
((lp201
g126
ag115
atp202
Rp203
sS'getpid'
p204
g3
((lp205
g121
atp206
Rp207
sS'main'
p208
g3
((lp209
g121
atp210
Rp211
sS'sem2'
p212
g3
((lp213
g126
atp214
Rp215
sS'sem1'
p216
g3
((lp217
g126
atp218
Rp219
sS'mydocs'
p220
g3
((lp221
g126
atp222
Rp223
sS'int2char'
p224
g3
((lp225
g121
atp226
Rp227
sS'inused'
p228
g3
((lp229
g136
atp230
Rp231
sS'restore_myfs'
p232
g3
((lp233
g121
atp234
Rp235
sS'md'
p236
g3
((lp237
g126
atp238
Rp239
sS'read'
p240
g3
((lp241
g131
atp242
Rp243
sS'getppid'
p244
g3
((lp245
g121
atp246
Rp247
sS'pos'
p248
g3
((lp249
g126
atp250
Rp251
sS'superbl'
p252
g3
((lp253
g136
atp254
Rp255
sS'curinno'
p256
g3
((lp257
g126
atp258
Rp259
sS'progress'
p260
g3
((lp261
g115
atp262
Rp263
sS'memcpy'
p264
g3
((lp265
g121
atp266
Rp267
sS'd'
p268
g3
((lp269
g115
atp270
Rp271
sS'chdir_myfs'
p272
g3
((lp273
g121
atp274
Rp275
sS'mutex1'
p276
g3
((lp277
g126
atp278
Rp279
sS'name'
p280
g3
((lp281
g126
atp282
Rp283
sS'dname'
p284
g3
((lp285
g115
atp286
Rp287
sS'chpwd'
p288
g3
((lp289
g131
atp290
Rp291
sS'l'
p292
g3
((lp293
g126
atp294
Rp295
sS'spused'
p296
g3
((lp297
g126
atp298
Rp299
sS'mode'
p300
g3
((lp301
g136
ag115
atp302
Rp303
sS'kill'
p304
g3
((lp305
g121
atp306
Rp307
sS'strcmp'
p308
g3
((lp309
g121
atp310
Rp311
sS'snprintf'
p312
g3
((lp313
g121
atp314
Rp315
sS'j'
p316
g3
((lp317
g126
atp318
Rp319
sS'force'
p320
g3
((lp321
g115
atp322
Rp323
sS'dump'
p324
g3
((lp325
g131
atp326
Rp327
sS'maxin'
p328
g3
((lp329
g136
atp330
Rp331
sS'operator!'
p332
g3
((lp333
g131
atp334
Rp335
sS'lno'
p336
g3
((lp337
g126
atp338
Rp339
sS'inibno'
p340
g3
((lp341
g126
atp342
Rp343
sS'lastrd'
p344
g3
((lp345
g136
atp346
Rp347
sS'flush'
p348
g3
((lp349
g131
atp350
Rp351
sS'inno'
p352
g3
((lp353
g136
ag126
atp354
Rp355
sS'close'
p356
g3
((lp357
g131
atp358
Rp359
sS'out'
p360
g3
((lp361
g126
atp362
Rp363
sS'tmp'
p364
g3
((lp365
g126
atp366
Rp367
sS'opened'
p368
g3
((lp369
g126
atp370
Rp371
sS'seekg'
p372
g3
((lp373
g131
atp374
Rp375
sS'rx'
p376
g3
((lp377
g126
atp378
Rp379
sS'dblist'
p380
g3
((lp381
g136
atp382
Rp383
sS'sprintf'
p384
g3
((lp385
g121
atp386
Rp387
sS'print'
p388
g3
((lp389
g131
atp390
Rp391
sS'rm'
p392
g3
((lp393
g126
atp394
Rp395
sS'locate'
p396
g3
((lp397
g131
atp398
Rp399
sS'fpar'
p400
g3
((lp401
g126
atp402
Rp403
sS'parpw'
p404
g3
((lp405
g126
atp406
Rp407
sS'here'
p408
g3
((lp409
g126
atp410
Rp411
sS'read_myfs'
p412
g3
((lp413
g121
atp414
Rp415
sS'showfile_myfs'
p416
g3
((lp417
g121
atp418
Rp419
sS'rm_myfs'
p420
g3
((lp421
g121
atp422
Rp423
sS'basic_ifstream'
p424
g3
((lp425
g116
atp426
Rp427
sS'createdir'
p428
g3
((lp429
g131
atp430
Rp431
sS'src'
p432
g3
((lp433
g115
atp434
Rp435
sS'c_str'
p436
g3
((lp437
g131
atp438
Rp439
sS'newpwd'
p440
g3
((lp441
g115
atp442
Rp443
sS'g'
p444
g3
((lp445
g126
atp446
Rp447
sS'mypapers'
p448
g3
((lp449
g126
atp450
Rp451
sS'k'
p452
g3
((lp453
g126
atp454
Rp455
sS'ty'
p456
g3
((lp457
g115
atp458
Rp459
sS'to_string'
p460
g3
((lp461
g121
atp462
Rp463
sS's'
p464
g3
((lp465
g115
atp466
Rp467
sS'basic_ofstream'
p468
g3
((lp469
g116
atp470
Rp471
sS'inlist'
p472
g3
((lp473
g136
atp474
Rp475
sS'rand'
p476
g3
((lp477
g121
atp478
Rp479
sS'sindbl'
p480
g3
((lp481
g136
atp482
Rp483
sS'dbno'
p484
g3
((lp485
g126
atp486
Rp487
sS'operator='
p488
g3
((lp489
g131
atp490
Rp491
sS'dump_myfs'
p492
g3
((lp493
g121
atp494
Rp495
sS'getinode'
p496
g3
((lp497
g131
atp498
Rp499
sS'getinblock'
p500
g3
((lp501
g131
atp502
Rp503
sS'operator+'
p504
g3
((lp505
g121
atp506
Rp507
sS'operator-'
p508
g3
((lp509
g131
atp510
Rp511
sS'open_myfs'
p512
g3
((lp513
g121
atp514
Rp515
sS'ls_myfs'
p516
g3
((lp517
g121
atp518
Rp519
sS'accp'
p520
g3
((lp521
g136
atp522
Rp523
sS'size'
p524
g3
((lp525
g136
ag115
atp526
Rp527
sS'freeblock'
p528
g3
((lp529
g131
atp530
Rp531
sS'loc'
p532
g3
((lp533
g126
atp534
Rp535
sS'freeinode'
p536
g3
((lp537
g131
atp538
Rp539
sS'basic_string'
p540
g3
((lp541
g116
atp542
Rp543
sS'write_myfs'
p544
g3
((lp545
g121
atp546
Rp547
sS'copy_pc2myfs'
p548
g3
((lp549
g121
atp550
Rp551
sS'fd2'
p552
g3
((lp553
g126
atp554
Rp555
sS'addentry'
p556
g3
((lp557
g131
atp558
Rp559
sS'copied'
p560
g3
((lp561
g126
atp562
Rp563
sS'lastmod'
p564
g3
((lp565
g136
atp566
Rp567
sS'operator|'
p568
g3
((lp569
g121
atp570
Rp571
sS'dumpfile'
p572
g3
((lp573
g115
atp574
Rp575
sS'ptable'
p576
g3
((lp577
g136
atp578
Rp579
sS'fpos'
p580
g3
((lp581
g116
atp582
Rp583
sS'search'
p584
g3
((lp585
g126
atp586
Rp587
sS'N'
p588
g3
((lp589
g126
atp590
Rp591
sS'dindbl'
p592
g3
((lp593
g136
atp594
Rp595
sS'maxfs'
p596
g3
((lp597
g126
atp598
Rp599
sS'mkdir_myfs'
p600
g3
((lp601
g121
atp602
Rp603
sS'replacer'
p604
g3
((lp605
g126
atp606
Rp607
sS'ap'
p608
g3
((lp609
g115
atp610
Rp611
sS'newmd'
p612
g3
((lp613
g115
atp614
Rp615
sS'fdentry'
p616
g3
((lp617
g153
ag116
atp618
Rp619
sS'spill'
p620
g3
((lp621
g126
atp622
Rp623
sS'up'
p624
g3
((lp625
g126
ag115
atp626
Rp627
sS'r'
p628
g3
((lp629
g126
ag115
atp630
Rp631
sS'del'
p632
g3
((lp633
g115
atp634
Rp635
sS'ctime_r'
p636
g3
((lp637
g121
atp638
Rp639
sS'display'
p640
g3
((lp641
g131
atp642
Rp643
sS'ad'
p644
g3
((lp645
g115
atp646
Rp647
sS'__assert_fail'
p648
g3
((lp649
g121
atp650
Rp651
sS'tellg'
p652
g3
((lp653
g131
atp654
Rp655
sS'chmod_myfs'
p656
g3
((lp657
g121
atp658
Rp659
sS'fail'
p660
g3
((lp661
g131
atp662
Rp663
sS'us2char'
p664
g3
((lp665
g121
atp666
Rp667
sS'in'
p668
g3
((lp669
g153
ag126
ag116
atp670
Rp671
sS'strlen'
p672
g3
((lp673
g121
atp674
Rp675
sS'binary'
p676
g3
((lp677
g126
atp678
Rp679
sS'myfs'
p680
g3
((lp681
g126
atp682
Rp683
sS'end'
p684
g3
((lp685
g126
atp686
Rp687
sS'fdtable'
p688
g3
((lp689
g136
atp690
Rp691
sS'close_myfs'
p692
g3
((lp693
g121
atp694
Rp695
sS'fsize'
p696
g3
((lp697
g136
atp698
Rp699
sS'barWidth'
p700
g3
((lp701
g126
atp702
Rp703
sS'dbused'
p704
g3
((lp705
g136
atp706
Rp707
sS'write'
p708
g3
((lp709
g131
atp710
Rp711
sS'dest'
p712
g3
((lp713
g115
atp714
Rp715
sS'ent'
p716
g3
((lp717
g126
atp718
Rp719
sS'fname'
p720
g3
((lp721
g115
atp722
Rp723
sS'test'
p724
g3
((lp725
g126
atp726
Rp727
sS'mycode'
p728
g3
((lp729
g126
atp730
Rp731
sS'copy_myfs2pc'
p732
g3
((lp733
g121
atp734
Rp735
sS'buff'
p736
g3
((lp737
g126
ag115
atp738
Rp739
sS'fp'
p740
g3
((lp741
g126
ag115
atp742
Rp743
sS'fs'
p744
g3
((lp745
g126
atp746
Rp747
sS'maxdb'
p748
g3
((lp749
g136
atp750
Rp751
sS'curfs'
p752
g3
((lp753
g126
atp754
Rp755
sS'mytext'
p756
g3
((lp757
g126
atp758
Rp759
sS'fd'
p760
g3
((lp761
g126
ag115
atp762
Rp763
sS'dirbl'
p764
g3
((lp765
g136
atp766
Rp767
sS'addblock'
p768
g3
((lp769
g131
atp770
Rp771
sS'fn'
p772
g3
((lp773
g115
atp774
Rp775
sS'nm'
p776
g3
((lp777
g115
atp778
Rp779
sS'newman'
p780
g3
((lp781
g126
atp782
Rp783
sS'eof_myfs'
p784
g3
((lp785
g121
atp786
Rp787
sS'e'
p788
g3
((lp789
g126
atp790
Rp791
sS'i'
p792
g3
((lp793
g126
atp794
Rp795
sS'clear'
p796
g3
((lp797
g131
atp798
Rp799
sS'getpwd'
p800
g3
((lp801
g131
atp802
Rp803
sS'ext'
p804
g3
((lp805
g126
atp806
Rp807
sS'u'
p808
g3
((lp809
g126
atp810
Rp811
sS'nbytes'
p812
g3
((lp813
g126
ag115
atp814
Rp815
sS'time'
p816
g3
((lp817
g121
atp818
Rp819
sS'sb'
p820
g3
((lp821
g153
ag116
atp822
Rp823
sS'create_myfs'
p824
g3
((lp825
g121
atp826
Rp827
sS'getblock'
p828
g3
((lp829
g131
atp830
Rp831
ssS'static_attribute'
p832
g2
(g3
tp833
Rp834
S'comment'
p835
g3
((lp836
S'comment_token'
p837
atp838
Rp839
sS'predecessor'
p840
g3
((lp841
S'has_parent'
p842
atp843
Rp844
sS'target application'
p845
g3
((lp846
S'PROBLEM_DOMAIN'
p847
atp848
Rp849
sS'may be written'
p850
g3
((lp851
S'isWritten_file_line'
p852
atp853
Rp854
sS'defined'
p855
g3
((lp856
S'is_defined_file'
p857
atp858
Rp859
sS'parameter types'
p860
g3
((lp861
S'param_type'
p862
atp863
Rp864
sS'offset'
p865
g3
((lp866
S'offset'
p867
atp868
Rp869
sS'child'
p870
g3
((lp871
S'has_child'
p872
atp873
Rp874
sS'defined in'
p875
g3
((lp876
g857
atp877
Rp878
sS'primitive data type'
p879
g3
((lp880
S'type'
p881
atp882
Rp883
sS'used'
p884
g3
((lp885
S'is_called_file'
p886
atp887
Rp888
sS'comments'
p889
g3
((lp890
g837
atp891
Rp892
sS'possibly read'
p893
g3
((lp894
S'isRead_file_line'
p895
atp896
Rp897
sS'possibly written'
p898
g3
((lp899
g852
atp900
Rp901
sS'descendant'
p902
g3
((lp903
g872
atp904
Rp905
sS'pointer'
p906
g3
((lp907
S'is_pointer'
p908
atp909
Rp910
sS'id'
p911
g3
((lp912
S'id'
p913
atp914
Rp915
sS'size'
p916
g3
((lp917
S'size'
p918
atp919
Rp920
sS'child class'
p921
g3
((lp922
S'is_subclass_of'
p923
atp924
Rp925
sS'application specific'
p926
g3
((lp927
g847
atp928
Rp929
sS'invoked'
p930
g3
((lp931
g886
atp932
Rp933
sS'belongs to'
p934
g3
((lp935
g857
atp936
Rp937
sS'ref_tmp'
p938
g3
((lp939
S'ref_tmp'
p940
atp941
Rp942
sS'parent function'
p943
g3
((lp944
g842
atp945
Rp946
sS'called in'
p947
g3
((lp948
g886
atp949
Rp950
sS'task specific'
p951
g3
((lp952
g847
atp953
Rp954
sS'subclass'
p955
g3
((lp956
g923
atp957
Rp958
sS'access_specifier'
p959
g3
((lp960
S'access_specifier'
p961
atp962
Rp963
sS'start line'
p964
g3
((lp965
S'isDef_file_line'
p966
atp967
Rp968
sS'mangled_name'
p969
g3
((lp970
S'mangled_name'
p971
atp972
Rp973
sS'usr'
p974
g3
((lp975
S'usr'
p976
atp977
Rp978
sS'call expression'
p979
g3
((lp980
g886
atp981
Rp982
sS'call'
p983
g3
((lp984
g886
atp985
Rp986
sS'isDecl'
p987
g3
((lp988
S'isDecl'
p989
atp990
Rp991
sS'defined file'
p992
g3
((lp993
g857
atp994
Rp995
sS'type'
p996
g3
((lp997
S'type'
p998
atp999
Rp1000
sS'funcargs'
p1001
g3
((lp1002
S'funcargs'
p1003
atp1004
Rp1005
sS'return value'
p1006
g3
((lp1007
S'return_type'
p1008
atp1009
Rp1010
sS'call location'
p1011
g3
((lp1012
S'isCall_file_line'
p1013
atp1014
Rp1015
sS'may be read'
p1016
g3
((lp1017
g895
atp1018
Rp1019
sS'size array'
p1020
g3
((lp1021
S'array_size'
p1022
atp1023
Rp1024
sS'lex_parent_id'
p1025
g3
((lp1026
S'lex_parent_id'
p1027
atp1028
Rp1029
sS'return'
p1030
g3
((lp1031
g1008
atp1032
Rp1033
sS'parent'
p1034
g3
((lp1035
g842
atp1036
Rp1037
sS'primitive type'
p1038
g3
((lp1039
g881
atp1040
Rp1041
sS'application domain'
p1042
g3
((lp1043
g847
atp1044
Rp1045
sS'friend class'
p1046
g3
((lp1047
S'is_friend_of'
p1048
atp1049
Rp1050
sS'friend of'
p1051
g3
((lp1052
g1048
atp1053
Rp1054
sS'range.end'
p1055
g3
((lp1056
S'range.end'
p1057
atp1058
Rp1059
sS'line'
p1060
g3
((lp1061
S'line'
p1062
atp1063
Rp1064
sS'pointers'
p1065
g3
((lp1066
g908
atp1067
Rp1068
sS'visibility'
p1069
g3
((lp1070
S'storage_class'
p1071
atp1072
Rp1073
sS'def_id'
p1074
g3
((lp1075
S'def_id'
p1076
atp1077
Rp1078
sS'scope'
p1079
g3
((lp1080
g1071
atp1081
Rp1082
sS'multiple inheritance'
p1083
g3
((lp1084
S'multiple_inheritance'
p1085
atp1086
Rp1087
sS'linkage_kind'
p1088
g3
((lp1089
S'linkage_kind'
p1090
atp1091
Rp1092
sS'address'
p1093
g3
((lp1094
S'address'
p1095
atp1096
Rp1097
sS'data type'
p1098
g3
((lp1099
g881
atp1100
Rp1101
sS'return_type'
p1102
g3
((lp1103
S'return_type'
p1104
atp1105
Rp1106
sS'multidimensional arrays'
p1107
g3
((lp1108
S'is_multi_dimensional_array'
p1109
atp1110
Rp1111
sS'present'
p1112
g3
((lp1113
g857
atp1114
Rp1115
sS'successor'
p1116
g3
((lp1117
g872
atp1118
Rp1119
sS'spelling'
p1120
g3
((lp1121
S'spelling'
p1122
atp1123
Rp1124
sS'sem_parent_id'
p1125
g3
((lp1126
S'sem_parent_id'
p1127
atp1128
Rp1129
sS'name'
p1130
g3
((lp1131
S'spelling'
p1132
atp1133
Rp1134
sS'linkage_name'
p1135
g3
((lp1136
S'linkage_name'
p1137
atp1138
Rp1139
sS'datatype'
p1140
g3
((lp1141
g881
atp1142
Rp1143
sS'range.start'
p1144
g3
((lp1145
S'range.start'
p1146
atp1147
Rp1148
sS'return type'
p1149
g3
((lp1150
g1008
atp1151
Rp1152
sS'array'
p1153
g3
((lp1154
S'is_array'
p1155
atp1156
Rp1157
sS'called'
p1158
g3
((lp1159
g886
atp1160
Rp1161
sS'isDef'
p1162
g3
((lp1163
S'isDef'
p1164
atp1165
Rp1166
sS'arrays'
p1167
g3
((lp1168
g1155
atp1169
Rp1170
sS'storage_class'
p1171
g3
((lp1172
S'storage_class'
p1173
atp1174
Rp1175
sS'storage class'
p1176
g3
((lp1177
g1071
atp1178
Rp1179
sS'possible read-write'
p1180
g3
((lp1181
g852
ag895
atp1182
Rp1183
sS'signature'
p1184
g3
((lp1185
g881
atp1186
Rp1187
sS'friend function'
p1188
g3
((lp1189
g1048
atp1190
Rp1191
sS'accessed'
p1192
g3
((lp1193
g886
atp1194
Rp1195
sS'abstract type'
p1196
g3
((lp1197
g881
atp1198
Rp1199
sS'col'
p1200
g3
((lp1201
S'col'
p1202
atp1203
Rp1204
sS'application task'
p1205
g3
((lp1206
g847
atp1207
Rp1208
ssS'dynamic_attribute'
p1209
g2
(g3
tp1210
Rp1211
S'CALLERNAME'
p1212
g3
((lp1213
g1212
atp1214
Rp1215
sS'synchronous'
p1216
g3
((lp1217
S'sync'
p1218
atp1219
Rp1220
sS'write count'
p1221
g3
((lp1222
S'WRITECOUNT'
p1223
atp1224
Rp1225
sS'call sequence'
p1226
g3
((lp1227
S'callee_name'
p1228
atp1229
Rp1230
sS'asynchronous'
p1231
g3
((lp1232
g1218
atp1233
Rp1234
sS'thread id'
p1235
g3
((lp1236
S'thread_id'
p1237
atp1238
Rp1239
sS'synchronised'
p1240
g3
((lp1241
g1218
atp1242
Rp1243
sg930
g3
((lp1244
g1228
atp1245
Rp1246
sS'thread number'
p1247
g3
((lp1248
g1237
atp1249
Rp1250
sS'unsynchronized'
p1251
g3
((lp1252
g1218
atp1253
Rp1254
sS'asynchronised'
p1255
g3
((lp1256
g1218
atp1257
Rp1258
sS'invocation graph'
p1259
g3
((lp1260
g1228
atp1261
Rp1262
sS'write'
p1263
g3
((lp1264
S'NONLOCALWRITE'
p1265
aS'write_count'
p1266
atp1267
Rp1268
sS'written'
p1269
g3
((lp1270
g1265
ag1266
atp1271
Rp1272
sS'mutex'
p1273
g3
((lp1274
S'posix_lock'
p1275
atp1276
Rp1277
sS'invoker'
p1278
g3
((lp1279
S'caller_name'
p1280
atp1281
Rp1282
sS'call graph'
p1283
g3
((lp1284
g1228
atp1285
Rp1286
sS'invocation sequence'
p1287
g3
((lp1288
g1228
atp1289
Rp1290
sS'thread access'
p1291
g3
((lp1292
g1237
atp1293
Rp1294
sS'updated'
p1295
g3
((lp1296
g1265
ag1266
atp1297
Rp1298
sS'CALLEENAME'
p1299
g3
((lp1300
g1299
atp1301
Rp1302
sS'synchronized'
p1303
g3
((lp1304
g1218
atp1305
Rp1306
sS'thread-id'
p1307
g3
((lp1308
S'THREADID'
p1309
atp1310
Rp1311
sS'read'
p1312
g3
((lp1313
S'NONLOCALREAD'
p1314
aS'read_count'
p1315
atp1316
Rp1317
sS'child function'
p1318
g3
((lp1319
g1228
atp1320
Rp1321
sS'update'
p1322
g3
((lp1323
g1265
ag1266
atp1324
Rp1325
sS'read-write'
p1326
g3
((lp1327
g1314
ag1265
ag1315
ag1266
atp1328
Rp1329
sS'read write'
p1330
g3
((lp1331
g1314
ag1265
ag1315
ag1266
atp1332
Rp1333
sS'threads'
p1334
g3
((lp1335
g1237
atp1336
Rp1337
sS'function call graph'
p1338
g3
((lp1339
g1228
atp1340
Rp1341
sS'asynchronized'
p1342
g3
((lp1343
g1218
atp1344
Rp1345
sS'unsynchronous'
p1346
g3
((lp1347
g1218
atp1348
Rp1349
sS'thread'
p1350
g3
((lp1351
g1237
atp1352
Rp1353
sS'caller'
p1354
g3
((lp1355
g1280
atp1356
Rp1357
sS'return value'
p1358
g3
((lp1359
S'RETVAL'
p1360
atp1361
Rp1362
sS'unsynchronised'
p1363
g3
((lp1364
g1218
atp1365
Rp1366
sS'read count'
p1367
g3
((lp1368
S'READCOUNT'
p1369
atp1370
Rp1371
sS'callee'
p1372
g3
((lp1373
g1228
atp1374
Rp1375
sg1158
g3
((lp1376
g1228
atp1377
Rp1378
ssS'values'
p1379
g2
(g3
tp1380
Rp1381
S'int (char *)'
p1382
g3
((lp1383
S'type'
p1384
atp1385
Rp1386
sS'in [1024]'
p1387
g3
((lp1388
S'type'
p1389
atp1390
Rp1391
sS'std::streamsize () const'
p1392
g3
((lp1393
S'type'
p1394
atp1395
Rp1396
sS'void () noexcept'
p1397
g3
((lp1398
S'type'
p1399
atp1400
Rp1401
sS'size_t'
p1402
g3
((lp1403
S'return_type'
p1404
atp1405
Rp1406
sS'fsys'
p1407
g3
((lp1408
S'type'
p1409
atp1410
Rp1411
sS'std::basic_istream<char, std::char_traits<char> >::pos_type'
p1412
g3
((lp1413
S'return_type'
p1414
atp1415
Rp1416
sS'Public'
p1417
g3
((lp1418
S'access_specifier'
p1419
atp1420
Rp1421
sS'basic_ostream<char, std::char_traits<char> > &'
p1422
g3
((lp1423
S'return_type'
p1424
atp1425
Rp1426
sS'basic_string<char, std::char_traits<char>, std::allocator<char> > (const char *, basic_string<char, std::char_traits<char>, std::allocator<char> > &&)'
p1427
g3
((lp1428
S'type'
p1429
atp1430
Rp1431
sS'void (int)'
p1432
g3
((lp1433
S'type'
p1434
atp1435
Rp1436
sS'const char *'
p1437
g3
((lp1438
S'return_type'
p1439
atp1440
Rp1441
sS'int (char *, bool)'
p1442
g3
((lp1443
S'type'
p1444
atp1445
Rp1446
sS'void (const char *, const std::allocator<char> &)'
p1447
g3
((lp1448
S'type'
p1449
atp1450
Rp1451
sS'int (char *, char)'
p1452
g3
((lp1453
S'type'
p1454
atp1455
Rp1456
sS'unsigned short (char *, bool, bool)'
p1457
g3
((lp1458
S'type'
p1459
atp1460
Rp1461
sS'std::string'
p1462
g3
((lp1463
S'return_type'
p1464
aS'type'
p1465
atp1466
Rp1467
sS'void'
p1468
g3
((lp1469
S'return_type'
p1470
atp1471
Rp1472
sS'int (int, in *)'
p1473
g3
((lp1474
S'type'
p1475
atp1476
Rp1477
sS'std::ostream'
p1478
g3
((lp1479
S'type'
p1480
atp1481
Rp1482
sS'std::fpos<__mbstate_t> (std::streamoff) const'
p1483
g3
((lp1484
S'type'
p1485
atp1486
Rp1487
sS'void *(void *__restrict, const void *__restrict, size_t) throw()'
p1488
g3
((lp1489
S'type'
p1490
atp1491
Rp1492
sS'basic_ostream<char, std::char_traits<char> > &(basic_ostream<char, std::char_traits<char> > &, const char *)'
p1493
g3
((lp1494
S'type'
p1495
atp1496
Rp1497
sS'std::streamsize'
p1498
g3
((lp1499
S'return_type'
p1500
atp1501
Rp1502
sS'double'
p1503
g3
((lp1504
S'type'
p1505
atp1506
Rp1507
sS'std::basic_ostream<char, std::char_traits<char> >::__ostream_type &(const std::basic_ostream<char, std::char_traits<char> >::char_type *, std::streamsize)'
p1508
g3
((lp1509
S'type'
p1510
atp1511
Rp1512
sS'int (char *__restrict, size_t, const char *__restrict, ...) throw()'
p1513
g3
((lp1514
S'type'
p1515
atp1516
Rp1517
sS'static'
p1518
g3
((lp1519
S'storage_class'
p1520
atp1521
Rp1522
sS'char [31]'
p1523
g3
((lp1524
S'type'
p1525
atp1526
Rp1527
sS'int (char *, char *)'
p1528
g3
((lp1529
S'type'
p1530
atp1531
Rp1532
sS'std::basic_string<char, std::char_traits<char>, std::allocator<char> > &'
p1533
g3
((lp1534
S'return_type'
p1535
atp1536
Rp1537
sS'char *(const time_t *__restrict, char *__restrict) throw()'
p1538
g3
((lp1539
S'type'
p1540
atp1541
Rp1542
sS'int (char *__restrict, const char *__restrict, ...) throw()'
p1543
g3
((lp1544
S'type'
p1545
atp1546
Rp1547
sS'void (std::ofstream &)'
p1548
g3
((lp1549
S'type'
p1550
atp1551
Rp1552
sS'bool () const'
p1553
g3
((lp1554
S'type'
p1555
atp1556
Rp1557
sS'char (*)[256]'
p1558
g3
((lp1559
S'type'
p1560
atp1561
Rp1562
sS'basic_string<char, std::char_traits<char>, std::allocator<char> > (basic_string<char, std::char_traits<char>, std::allocator<char> > &&, const char *)'
p1563
g3
((lp1564
S'type'
p1565
atp1566
Rp1567
sS'void (double)'
p1568
g3
((lp1569
S'type'
p1570
atp1571
Rp1572
sS'fsys *'
p1573
g3
((lp1574
S'type'
p1575
atp1576
Rp1577
sS'std::basic_ostream<char, std::char_traits<char> >::__ostream_type &'
p1578
g3
((lp1579
S'return_type'
p1580
atp1581
Rp1582
sS'char [3]'
p1583
g3
((lp1584
S'type'
p1585
atp1586
Rp1587
sS'std::basic_ostream<char, std::char_traits<char> >::__ostream_type &(int)'
p1588
g3
((lp1589
S'type'
p1590
atp1591
Rp1592
sS'std::basic_istream<char, std::char_traits<char> >::__istream_type &(std::basic_istream<char, std::char_traits<char> >::pos_type)'
p1593
g3
((lp1594
S'type'
p1595
atp1596
Rp1597
sS'char [1024]'
p1598
g3
((lp1599
S'type'
p1600
atp1601
Rp1602
sS'const std::ios_base::seekdir'
p1603
g3
((lp1604
S'type'
p1605
atp1606
Rp1607
sS'size_t (const char *) throw()'
p1608
g3
((lp1609
S'type'
p1610
atp1611
Rp1612
sS'fdentry [50]'
p1613
g3
((lp1614
S'type'
p1615
atp1616
Rp1617
sS'std::basic_ostream<char, std::char_traits<char> >::__ostream_type &(long)'
p1618
g3
((lp1619
S'type'
p1620
atp1621
Rp1622
sS'void (std::ios_base::iostate)'
p1623
g3
((lp1624
S'type'
p1625
atp1626
Rp1627
sS'int (__pid_t, int) throw()'
p1628
g3
((lp1629
S'type'
p1630
atp1631
Rp1632
sS'time_t (time_t *) throw()'
p1633
g3
((lp1634
S'type'
p1635
atp1636
Rp1637
sS'std::basic_string<char, std::char_traits<char>, std::allocator<char> > &(std::basic_string<char, std::char_traits<char>, std::allocator<char> > &&)'
p1638
g3
((lp1639
S'type'
p1640
atp1641
Rp1642
sS'const char *() const noexcept'
p1643
g3
((lp1644
S'type'
p1645
atp1646
Rp1647
sS'__pid_t () throw()'
p1648
g3
((lp1649
S'type'
p1650
atp1651
Rp1652
sS'int () throw()'
p1653
g3
((lp1654
S'type'
p1655
atp1656
Rp1657
sS'std::basic_istream<char, std::char_traits<char> >::__istream_type &(std::basic_istream<char, std::char_traits<char> >::char_type *, std::streamsize)'
p1658
g3
((lp1659
S'type'
p1660
atp1661
Rp1662
sS'void (char *, unsigned short)'
p1663
g3
((lp1664
S'type'
p1665
atp1666
Rp1667
sS'bool ()'
p1668
g3
((lp1669
S'type'
p1670
atp1671
Rp1672
sS'std::_Ios_Openmode (std::_Ios_Openmode, std::_Ios_Openmode)'
p1673
g3
((lp1674
S'type'
p1675
atp1676
Rp1677
sS'char *(in &)'
p1678
g3
((lp1679
S'type'
p1680
atp1681
Rp1682
sS'default_auto'
p1683
g3
((lp1684
S'storage_class'
p1685
atp1686
Rp1687
sS'int (const char *, const char *) throw()'
p1688
g3
((lp1689
S'type'
p1690
atp1691
Rp1692
sS'basic_ostream<char, std::char_traits<char> > &(basic_ostream<char, std::char_traits<char> > &, char)'
p1693
g3
((lp1694
S'type'
p1695
atp1696
Rp1697
sS'char [47]'
p1698
g3
((lp1699
S'type'
p1700
atp1701
Rp1702
sS'long'
p1703
g3
((lp1704
S'type'
p1705
atp1706
Rp1707
sS'unsigned short'
p1708
g3
((lp1709
S'return_type'
p1710
aS'type'
p1711
atp1712
Rp1713
sS'void (std::streamoff)'
p1714
g3
((lp1715
S'type'
p1716
atp1717
Rp1718
sS'std::string (int)'
p1719
g3
((lp1720
S'type'
p1721
atp1722
Rp1723
sS'std::ofstream'
p1724
g3
((lp1725
S'type'
p1726
atp1727
Rp1728
sS'std::ifstream'
p1729
g3
((lp1730
S'type'
p1731
atp1732
Rp1733
sS'void (const char *, const char *, unsigned int, const char *) __attribute__((noreturn)) throw()'
p1734
g3
((lp1735
S'type'
p1736
atp1737
Rp1738
sS'basic_string<char, std::char_traits<char>, std::allocator<char> >'
p1739
g3
((lp1740
S'return_type'
p1741
atp1742
Rp1743
sS'std::ofstream &'
p1744
g3
((lp1745
S'type'
p1746
atp1747
Rp1748
sS'std::fpos<__mbstate_t>'
p1749
g3
((lp1750
S'return_type'
p1751
atp1752
Rp1753
sS'fdentry'
p1754
g3
((lp1755
S'type'
p1756
atp1757
Rp1758
sS'int ()'
p1759
g3
((lp1760
S'type'
p1761
atp1762
Rp1763
sS'void *'
p1764
g3
((lp1765
S'return_type'
p1766
atp1767
Rp1768
sS'in *'
p1769
g3
((lp1770
S'type'
p1771
atp1772
Rp1773
sS'std::basic_istream<char, std::char_traits<char> >::pos_type ()'
p1774
g3
((lp1775
S'type'
p1776
atp1777
Rp1778
sS'void (std::ifstream &)'
p1779
g3
((lp1780
S'type'
p1781
atp1782
Rp1783
sS'int (int, int, char *)'
p1784
g3
((lp1785
S'type'
p1786
atp1787
Rp1788
sS'int [25][2]'
p1789
g3
((lp1790
S'type'
p1791
atp1792
Rp1793
sS'std::basic_ostream<char, std::char_traits<char> >::__ostream_type &()'
p1794
g3
((lp1795
S'type'
p1796
atp1797
Rp1798
sS'in &'
p1799
g3
((lp1800
S'type'
p1801
atp1802
Rp1803
sS'int (int)'
p1804
g3
((lp1805
S'type'
p1806
atp1807
Rp1808
sS'void (char *, int)'
p1809
g3
((lp1810
S'type'
p1811
atp1812
Rp1813
sS'int'
p1814
g3
((lp1815
S'return_type'
p1816
aS'type'
p1817
atp1818
Rp1819
sS'sem_t'
p1820
g3
((lp1821
S'type'
p1822
atp1823
Rp1824
sS'char'
p1825
g3
((lp1826
S'type'
p1827
atp1828
Rp1829
sS'in'
p1830
g3
((lp1831
S'type'
p1832
atp1833
Rp1834
sS'time_t'
p1835
g3
((lp1836
S'return_type'
p1837
aS'type'
p1838
atp1839
Rp1840
sS'std::basic_istream<char, std::char_traits<char> >::__istream_type &(std::basic_istream<char, std::char_traits<char> >::off_type, ios_base::seekdir)'
p1841
g3
((lp1842
S'type'
p1843
atp1844
Rp1845
sS'bool [1024]'
p1846
g3
((lp1847
S'type'
p1848
atp1849
Rp1850
sS'bool'
p1851
g3
((lp1852
S'return_type'
p1853
aS'type'
p1854
atp1855
Rp1856
sS'bool *'
p1857
g3
((lp1858
S'type'
p1859
atp1860
Rp1861
sS'void (const char *, ios_base::openmode)'
p1862
g3
((lp1863
S'type'
p1864
atp1865
Rp1866
sS'__pid_t'
p1867
g3
((lp1868
S'return_type'
p1869
atp1870
Rp1871
sS'std::_Ios_Openmode'
p1872
g3
((lp1873
S'return_type'
p1874
atp1875
Rp1876
sS'int [8]'
p1877
g3
((lp1878
S'type'
p1879
atp1880
Rp1881
sS'void ()'
p1882
g3
((lp1883
S'type'
p1884
atp1885
Rp1886
sS'int (char *, int)'
p1887
g3
((lp1888
S'type'
p1889
atp1890
Rp1891
sS'extern'
p1892
g3
((lp1893
S'storage_class'
p1894
atp1895
Rp1896
sS'std::ifstream &'
p1897
g3
((lp1898
S'type'
p1899
atp1900
Rp1901
sS'sb *'
p1902
g3
((lp1903
S'type'
p1904
atp1905
Rp1906
sS'std::basic_istream<char, std::char_traits<char> >::__istream_type &'
p1907
g3
((lp1908
S'return_type'
p1909
atp1910
Rp1911
sS'const std::ios_base::openmode'
p1912
g3
((lp1913
S'type'
p1914
atp1915
Rp1916
sS'pthread_mutex_t'
p1917
g3
((lp1918
S'type'
p1919
atp1920
Rp1921
sS'char *'
p1922
g3
((lp1923
S'return_type'
p1924
aS'type'
p1925
atp1926
Rp1927
sS'sb'
p1928
g3
((lp1929
S'type'
p1930
atp1931
Rp1932
ssS'common_word'
p1933
g2
(g3
tp1934
Rp1935
S'member variables'
p1936
g3
((lp1937
S'StructDecl'
p1938
aS'VarDecl'
p1939
aS'ParmDecl'
p1940
aS'EnumDecl'
p1941
aS'UnionDecl'
p1942
aS'FieldDecl'
p1943
atp1944
Rp1945
sS'Functions'
p1946
g3
((lp1947
S'FunctionDecl'
p1948
aS'CXXMethod'
p1949
aS'CXXConstructor'
p1950
atp1951
Rp1952
sS'methods'
p1953
g3
((lp1954
g1948
ag1949
ag1950
atp1955
Rp1956
sS'global variables'
p1957
g3
((lp1958
g1942
ag1938
ag1939
ag1941
atp1959
Rp1960
sS'variables'
p1961
g3
((lp1962
g1938
ag1939
ag1940
ag1941
ag1942
ag1943
atp1963
Rp1964
sS'constructors'
p1965
g3
((lp1966
g1948
ag1949
ag1950
atp1967
Rp1968
sS'Field'
p1969
g3
((lp1970
g1938
ag1939
ag1940
ag1941
ag1942
ag1943
atp1971
Rp1972
sS'initialiser'
p1973
g3
((lp1974
g1948
ag1949
ag1950
atp1975
Rp1976
sS'Function'
p1977
g3
((lp1978
g1948
ag1949
ag1950
atp1979
Rp1980
sS'functions'
p1981
g3
((lp1982
g1948
ag1949
ag1950
atp1983
Rp1984
sS'parameters'
p1985
g3
((lp1986
g1940
atp1987
Rp1988
sS'instance'
p1989
g3
((lp1990
g1938
ag1939
ag1940
ag1941
ag1942
ag1943
atp1991
Rp1992
sS'destructor'
p1993
g3
((lp1994
g1948
ag1949
ag1950
atp1995
Rp1996
sS'field'
p1997
g3
((lp1998
g1938
ag1939
ag1940
ag1941
ag1942
ag1943
atp1999
Rp2000
sS'datastructure'
p2001
g3
((lp2002
g1938
ag1939
ag1940
ag1941
ag1942
ag1943
atp2003
Rp2004
sS'routine'
p2005
g3
((lp2006
g1948
ag1949
ag1950
atp2007
Rp2008
sS'var'
p2009
g3
((lp2010
g1938
ag1939
ag1940
ag1941
ag1942
ag1943
atp2011
Rp2012
sS'structures'
p2013
g3
((lp2014
g1938
atp2015
Rp2016
sS'method'
p2017
g3
((lp2018
g1948
ag1949
ag1950
atp2019
Rp2020
sS'friend'
p2021
g3
((lp2022
S'FriendDecl'
p2023
atp2024
Rp2025
sS'function'
p2026
g3
((lp2027
g1948
ag1949
ag1950
atp2028
Rp2029
sS'member method'
p2030
g3
((lp2031
g1948
ag1949
ag1950
atp2032
Rp2033
sS'Fields'
p2034
g3
((lp2035
g1938
ag1939
ag1940
ag1941
ag1942
ag1943
atp2036
Rp2037
sS'Variable'
p2038
g3
((lp2039
g1938
ag1939
ag1940
ag1941
ag1942
ag1943
atp2040
Rp2041
sS'func'
p2042
g3
((lp2043
g1948
ag1949
ag1950
atp2044
Rp2045
sS'variable'
p2046
g3
((lp2047
g1938
ag1939
ag1940
ag1941
ag1942
ag1943
atp2048
Rp2049
sS'parameter'
p2050
g3
((lp2051
g1940
atp2052
Rp2053
sS'class'
p2054
g3
((lp2055
S'ClassDecl'
p2056
atp2057
Rp2058
sS'local variables'
p2059
g3
((lp2060
g1943
ag1940
atp2061
Rp2062
sS'fields'
p2063
g3
((lp2064
g1938
ag1939
ag1940
ag1941
ag1942
ag1943
atp2065
Rp2066
sS'Variables'
p2067
g3
((lp2068
g1938
ag1939
ag1940
ag1941
ag1942
ag1943
atp2069
Rp2070
sS'global variable'
p2071
g3
((lp2072
g1942
ag1938
ag1939
ag1941
atp2073
Rp2074
sS'local variable'
p2075
g3
((lp2076
g1943
ag1940
atp2077
Rp2078
sS'item'
p2079
g3
((lp2080
g1938
ag1939
ag1940
ag1941
ag1942
ag1943
atp2081
Rp2082
sS'classes'
p2083
g3
((lp2084
g2056
atp2085
Rp2086
sS'constructor'
p2087
g3
((lp2088
g1948
ag1949
ag1950
atp2089
Rp2090
sS'composite datastructure'
p2091
g3
((lp2092
g1938
ag1939
ag1940
ag1941
ag1942
ag1943
atp2093
Rp2094
sS'computation unit'
p2095
g3
((lp2096
g1948
ag1949
ag1950
atp2097
Rp2098
ss.