c__builtin__
set
p0
((lp1
S''
p2
aS'time.h'
p3
aS'basic_string.h'
p4
aS'ios_base.h'
p5
aS'fs.cpp'
p6
aS'fstream'
p7
aS'filesys.h'
p8
aS'pthread.h'
p9
aS'filesys.cpp'
p10
aS'structures.h'
p11
aS'iostream'
p12
aS'istream'
p13
aS'stdio.h'
p14
aS'basic_ios.h'
p15
aS'string.h'
p16
aS'ostream'
p17
aS'signal.h'
p18
aS'iosfwd'
p19
aS'sb.cpp'
p20
aS'test3.cpp'
p21
aS'postypes.h'
p22
aS'stringfwd.h'
p23
aS'in.cpp'
p24
aS'unistd.h'
p25
atp26
Rp27
.