ccollections
defaultdict
p0
(c__builtin__
list
p1
tp2
Rp3
S''
p4
(lp5
(S'time.h'
p6
I0
tp7
a(S'time.h_1'
p8
I0
tp9
a(S'ios_base.h'
p10
I0
tp11
a(S'fs.cpp'
p12
I0
tp13
a(S'stdio.h_1'
p14
I0
tp15
a(S'filesys.h'
p16
I0
tp17
a(S'filesys.cpp'
p18
I0
tp19
a(S'iosfwd_1'
p20
I0
tp21
a(S'pthread.h'
p22
I0
tp23
a(S'stdio.h'
p24
I0
tp25
a(S'iostream'
p26
I0
tp27
a(S'structures.h'
p28
I0
tp29
a(S'structures.h_1'
p30
I0
tp31
a(S'string.h'
p32
I0
tp33
a(S'signal.h'
p34
I0
tp35
a(S'filesys.h_1'
p36
I0
tp37
a(S'iosfwd'
p38
I0
tp39
a(S'test3.cpp'
p40
I0
tp41
a(S'sb.cpp'
p42
I0
tp43
a(S'in.cpp'
p44
I0
tp45
a(S'stringfwd.h'
p46
I0
tp47
a(S'unistd.h'
p48
I0
tp49
asS'status_myfs'
p50
(lp51
(S'filesys.h'
p52
F0.611111111111111
tp53
a(S'filesys.cpp'
p54
F0.10679611650485436
tp55
a(S'time.h'
p56
F0.0
tp57
a(S'time.h_1'
p58
F0.0
tp59
a(S'ios_base.h'
p60
F0.0
tp61
a(S'fs.cpp'
p62
F0.0
tp63
a(S'stdio.h_1'
p64
F0.0
tp65
a(S'iosfwd_1'
p66
F0.0
tp67
a(S'pthread.h'
p68
F0.0
tp69
a(S'stdio.h'
p70
F0.0
tp71
a(S'iostream'
p72
F0.0
tp73
a(S'structures.h'
p74
F0.0
tp75
a(S'structures.h_1'
p76
F0.0
tp77
a(S'string.h'
p78
F0.0
tp79
a(S'signal.h'
p80
F0.0
tp81
a(S'filesys.h_1'
p82
F0.0
tp83
a(S'iosfwd'
p84
F0.0
tp85
a(S'test3.cpp'
p86
F0.0
tp87
a(S'sb.cpp'
p88
F0.0
tp89
a(S'in.cpp'
p90
F0.0
tp91
a(S'stringfwd.h'
p92
F0.0
tp93
a(S'unistd.h'
p94
F0.0
tp95
asS'cout'
p96
(lp97
(S'iostream'
p98
F4.4
tp99
a(S'sb.cpp'
p100
F0.16296296296296298
tp101
a(S'in.cpp'
p102
F0.13333333333333336
tp103
a(S'fs.cpp'
p104
F0.05945945945945947
tp105
a(S'filesys.cpp'
p106
F0.04271844660194175
tp107
a(S'time.h'
p108
F0.0
tp109
a(S'time.h_1'
p110
F0.0
tp111
a(S'ios_base.h'
p112
F0.0
tp113
a(S'stdio.h_1'
p114
F0.0
tp115
a(S'filesys.h'
p116
F0.0
tp117
a(S'iosfwd_1'
p118
F0.0
tp119
a(S'pthread.h'
p120
F0.0
tp121
a(S'stdio.h'
p122
F0.0
tp123
a(S'structures.h'
p124
F0.0
tp125
a(S'structures.h_1'
p126
F0.0
tp127
a(S'string.h'
p128
F0.0
tp129
a(S'signal.h'
p130
F0.0
tp131
a(S'filesys.h_1'
p132
F0.0
tp133
a(S'iosfwd'
p134
F0.0
tp135
a(S'test3.cpp'
p136
F0.0
tp137
a(S'stringfwd.h'
p138
F0.0
tp139
a(S'unistd.h'
p140
F0.0
tp141
asS'restore'
p142
(lp143
(S'structures.h_1'
p144
F0.2046511627906977
tp145
a(S'structures.h'
p146
F0.16296296296296298
tp147
a(S'sb.cpp'
p148
F0.16296296296296298
tp149
a(S'in.cpp'
p150
F0.13333333333333336
tp151
a(S'filesys.cpp'
p152
F0.0854368932038835
tp153
a(S'time.h'
p154
F0.0
tp155
a(S'time.h_1'
p156
F0.0
tp157
a(S'ios_base.h'
p158
F0.0
tp159
a(S'fs.cpp'
p160
F0.0
tp161
a(S'stdio.h_1'
p162
F0.0
tp163
a(S'filesys.h'
p164
F0.0
tp165
a(S'iosfwd_1'
p166
F0.0
tp167
a(S'pthread.h'
p168
F0.0
tp169
a(S'stdio.h'
p170
F0.0
tp171
a(S'iostream'
p172
F0.0
tp173
a(S'string.h'
p174
F0.0
tp175
a(S'signal.h'
p176
F0.0
tp177
a(S'filesys.h_1'
p178
F0.0
tp179
a(S'iosfwd'
p180
F0.0
tp181
a(S'test3.cpp'
p182
F0.0
tp183
a(S'stringfwd.h'
p184
F0.0
tp185
a(S'unistd.h'
p186
F0.0
tp187
asS'dbbmap'
p188
(lp189
(S'sb.cpp'
p190
F0.2716049382716049
tp191
a(S'structures.h_1'
p192
F0.17054263565891473
tp193
a(S'structures.h'
p194
F0.13580246913580246
tp195
a(S'time.h'
p196
F0.0
tp197
a(S'time.h_1'
p198
F0.0
tp199
a(S'ios_base.h'
p200
F0.0
tp201
a(S'fs.cpp'
p202
F0.0
tp203
a(S'stdio.h_1'
p204
F0.0
tp205
a(S'filesys.h'
p206
F0.0
tp207
a(S'filesys.cpp'
p208
F0.0
tp209
a(S'iosfwd_1'
p210
F0.0
tp211
a(S'pthread.h'
p212
F0.0
tp213
a(S'stdio.h'
p214
F0.0
tp215
a(S'iostream'
p216
F0.0
tp217
a(S'string.h'
p218
F0.0
tp219
a(S'signal.h'
p220
F0.0
tp221
a(S'filesys.h_1'
p222
F0.0
tp223
a(S'iosfwd'
p224
F0.0
tp225
a(S'test3.cpp'
p226
F0.0
tp227
a(S'in.cpp'
p228
F0.0
tp229
a(S'stringfwd.h'
p230
F0.0
tp231
a(S'unistd.h'
p232
F0.0
tp233
asS'operator<<'
p234
(lp235
(S'time.h'
p236
I0
tp237
a(S'time.h_1'
p238
I0
tp239
a(S'ios_base.h'
p240
I0
tp241
a(S'fs.cpp'
p242
I0
tp243
a(S'stdio.h_1'
p244
I0
tp245
a(S'filesys.h'
p246
I0
tp247
a(S'filesys.cpp'
p248
I0
tp249
a(S'iosfwd_1'
p250
I0
tp251
a(S'pthread.h'
p252
I0
tp253
a(S'stdio.h'
p254
I0
tp255
a(S'iostream'
p256
I0
tp257
a(S'structures.h'
p258
I0
tp259
a(S'structures.h_1'
p260
I0
tp261
a(S'string.h'
p262
I0
tp263
a(S'signal.h'
p264
I0
tp265
a(S'filesys.h_1'
p266
I0
tp267
a(S'iosfwd'
p268
I0
tp269
a(S'test3.cpp'
p270
I0
tp271
a(S'sb.cpp'
p272
I0
tp273
a(S'in.cpp'
p274
I0
tp275
a(S'stringfwd.h'
p276
I0
tp277
a(S'unistd.h'
p278
I0
tp279
asS'is_open'
p280
(lp281
(S'time.h'
p282
I0
tp283
a(S'time.h_1'
p284
I0
tp285
a(S'ios_base.h'
p286
I0
tp287
a(S'fs.cpp'
p288
I0
tp289
a(S'stdio.h_1'
p290
I0
tp291
a(S'filesys.h'
p292
I0
tp293
a(S'filesys.cpp'
p294
I0
tp295
a(S'iosfwd_1'
p296
I0
tp297
a(S'pthread.h'
p298
I0
tp299
a(S'stdio.h'
p300
I0
tp301
a(S'iostream'
p302
I0
tp303
a(S'structures.h'
p304
I0
tp305
a(S'structures.h_1'
p306
I0
tp307
a(S'string.h'
p308
I0
tp309
a(S'signal.h'
p310
I0
tp311
a(S'filesys.h_1'
p312
I0
tp313
a(S'iosfwd'
p314
I0
tp315
a(S'test3.cpp'
p316
I0
tp317
a(S'sb.cpp'
p318
I0
tp319
a(S'in.cpp'
p320
I0
tp321
a(S'stringfwd.h'
p322
I0
tp323
a(S'unistd.h'
p324
I0
tp325
asS'ffi'
p326
(lp327
(S'filesys.cpp'
p328
F0.21359223300970873
tp329
a(S'time.h'
p330
F0.0
tp331
a(S'time.h_1'
p332
F0.0
tp333
a(S'ios_base.h'
p334
F0.0
tp335
a(S'fs.cpp'
p336
F0.0
tp337
a(S'stdio.h_1'
p338
F0.0
tp339
a(S'filesys.h'
p340
F0.0
tp341
a(S'iosfwd_1'
p342
F0.0
tp343
a(S'pthread.h'
p344
F0.0
tp345
a(S'stdio.h'
p346
F0.0
tp347
a(S'iostream'
p348
F0.0
tp349
a(S'structures.h'
p350
F0.0
tp351
a(S'structures.h_1'
p352
F0.0
tp353
a(S'string.h'
p354
F0.0
tp355
a(S'signal.h'
p356
F0.0
tp357
a(S'filesys.h_1'
p358
F0.0
tp359
a(S'iosfwd'
p360
F0.0
tp361
a(S'test3.cpp'
p362
F0.0
tp363
a(S'sb.cpp'
p364
F0.0
tp365
a(S'in.cpp'
p366
F0.0
tp367
a(S'stringfwd.h'
p368
F0.0
tp369
a(S'unistd.h'
p370
F0.0
tp371
asS'fsys'
p372
(lp373
(S'structures.h_1'
p374
F0.6395348837209303
tp375
a(S'structures.h'
p376
F0.2037037037037037
tp377
a(S'fs.cpp'
p378
F0.14864864864864866
tp379
a(S'filesys.cpp'
p380
F0.10679611650485436
tp381
a(S'time.h'
p382
F0.0
tp383
a(S'time.h_1'
p384
F0.0
tp385
a(S'ios_base.h'
p386
F0.0
tp387
a(S'stdio.h_1'
p388
F0.0
tp389
a(S'filesys.h'
p390
F0.0
tp391
a(S'iosfwd_1'
p392
F0.0
tp393
a(S'pthread.h'
p394
F0.0
tp395
a(S'stdio.h'
p396
F0.0
tp397
a(S'iostream'
p398
F0.0
tp399
a(S'string.h'
p400
F0.0
tp401
a(S'signal.h'
p402
F0.0
tp403
a(S'filesys.h_1'
p404
F0.0
tp405
a(S'iosfwd'
p406
F0.0
tp407
a(S'test3.cpp'
p408
F0.0
tp409
a(S'sb.cpp'
p410
F0.0
tp411
a(S'in.cpp'
p412
F0.0
tp413
a(S'stringfwd.h'
p414
F0.0
tp415
a(S'unistd.h'
p416
F0.0
tp417
asS'gcount'
p418
(lp419
(S'time.h'
p420
I0
tp421
a(S'time.h_1'
p422
I0
tp423
a(S'ios_base.h'
p424
I0
tp425
a(S'fs.cpp'
p426
I0
tp427
a(S'stdio.h_1'
p428
I0
tp429
a(S'filesys.h'
p430
I0
tp431
a(S'filesys.cpp'
p432
I0
tp433
a(S'iosfwd_1'
p434
I0
tp435
a(S'pthread.h'
p436
I0
tp437
a(S'stdio.h'
p438
I0
tp439
a(S'iostream'
p440
I0
tp441
a(S'structures.h'
p442
I0
tp443
a(S'structures.h_1'
p444
I0
tp445
a(S'string.h'
p446
I0
tp447
a(S'signal.h'
p448
I0
tp449
a(S'filesys.h_1'
p450
I0
tp451
a(S'iosfwd'
p452
I0
tp453
a(S'test3.cpp'
p454
I0
tp455
a(S'sb.cpp'
p456
I0
tp457
a(S'in.cpp'
p458
I0
tp459
a(S'stringfwd.h'
p460
I0
tp461
a(S'unistd.h'
p462
I0
tp463
asS'inbmap'
p464
(lp465
(S'sb.cpp'
p466
F0.2716049382716049
tp467
a(S'structures.h_1'
p468
F0.17054263565891473
tp469
a(S'structures.h'
p470
F0.13580246913580246
tp471
a(S'time.h'
p472
F0.0
tp473
a(S'time.h_1'
p474
F0.0
tp475
a(S'ios_base.h'
p476
F0.0
tp477
a(S'fs.cpp'
p478
F0.0
tp479
a(S'stdio.h_1'
p480
F0.0
tp481
a(S'filesys.h'
p482
F0.0
tp483
a(S'filesys.cpp'
p484
F0.0
tp485
a(S'iosfwd_1'
p486
F0.0
tp487
a(S'pthread.h'
p488
F0.0
tp489
a(S'stdio.h'
p490
F0.0
tp491
a(S'iostream'
p492
F0.0
tp493
a(S'string.h'
p494
F0.0
tp495
a(S'signal.h'
p496
F0.0
tp497
a(S'filesys.h_1'
p498
F0.0
tp499
a(S'iosfwd'
p500
F0.0
tp501
a(S'test3.cpp'
p502
F0.0
tp503
a(S'in.cpp'
p504
F0.0
tp505
a(S'stringfwd.h'
p506
F0.0
tp507
a(S'unistd.h'
p508
F0.0
tp509
asS'pointer'
p510
(lp511
(S'structures.h_1'
p512
F0.17054263565891473
tp513
a(S'structures.h'
p514
F0.13580246913580246
tp515
a(S'filesys.cpp'
p516
F0.07119741100323623
tp517
a(S'time.h'
p518
F0.0
tp519
a(S'time.h_1'
p520
F0.0
tp521
a(S'ios_base.h'
p522
F0.0
tp523
a(S'fs.cpp'
p524
F0.0
tp525
a(S'stdio.h_1'
p526
F0.0
tp527
a(S'filesys.h'
p528
F0.0
tp529
a(S'iosfwd_1'
p530
F0.0
tp531
a(S'pthread.h'
p532
F0.0
tp533
a(S'stdio.h'
p534
F0.0
tp535
a(S'iostream'
p536
F0.0
tp537
a(S'string.h'
p538
F0.0
tp539
a(S'signal.h'
p540
F0.0
tp541
a(S'filesys.h_1'
p542
F0.0
tp543
a(S'iosfwd'
p544
F0.0
tp545
a(S'test3.cpp'
p546
F0.0
tp547
a(S'sb.cpp'
p548
F0.0
tp549
a(S'in.cpp'
p550
F0.0
tp551
a(S'stringfwd.h'
p552
F0.0
tp553
a(S'unistd.h'
p554
F0.0
tp555
asS'find'
p556
(lp557
(S'fs.cpp'
p558
F0.5945945945945946
tp559
a(S'time.h'
p560
F0.0
tp561
a(S'time.h_1'
p562
F0.0
tp563
a(S'ios_base.h'
p564
F0.0
tp565
a(S'stdio.h_1'
p566
F0.0
tp567
a(S'filesys.h'
p568
F0.0
tp569
a(S'filesys.cpp'
p570
F0.0
tp571
a(S'iosfwd_1'
p572
F0.0
tp573
a(S'pthread.h'
p574
F0.0
tp575
a(S'stdio.h'
p576
F0.0
tp577
a(S'iostream'
p578
F0.0
tp579
a(S'structures.h'
p580
F0.0
tp581
a(S'structures.h_1'
p582
F0.0
tp583
a(S'string.h'
p584
F0.0
tp585
a(S'signal.h'
p586
F0.0
tp587
a(S'filesys.h_1'
p588
F0.0
tp589
a(S'iosfwd'
p590
F0.0
tp591
a(S'test3.cpp'
p592
F0.0
tp593
a(S'sb.cpp'
p594
F0.0
tp595
a(S'in.cpp'
p596
F0.0
tp597
a(S'stringfwd.h'
p598
F0.0
tp599
a(S'unistd.h'
p600
F0.0
tp601
asS'rmdir_myfs'
p602
(lp603
(S'filesys.h_1'
p604
F0.4583333333333333
tp605
a(S'filesys.h'
p606
F0.4074074074074074
tp607
a(S'filesys.cpp'
p608
F0.07119741100323623
tp609
a(S'time.h'
p610
F0.0
tp611
a(S'time.h_1'
p612
F0.0
tp613
a(S'ios_base.h'
p614
F0.0
tp615
a(S'fs.cpp'
p616
F0.0
tp617
a(S'stdio.h_1'
p618
F0.0
tp619
a(S'iosfwd_1'
p620
F0.0
tp621
a(S'pthread.h'
p622
F0.0
tp623
a(S'stdio.h'
p624
F0.0
tp625
a(S'iostream'
p626
F0.0
tp627
a(S'structures.h'
p628
F0.0
tp629
a(S'structures.h_1'
p630
F0.0
tp631
a(S'string.h'
p632
F0.0
tp633
a(S'signal.h'
p634
F0.0
tp635
a(S'iosfwd'
p636
F0.0
tp637
a(S'test3.cpp'
p638
F0.0
tp639
a(S'sb.cpp'
p640
F0.0
tp641
a(S'in.cpp'
p642
F0.0
tp643
a(S'stringfwd.h'
p644
F0.0
tp645
a(S'unistd.h'
p646
F0.0
tp647
asS'progress_bar'
p648
(lp649
(S'structures.h_1'
p650
F0.12790697674418605
tp651
a(S'structures.h'
p652
F0.10185185185185185
tp653
a(S'fs.cpp'
p654
F0.07432432432432433
tp655
a(S'filesys.cpp'
p656
F0.05339805825242718
tp657
a(S'time.h'
p658
F0.0
tp659
a(S'time.h_1'
p660
F0.0
tp661
a(S'ios_base.h'
p662
F0.0
tp663
a(S'stdio.h_1'
p664
F0.0
tp665
a(S'filesys.h'
p666
F0.0
tp667
a(S'iosfwd_1'
p668
F0.0
tp669
a(S'pthread.h'
p670
F0.0
tp671
a(S'stdio.h'
p672
F0.0
tp673
a(S'iostream'
p674
F0.0
tp675
a(S'string.h'
p676
F0.0
tp677
a(S'signal.h'
p678
F0.0
tp679
a(S'filesys.h_1'
p680
F0.0
tp681
a(S'iosfwd'
p682
F0.0
tp683
a(S'test3.cpp'
p684
F0.0
tp685
a(S'sb.cpp'
p686
F0.0
tp687
a(S'in.cpp'
p688
F0.0
tp689
a(S'stringfwd.h'
p690
F0.0
tp691
a(S'unistd.h'
p692
F0.0
tp693
asS'show'
p694
(lp695
(S'filesys.cpp'
p696
F0.21359223300970873
tp697
a(S'time.h'
p698
F0.0
tp699
a(S'time.h_1'
p700
F0.0
tp701
a(S'ios_base.h'
p702
F0.0
tp703
a(S'fs.cpp'
p704
F0.0
tp705
a(S'stdio.h_1'
p706
F0.0
tp707
a(S'filesys.h'
p708
F0.0
tp709
a(S'iosfwd_1'
p710
F0.0
tp711
a(S'pthread.h'
p712
F0.0
tp713
a(S'stdio.h'
p714
F0.0
tp715
a(S'iostream'
p716
F0.0
tp717
a(S'structures.h'
p718
F0.0
tp719
a(S'structures.h_1'
p720
F0.0
tp721
a(S'string.h'
p722
F0.0
tp723
a(S'signal.h'
p724
F0.0
tp725
a(S'filesys.h_1'
p726
F0.0
tp727
a(S'iosfwd'
p728
F0.0
tp729
a(S'test3.cpp'
p730
F0.0
tp731
a(S'sb.cpp'
p732
F0.0
tp733
a(S'in.cpp'
p734
F0.0
tp735
a(S'stringfwd.h'
p736
F0.0
tp737
a(S'unistd.h'
p738
F0.0
tp739
asS'enno'
p740
(lp741
(S'fs.cpp'
p742
F0.14864864864864866
tp743
a(S'filesys.cpp'
p744
F0.10679611650485436
tp745
a(S'time.h'
p746
F0.0
tp747
a(S'time.h_1'
p748
F0.0
tp749
a(S'ios_base.h'
p750
F0.0
tp751
a(S'stdio.h_1'
p752
F0.0
tp753
a(S'filesys.h'
p754
F0.0
tp755
a(S'iosfwd_1'
p756
F0.0
tp757
a(S'pthread.h'
p758
F0.0
tp759
a(S'stdio.h'
p760
F0.0
tp761
a(S'iostream'
p762
F0.0
tp763
a(S'structures.h'
p764
F0.0
tp765
a(S'structures.h_1'
p766
F0.0
tp767
a(S'string.h'
p768
F0.0
tp769
a(S'signal.h'
p770
F0.0
tp771
a(S'filesys.h_1'
p772
F0.0
tp773
a(S'iosfwd'
p774
F0.0
tp775
a(S'test3.cpp'
p776
F0.0
tp777
a(S'sb.cpp'
p778
F0.0
tp779
a(S'in.cpp'
p780
F0.0
tp781
a(S'stringfwd.h'
p782
F0.0
tp783
a(S'unistd.h'
p784
F0.0
tp785
asS'init'
p786
(lp787
(S'filesys.cpp'
p788
F0.42718446601941745
tp789
a(S'time.h'
p790
F0.0
tp791
a(S'time.h_1'
p792
F0.0
tp793
a(S'ios_base.h'
p794
F0.0
tp795
a(S'fs.cpp'
p796
F0.0
tp797
a(S'stdio.h_1'
p798
F0.0
tp799
a(S'filesys.h'
p800
F0.0
tp801
a(S'iosfwd_1'
p802
F0.0
tp803
a(S'pthread.h'
p804
F0.0
tp805
a(S'stdio.h'
p806
F0.0
tp807
a(S'iostream'
p808
F0.0
tp809
a(S'structures.h'
p810
F0.0
tp811
a(S'structures.h_1'
p812
F0.0
tp813
a(S'string.h'
p814
F0.0
tp815
a(S'signal.h'
p816
F0.0
tp817
a(S'filesys.h_1'
p818
F0.0
tp819
a(S'iosfwd'
p820
F0.0
tp821
a(S'test3.cpp'
p822
F0.0
tp823
a(S'sb.cpp'
p824
F0.0
tp825
a(S'in.cpp'
p826
F0.0
tp827
a(S'stringfwd.h'
p828
F0.0
tp829
a(S'unistd.h'
p830
F0.0
tp831
asS'ftype'
p832
(lp833
(S'in.cpp'
p834
F0.13333333333333336
tp835
a(S'structures.h_1'
p836
F0.10232558139534885
tp837
a(S'structures.h'
p838
F0.08148148148148149
tp839
a(S'fs.cpp'
p840
F0.05945945945945947
tp841
a(S'filesys.cpp'
p842
F0.04271844660194175
tp843
a(S'time.h'
p844
F0.0
tp845
a(S'time.h_1'
p846
F0.0
tp847
a(S'ios_base.h'
p848
F0.0
tp849
a(S'stdio.h_1'
p850
F0.0
tp851
a(S'filesys.h'
p852
F0.0
tp853
a(S'iosfwd_1'
p854
F0.0
tp855
a(S'pthread.h'
p856
F0.0
tp857
a(S'stdio.h'
p858
F0.0
tp859
a(S'iostream'
p860
F0.0
tp861
a(S'string.h'
p862
F0.0
tp863
a(S'signal.h'
p864
F0.0
tp865
a(S'filesys.h_1'
p866
F0.0
tp867
a(S'iosfwd'
p868
F0.0
tp869
a(S'test3.cpp'
p870
F0.0
tp871
a(S'sb.cpp'
p872
F0.0
tp873
a(S'stringfwd.h'
p874
F0.0
tp875
a(S'unistd.h'
p876
F0.0
tp877
asS'bno'
p878
(lp879
(S'fs.cpp'
p880
F0.5945945945945946
tp881
a(S'filesys.cpp'
p882
F0.10679611650485436
tp883
a(S'time.h'
p884
F0.0
tp885
a(S'time.h_1'
p886
F0.0
tp887
a(S'ios_base.h'
p888
F0.0
tp889
a(S'stdio.h_1'
p890
F0.0
tp891
a(S'filesys.h'
p892
F0.0
tp893
a(S'iosfwd_1'
p894
F0.0
tp895
a(S'pthread.h'
p896
F0.0
tp897
a(S'stdio.h'
p898
F0.0
tp899
a(S'iostream'
p900
F0.0
tp901
a(S'structures.h'
p902
F0.0
tp903
a(S'structures.h_1'
p904
F0.0
tp905
a(S'string.h'
p906
F0.0
tp907
a(S'signal.h'
p908
F0.0
tp909
a(S'filesys.h_1'
p910
F0.0
tp911
a(S'iosfwd'
p912
F0.0
tp913
a(S'test3.cpp'
p914
F0.0
tp915
a(S'sb.cpp'
p916
F0.0
tp917
a(S'in.cpp'
p918
F0.0
tp919
a(S'stringfwd.h'
p920
F0.0
tp921
a(S'unistd.h'
p922
F0.0
tp923
asS'getpid'
p924
(lp925
(S'unistd.h'
p926
F5.5
tp927
a(S'fs.cpp'
p928
F0.14864864864864866
tp929
a(S'time.h'
p930
F0.0
tp931
a(S'time.h_1'
p932
F0.0
tp933
a(S'ios_base.h'
p934
F0.0
tp935
a(S'stdio.h_1'
p936
F0.0
tp937
a(S'filesys.h'
p938
F0.0
tp939
a(S'filesys.cpp'
p940
F0.0
tp941
a(S'iosfwd_1'
p942
F0.0
tp943
a(S'pthread.h'
p944
F0.0
tp945
a(S'stdio.h'
p946
F0.0
tp947
a(S'iostream'
p948
F0.0
tp949
a(S'structures.h'
p950
F0.0
tp951
a(S'structures.h_1'
p952
F0.0
tp953
a(S'string.h'
p954
F0.0
tp955
a(S'signal.h'
p956
F0.0
tp957
a(S'filesys.h_1'
p958
F0.0
tp959
a(S'iosfwd'
p960
F0.0
tp961
a(S'test3.cpp'
p962
F0.0
tp963
a(S'sb.cpp'
p964
F0.0
tp965
a(S'in.cpp'
p966
F0.0
tp967
a(S'stringfwd.h'
p968
F0.0
tp969
asS'main'
p970
(lp971
(S'test3.cpp'
p972
F0.7333333333333333
tp973
a(S'time.h'
p974
F0.0
tp975
a(S'time.h_1'
p976
F0.0
tp977
a(S'ios_base.h'
p978
F0.0
tp979
a(S'fs.cpp'
p980
F0.0
tp981
a(S'stdio.h_1'
p982
F0.0
tp983
a(S'filesys.h'
p984
F0.0
tp985
a(S'filesys.cpp'
p986
F0.0
tp987
a(S'iosfwd_1'
p988
F0.0
tp989
a(S'pthread.h'
p990
F0.0
tp991
a(S'stdio.h'
p992
F0.0
tp993
a(S'iostream'
p994
F0.0
tp995
a(S'structures.h'
p996
F0.0
tp997
a(S'structures.h_1'
p998
F0.0
tp999
a(S'string.h'
p1000
F0.0
tp1001
a(S'signal.h'
p1002
F0.0
tp1003
a(S'filesys.h_1'
p1004
F0.0
tp1005
a(S'iosfwd'
p1006
F0.0
tp1007
a(S'sb.cpp'
p1008
F0.0
tp1009
a(S'in.cpp'
p1010
F0.0
tp1011
a(S'stringfwd.h'
p1012
F0.0
tp1013
a(S'unistd.h'
p1014
F0.0
tp1015
asS'sem2'
p1016
(lp1017
(S'sb.cpp'
p1018
F0.8148148148148148
tp1019
a(S'time.h'
p1020
F0.0
tp1021
a(S'time.h_1'
p1022
F0.0
tp1023
a(S'ios_base.h'
p1024
F0.0
tp1025
a(S'fs.cpp'
p1026
F0.0
tp1027
a(S'stdio.h_1'
p1028
F0.0
tp1029
a(S'filesys.h'
p1030
F0.0
tp1031
a(S'filesys.cpp'
p1032
F0.0
tp1033
a(S'iosfwd_1'
p1034
F0.0
tp1035
a(S'pthread.h'
p1036
F0.0
tp1037
a(S'stdio.h'
p1038
F0.0
tp1039
a(S'iostream'
p1040
F0.0
tp1041
a(S'structures.h'
p1042
F0.0
tp1043
a(S'structures.h_1'
p1044
F0.0
tp1045
a(S'string.h'
p1046
F0.0
tp1047
a(S'signal.h'
p1048
F0.0
tp1049
a(S'filesys.h_1'
p1050
F0.0
tp1051
a(S'iosfwd'
p1052
F0.0
tp1053
a(S'test3.cpp'
p1054
F0.0
tp1055
a(S'in.cpp'
p1056
F0.0
tp1057
a(S'stringfwd.h'
p1058
F0.0
tp1059
a(S'unistd.h'
p1060
F0.0
tp1061
asS'sem1'
p1062
(lp1063
(S'sb.cpp'
p1064
F0.8148148148148148
tp1065
a(S'time.h'
p1066
F0.0
tp1067
a(S'time.h_1'
p1068
F0.0
tp1069
a(S'ios_base.h'
p1070
F0.0
tp1071
a(S'fs.cpp'
p1072
F0.0
tp1073
a(S'stdio.h_1'
p1074
F0.0
tp1075
a(S'filesys.h'
p1076
F0.0
tp1077
a(S'filesys.cpp'
p1078
F0.0
tp1079
a(S'iosfwd_1'
p1080
F0.0
tp1081
a(S'pthread.h'
p1082
F0.0
tp1083
a(S'stdio.h'
p1084
F0.0
tp1085
a(S'iostream'
p1086
F0.0
tp1087
a(S'structures.h'
p1088
F0.0
tp1089
a(S'structures.h_1'
p1090
F0.0
tp1091
a(S'string.h'
p1092
F0.0
tp1093
a(S'signal.h'
p1094
F0.0
tp1095
a(S'filesys.h_1'
p1096
F0.0
tp1097
a(S'iosfwd'
p1098
F0.0
tp1099
a(S'test3.cpp'
p1100
F0.0
tp1101
a(S'in.cpp'
p1102
F0.0
tp1103
a(S'stringfwd.h'
p1104
F0.0
tp1105
a(S'unistd.h'
p1106
F0.0
tp1107
asS'mydocs'
p1108
(lp1109
(S'test3.cpp'
p1110
F0.7333333333333333
tp1111
a(S'time.h'
p1112
F0.0
tp1113
a(S'time.h_1'
p1114
F0.0
tp1115
a(S'ios_base.h'
p1116
F0.0
tp1117
a(S'fs.cpp'
p1118
F0.0
tp1119
a(S'stdio.h_1'
p1120
F0.0
tp1121
a(S'filesys.h'
p1122
F0.0
tp1123
a(S'filesys.cpp'
p1124
F0.0
tp1125
a(S'iosfwd_1'
p1126
F0.0
tp1127
a(S'pthread.h'
p1128
F0.0
tp1129
a(S'stdio.h'
p1130
F0.0
tp1131
a(S'iostream'
p1132
F0.0
tp1133
a(S'structures.h'
p1134
F0.0
tp1135
a(S'structures.h_1'
p1136
F0.0
tp1137
a(S'string.h'
p1138
F0.0
tp1139
a(S'signal.h'
p1140
F0.0
tp1141
a(S'filesys.h_1'
p1142
F0.0
tp1143
a(S'iosfwd'
p1144
F0.0
tp1145
a(S'sb.cpp'
p1146
F0.0
tp1147
a(S'in.cpp'
p1148
F0.0
tp1149
a(S'stringfwd.h'
p1150
F0.0
tp1151
a(S'unistd.h'
p1152
F0.0
tp1153
asS'int2char'
p1154
(lp1155
(S'structures.h_1'
p1156
F0.17054263565891473
tp1157
a(S'structures.h'
p1158
F0.13580246913580246
tp1159
a(S'fs.cpp'
p1160
F0.0990990990990991
tp1161
a(S'time.h'
p1162
F0.0
tp1163
a(S'time.h_1'
p1164
F0.0
tp1165
a(S'ios_base.h'
p1166
F0.0
tp1167
a(S'stdio.h_1'
p1168
F0.0
tp1169
a(S'filesys.h'
p1170
F0.0
tp1171
a(S'filesys.cpp'
p1172
F0.0
tp1173
a(S'iosfwd_1'
p1174
F0.0
tp1175
a(S'pthread.h'
p1176
F0.0
tp1177
a(S'stdio.h'
p1178
F0.0
tp1179
a(S'iostream'
p1180
F0.0
tp1181
a(S'string.h'
p1182
F0.0
tp1183
a(S'signal.h'
p1184
F0.0
tp1185
a(S'filesys.h_1'
p1186
F0.0
tp1187
a(S'iosfwd'
p1188
F0.0
tp1189
a(S'test3.cpp'
p1190
F0.0
tp1191
a(S'sb.cpp'
p1192
F0.0
tp1193
a(S'in.cpp'
p1194
F0.0
tp1195
a(S'stringfwd.h'
p1196
F0.0
tp1197
a(S'unistd.h'
p1198
F0.0
tp1199
asS'inused'
p1200
(lp1201
(S'sb.cpp'
p1202
F0.2716049382716049
tp1203
a(S'structures.h_1'
p1204
F0.17054263565891473
tp1205
a(S'structures.h'
p1206
F0.13580246913580246
tp1207
a(S'time.h'
p1208
F0.0
tp1209
a(S'time.h_1'
p1210
F0.0
tp1211
a(S'ios_base.h'
p1212
F0.0
tp1213
a(S'fs.cpp'
p1214
F0.0
tp1215
a(S'stdio.h_1'
p1216
F0.0
tp1217
a(S'filesys.h'
p1218
F0.0
tp1219
a(S'filesys.cpp'
p1220
F0.0
tp1221
a(S'iosfwd_1'
p1222
F0.0
tp1223
a(S'pthread.h'
p1224
F0.0
tp1225
a(S'stdio.h'
p1226
F0.0
tp1227
a(S'iostream'
p1228
F0.0
tp1229
a(S'string.h'
p1230
F0.0
tp1231
a(S'signal.h'
p1232
F0.0
tp1233
a(S'filesys.h_1'
p1234
F0.0
tp1235
a(S'iosfwd'
p1236
F0.0
tp1237
a(S'test3.cpp'
p1238
F0.0
tp1239
a(S'in.cpp'
p1240
F0.0
tp1241
a(S'stringfwd.h'
p1242
F0.0
tp1243
a(S'unistd.h'
p1244
F0.0
tp1245
asS'restore_myfs'
p1246
(lp1247
(S'filesys.h_1'
p1248
F0.4583333333333333
tp1249
a(S'filesys.h'
p1250
F0.4074074074074074
tp1251
a(S'filesys.cpp'
p1252
F0.07119741100323623
tp1253
a(S'time.h'
p1254
F0.0
tp1255
a(S'time.h_1'
p1256
F0.0
tp1257
a(S'ios_base.h'
p1258
F0.0
tp1259
a(S'fs.cpp'
p1260
F0.0
tp1261
a(S'stdio.h_1'
p1262
F0.0
tp1263
a(S'iosfwd_1'
p1264
F0.0
tp1265
a(S'pthread.h'
p1266
F0.0
tp1267
a(S'stdio.h'
p1268
F0.0
tp1269
a(S'iostream'
p1270
F0.0
tp1271
a(S'structures.h'
p1272
F0.0
tp1273
a(S'structures.h_1'
p1274
F0.0
tp1275
a(S'string.h'
p1276
F0.0
tp1277
a(S'signal.h'
p1278
F0.0
tp1279
a(S'iosfwd'
p1280
F0.0
tp1281
a(S'test3.cpp'
p1282
F0.0
tp1283
a(S'sb.cpp'
p1284
F0.0
tp1285
a(S'in.cpp'
p1286
F0.0
tp1287
a(S'stringfwd.h'
p1288
F0.0
tp1289
a(S'unistd.h'
p1290
F0.0
tp1291
asS'md'
p1292
(lp1293
(S'filesys.cpp'
p1294
F0.21359223300970873
tp1295
a(S'time.h'
p1296
F0.0
tp1297
a(S'time.h_1'
p1298
F0.0
tp1299
a(S'ios_base.h'
p1300
F0.0
tp1301
a(S'fs.cpp'
p1302
F0.0
tp1303
a(S'stdio.h_1'
p1304
F0.0
tp1305
a(S'filesys.h'
p1306
F0.0
tp1307
a(S'iosfwd_1'
p1308
F0.0
tp1309
a(S'pthread.h'
p1310
F0.0
tp1311
a(S'stdio.h'
p1312
F0.0
tp1313
a(S'iostream'
p1314
F0.0
tp1315
a(S'structures.h'
p1316
F0.0
tp1317
a(S'structures.h_1'
p1318
F0.0
tp1319
a(S'string.h'
p1320
F0.0
tp1321
a(S'signal.h'
p1322
F0.0
tp1323
a(S'filesys.h_1'
p1324
F0.0
tp1325
a(S'iosfwd'
p1326
F0.0
tp1327
a(S'test3.cpp'
p1328
F0.0
tp1329
a(S'sb.cpp'
p1330
F0.0
tp1331
a(S'in.cpp'
p1332
F0.0
tp1333
a(S'stringfwd.h'
p1334
F0.0
tp1335
a(S'unistd.h'
p1336
F0.0
tp1337
asS'read'
p1338
(lp1339
(S'time.h'
p1340
I0
tp1341
a(S'time.h_1'
p1342
I0
tp1343
a(S'ios_base.h'
p1344
I0
tp1345
a(S'fs.cpp'
p1346
I0
tp1347
a(S'stdio.h_1'
p1348
I0
tp1349
a(S'filesys.h'
p1350
I0
tp1351
a(S'filesys.cpp'
p1352
I0
tp1353
a(S'iosfwd_1'
p1354
I0
tp1355
a(S'pthread.h'
p1356
I0
tp1357
a(S'stdio.h'
p1358
I0
tp1359
a(S'iostream'
p1360
I0
tp1361
a(S'structures.h'
p1362
I0
tp1363
a(S'structures.h_1'
p1364
I0
tp1365
a(S'string.h'
p1366
I0
tp1367
a(S'signal.h'
p1368
I0
tp1369
a(S'filesys.h_1'
p1370
I0
tp1371
a(S'iosfwd'
p1372
I0
tp1373
a(S'test3.cpp'
p1374
I0
tp1375
a(S'sb.cpp'
p1376
I0
tp1377
a(S'in.cpp'
p1378
I0
tp1379
a(S'stringfwd.h'
p1380
I0
tp1381
a(S'unistd.h'
p1382
I0
tp1383
asS'getppid'
p1384
(lp1385
(S'unistd.h'
p1386
F5.5
tp1387
a(S'fs.cpp'
p1388
F0.14864864864864866
tp1389
a(S'time.h'
p1390
F0.0
tp1391
a(S'time.h_1'
p1392
F0.0
tp1393
a(S'ios_base.h'
p1394
F0.0
tp1395
a(S'stdio.h_1'
p1396
F0.0
tp1397
a(S'filesys.h'
p1398
F0.0
tp1399
a(S'filesys.cpp'
p1400
F0.0
tp1401
a(S'iosfwd_1'
p1402
F0.0
tp1403
a(S'pthread.h'
p1404
F0.0
tp1405
a(S'stdio.h'
p1406
F0.0
tp1407
a(S'iostream'
p1408
F0.0
tp1409
a(S'structures.h'
p1410
F0.0
tp1411
a(S'structures.h_1'
p1412
F0.0
tp1413
a(S'string.h'
p1414
F0.0
tp1415
a(S'signal.h'
p1416
F0.0
tp1417
a(S'filesys.h_1'
p1418
F0.0
tp1419
a(S'iosfwd'
p1420
F0.0
tp1421
a(S'test3.cpp'
p1422
F0.0
tp1423
a(S'sb.cpp'
p1424
F0.0
tp1425
a(S'in.cpp'
p1426
F0.0
tp1427
a(S'stringfwd.h'
p1428
F0.0
tp1429
asS'pos'
p1430
(lp1431
(S'fs.cpp'
p1432
F0.2972972972972973
tp1433
a(S'time.h'
p1434
F0.0
tp1435
a(S'time.h_1'
p1436
F0.0
tp1437
a(S'ios_base.h'
p1438
F0.0
tp1439
a(S'stdio.h_1'
p1440
F0.0
tp1441
a(S'filesys.h'
p1442
F0.0
tp1443
a(S'filesys.cpp'
p1444
F0.0
tp1445
a(S'iosfwd_1'
p1446
F0.0
tp1447
a(S'pthread.h'
p1448
F0.0
tp1449
a(S'stdio.h'
p1450
F0.0
tp1451
a(S'iostream'
p1452
F0.0
tp1453
a(S'structures.h'
p1454
F0.0
tp1455
a(S'structures.h_1'
p1456
F0.0
tp1457
a(S'string.h'
p1458
F0.0
tp1459
a(S'signal.h'
p1460
F0.0
tp1461
a(S'filesys.h_1'
p1462
F0.0
tp1463
a(S'iosfwd'
p1464
F0.0
tp1465
a(S'test3.cpp'
p1466
F0.0
tp1467
a(S'sb.cpp'
p1468
F0.0
tp1469
a(S'in.cpp'
p1470
F0.0
tp1471
a(S'stringfwd.h'
p1472
F0.0
tp1473
a(S'unistd.h'
p1474
F0.0
tp1475
asS'superbl'
p1476
(lp1477
(S'structures.h_1'
p1478
F0.2558139534883721
tp1479
a(S'structures.h'
p1480
F0.10185185185185185
tp1481
a(S'fs.cpp'
p1482
F0.07432432432432433
tp1483
a(S'filesys.cpp'
p1484
F0.05339805825242718
tp1485
a(S'time.h'
p1486
F0.0
tp1487
a(S'time.h_1'
p1488
F0.0
tp1489
a(S'ios_base.h'
p1490
F0.0
tp1491
a(S'stdio.h_1'
p1492
F0.0
tp1493
a(S'filesys.h'
p1494
F0.0
tp1495
a(S'iosfwd_1'
p1496
F0.0
tp1497
a(S'pthread.h'
p1498
F0.0
tp1499
a(S'stdio.h'
p1500
F0.0
tp1501
a(S'iostream'
p1502
F0.0
tp1503
a(S'string.h'
p1504
F0.0
tp1505
a(S'signal.h'
p1506
F0.0
tp1507
a(S'filesys.h_1'
p1508
F0.0
tp1509
a(S'iosfwd'
p1510
F0.0
tp1511
a(S'test3.cpp'
p1512
F0.0
tp1513
a(S'sb.cpp'
p1514
F0.0
tp1515
a(S'in.cpp'
p1516
F0.0
tp1517
a(S'stringfwd.h'
p1518
F0.0
tp1519
a(S'unistd.h'
p1520
F0.0
tp1521
asS'curinno'
p1522
(lp1523
(S'filesys.cpp'
p1524
F0.21359223300970873
tp1525
a(S'time.h'
p1526
F0.0
tp1527
a(S'time.h_1'
p1528
F0.0
tp1529
a(S'ios_base.h'
p1530
F0.0
tp1531
a(S'fs.cpp'
p1532
F0.0
tp1533
a(S'stdio.h_1'
p1534
F0.0
tp1535
a(S'filesys.h'
p1536
F0.0
tp1537
a(S'iosfwd_1'
p1538
F0.0
tp1539
a(S'pthread.h'
p1540
F0.0
tp1541
a(S'stdio.h'
p1542
F0.0
tp1543
a(S'iostream'
p1544
F0.0
tp1545
a(S'structures.h'
p1546
F0.0
tp1547
a(S'structures.h_1'
p1548
F0.0
tp1549
a(S'string.h'
p1550
F0.0
tp1551
a(S'signal.h'
p1552
F0.0
tp1553
a(S'filesys.h_1'
p1554
F0.0
tp1555
a(S'iosfwd'
p1556
F0.0
tp1557
a(S'test3.cpp'
p1558
F0.0
tp1559
a(S'sb.cpp'
p1560
F0.0
tp1561
a(S'in.cpp'
p1562
F0.0
tp1563
a(S'stringfwd.h'
p1564
F0.0
tp1565
a(S'unistd.h'
p1566
F0.0
tp1567
asS'progress'
p1568
(lp1569
(S'fs.cpp'
p1570
F0.2972972972972973
tp1571
a(S'time.h'
p1572
F0.0
tp1573
a(S'time.h_1'
p1574
F0.0
tp1575
a(S'ios_base.h'
p1576
F0.0
tp1577
a(S'stdio.h_1'
p1578
F0.0
tp1579
a(S'filesys.h'
p1580
F0.0
tp1581
a(S'filesys.cpp'
p1582
F0.0
tp1583
a(S'iosfwd_1'
p1584
F0.0
tp1585
a(S'pthread.h'
p1586
F0.0
tp1587
a(S'stdio.h'
p1588
F0.0
tp1589
a(S'iostream'
p1590
F0.0
tp1591
a(S'structures.h'
p1592
F0.0
tp1593
a(S'structures.h_1'
p1594
F0.0
tp1595
a(S'string.h'
p1596
F0.0
tp1597
a(S'signal.h'
p1598
F0.0
tp1599
a(S'filesys.h_1'
p1600
F0.0
tp1601
a(S'iosfwd'
p1602
F0.0
tp1603
a(S'test3.cpp'
p1604
F0.0
tp1605
a(S'sb.cpp'
p1606
F0.0
tp1607
a(S'in.cpp'
p1608
F0.0
tp1609
a(S'stringfwd.h'
p1610
F0.0
tp1611
a(S'unistd.h'
p1612
F0.0
tp1613
asS'ls_myfs'
p1614
(lp1615
(S'filesys.h'
p1616
F0.4074074074074074
tp1617
a(S'test3.cpp'
p1618
F0.24444444444444444
tp1619
a(S'filesys.cpp'
p1620
F0.07119741100323623
tp1621
a(S'time.h'
p1622
F0.0
tp1623
a(S'time.h_1'
p1624
F0.0
tp1625
a(S'ios_base.h'
p1626
F0.0
tp1627
a(S'fs.cpp'
p1628
F0.0
tp1629
a(S'stdio.h_1'
p1630
F0.0
tp1631
a(S'iosfwd_1'
p1632
F0.0
tp1633
a(S'pthread.h'
p1634
F0.0
tp1635
a(S'stdio.h'
p1636
F0.0
tp1637
a(S'iostream'
p1638
F0.0
tp1639
a(S'structures.h'
p1640
F0.0
tp1641
a(S'structures.h_1'
p1642
F0.0
tp1643
a(S'string.h'
p1644
F0.0
tp1645
a(S'signal.h'
p1646
F0.0
tp1647
a(S'filesys.h_1'
p1648
F0.0
tp1649
a(S'iosfwd'
p1650
F0.0
tp1651
a(S'sb.cpp'
p1652
F0.0
tp1653
a(S'in.cpp'
p1654
F0.0
tp1655
a(S'stringfwd.h'
p1656
F0.0
tp1657
a(S'unistd.h'
p1658
F0.0
tp1659
asS'memcpy'
p1660
(lp1661
(S'string.h'
p1662
F5.5
tp1663
a(S'filesys.cpp'
p1664
F0.10679611650485436
tp1665
a(S'time.h'
p1666
F0.0
tp1667
a(S'time.h_1'
p1668
F0.0
tp1669
a(S'ios_base.h'
p1670
F0.0
tp1671
a(S'fs.cpp'
p1672
F0.0
tp1673
a(S'stdio.h_1'
p1674
F0.0
tp1675
a(S'filesys.h'
p1676
F0.0
tp1677
a(S'iosfwd_1'
p1678
F0.0
tp1679
a(S'pthread.h'
p1680
F0.0
tp1681
a(S'stdio.h'
p1682
F0.0
tp1683
a(S'iostream'
p1684
F0.0
tp1685
a(S'structures.h'
p1686
F0.0
tp1687
a(S'structures.h_1'
p1688
F0.0
tp1689
a(S'signal.h'
p1690
F0.0
tp1691
a(S'filesys.h_1'
p1692
F0.0
tp1693
a(S'iosfwd'
p1694
F0.0
tp1695
a(S'test3.cpp'
p1696
F0.0
tp1697
a(S'sb.cpp'
p1698
F0.0
tp1699
a(S'in.cpp'
p1700
F0.0
tp1701
a(S'stringfwd.h'
p1702
F0.0
tp1703
a(S'unistd.h'
p1704
F0.0
tp1705
asS'd'
p1706
(lp1707
(S'fs.cpp'
p1708
F0.5945945945945946
tp1709
a(S'time.h'
p1710
F0.0
tp1711
a(S'time.h_1'
p1712
F0.0
tp1713
a(S'ios_base.h'
p1714
F0.0
tp1715
a(S'stdio.h_1'
p1716
F0.0
tp1717
a(S'filesys.h'
p1718
F0.0
tp1719
a(S'filesys.cpp'
p1720
F0.0
tp1721
a(S'iosfwd_1'
p1722
F0.0
tp1723
a(S'pthread.h'
p1724
F0.0
tp1725
a(S'stdio.h'
p1726
F0.0
tp1727
a(S'iostream'
p1728
F0.0
tp1729
a(S'structures.h'
p1730
F0.0
tp1731
a(S'structures.h_1'
p1732
F0.0
tp1733
a(S'string.h'
p1734
F0.0
tp1735
a(S'signal.h'
p1736
F0.0
tp1737
a(S'filesys.h_1'
p1738
F0.0
tp1739
a(S'iosfwd'
p1740
F0.0
tp1741
a(S'test3.cpp'
p1742
F0.0
tp1743
a(S'sb.cpp'
p1744
F0.0
tp1745
a(S'in.cpp'
p1746
F0.0
tp1747
a(S'stringfwd.h'
p1748
F0.0
tp1749
a(S'unistd.h'
p1750
F0.0
tp1751
asS'chdir_myfs'
p1752
(lp1753
(S'filesys.h_1'
p1754
F0.34375
tp1755
a(S'filesys.h'
p1756
F0.3055555555555555
tp1757
a(S'test3.cpp'
p1758
F0.18333333333333332
tp1759
a(S'filesys.cpp'
p1760
F0.05339805825242718
tp1761
a(S'time.h'
p1762
F0.0
tp1763
a(S'time.h_1'
p1764
F0.0
tp1765
a(S'ios_base.h'
p1766
F0.0
tp1767
a(S'fs.cpp'
p1768
F0.0
tp1769
a(S'stdio.h_1'
p1770
F0.0
tp1771
a(S'iosfwd_1'
p1772
F0.0
tp1773
a(S'pthread.h'
p1774
F0.0
tp1775
a(S'stdio.h'
p1776
F0.0
tp1777
a(S'iostream'
p1778
F0.0
tp1779
a(S'structures.h'
p1780
F0.0
tp1781
a(S'structures.h_1'
p1782
F0.0
tp1783
a(S'string.h'
p1784
F0.0
tp1785
a(S'signal.h'
p1786
F0.0
tp1787
a(S'iosfwd'
p1788
F0.0
tp1789
a(S'sb.cpp'
p1790
F0.0
tp1791
a(S'in.cpp'
p1792
F0.0
tp1793
a(S'stringfwd.h'
p1794
F0.0
tp1795
a(S'unistd.h'
p1796
F0.0
tp1797
asS'mutex1'
p1798
(lp1799
(S'test3.cpp'
p1800
F0.7333333333333333
tp1801
a(S'time.h'
p1802
F0.0
tp1803
a(S'time.h_1'
p1804
F0.0
tp1805
a(S'ios_base.h'
p1806
F0.0
tp1807
a(S'fs.cpp'
p1808
F0.0
tp1809
a(S'stdio.h_1'
p1810
F0.0
tp1811
a(S'filesys.h'
p1812
F0.0
tp1813
a(S'filesys.cpp'
p1814
F0.0
tp1815
a(S'iosfwd_1'
p1816
F0.0
tp1817
a(S'pthread.h'
p1818
F0.0
tp1819
a(S'stdio.h'
p1820
F0.0
tp1821
a(S'iostream'
p1822
F0.0
tp1823
a(S'structures.h'
p1824
F0.0
tp1825
a(S'structures.h_1'
p1826
F0.0
tp1827
a(S'string.h'
p1828
F0.0
tp1829
a(S'signal.h'
p1830
F0.0
tp1831
a(S'filesys.h_1'
p1832
F0.0
tp1833
a(S'iosfwd'
p1834
F0.0
tp1835
a(S'sb.cpp'
p1836
F0.0
tp1837
a(S'in.cpp'
p1838
F0.0
tp1839
a(S'stringfwd.h'
p1840
F0.0
tp1841
a(S'unistd.h'
p1842
F0.0
tp1843
asS'name'
p1844
(lp1845
(S'in.cpp'
p1846
F0.2222222222222222
tp1847
a(S'fs.cpp'
p1848
F0.0990990990990991
tp1849
a(S'filesys.cpp'
p1850
F0.07119741100323623
tp1851
a(S'time.h'
p1852
F0.0
tp1853
a(S'time.h_1'
p1854
F0.0
tp1855
a(S'ios_base.h'
p1856
F0.0
tp1857
a(S'stdio.h_1'
p1858
F0.0
tp1859
a(S'filesys.h'
p1860
F0.0
tp1861
a(S'iosfwd_1'
p1862
F0.0
tp1863
a(S'pthread.h'
p1864
F0.0
tp1865
a(S'stdio.h'
p1866
F0.0
tp1867
a(S'iostream'
p1868
F0.0
tp1869
a(S'structures.h'
p1870
F0.0
tp1871
a(S'structures.h_1'
p1872
F0.0
tp1873
a(S'string.h'
p1874
F0.0
tp1875
a(S'signal.h'
p1876
F0.0
tp1877
a(S'filesys.h_1'
p1878
F0.0
tp1879
a(S'iosfwd'
p1880
F0.0
tp1881
a(S'test3.cpp'
p1882
F0.0
tp1883
a(S'sb.cpp'
p1884
F0.0
tp1885
a(S'stringfwd.h'
p1886
F0.0
tp1887
a(S'unistd.h'
p1888
F0.0
tp1889
asS'freeinode'
p1890
(lp1891
(S'sb.cpp'
p1892
F0.2037037037037037
tp1893
a(S'structures.h_1'
p1894
F0.12790697674418605
tp1895
a(S'structures.h'
p1896
F0.10185185185185185
tp1897
a(S'filesys.cpp'
p1898
F0.05339805825242718
tp1899
a(S'time.h'
p1900
F0.0
tp1901
a(S'time.h_1'
p1902
F0.0
tp1903
a(S'ios_base.h'
p1904
F0.0
tp1905
a(S'fs.cpp'
p1906
F0.0
tp1907
a(S'stdio.h_1'
p1908
F0.0
tp1909
a(S'filesys.h'
p1910
F0.0
tp1911
a(S'iosfwd_1'
p1912
F0.0
tp1913
a(S'pthread.h'
p1914
F0.0
tp1915
a(S'stdio.h'
p1916
F0.0
tp1917
a(S'iostream'
p1918
F0.0
tp1919
a(S'string.h'
p1920
F0.0
tp1921
a(S'signal.h'
p1922
F0.0
tp1923
a(S'filesys.h_1'
p1924
F0.0
tp1925
a(S'iosfwd'
p1926
F0.0
tp1927
a(S'test3.cpp'
p1928
F0.0
tp1929
a(S'in.cpp'
p1930
F0.0
tp1931
a(S'stringfwd.h'
p1932
F0.0
tp1933
a(S'unistd.h'
p1934
F0.0
tp1935
asS'dname'
p1936
(lp1937
(S'filesys.cpp'
p1938
F0.6407766990291263
tp1939
a(S'time.h'
p1940
F0.0
tp1941
a(S'time.h_1'
p1942
F0.0
tp1943
a(S'ios_base.h'
p1944
F0.0
tp1945
a(S'fs.cpp'
p1946
F0.0
tp1947
a(S'stdio.h_1'
p1948
F0.0
tp1949
a(S'filesys.h'
p1950
F0.0
tp1951
a(S'iosfwd_1'
p1952
F0.0
tp1953
a(S'pthread.h'
p1954
F0.0
tp1955
a(S'stdio.h'
p1956
F0.0
tp1957
a(S'iostream'
p1958
F0.0
tp1959
a(S'structures.h'
p1960
F0.0
tp1961
a(S'structures.h_1'
p1962
F0.0
tp1963
a(S'string.h'
p1964
F0.0
tp1965
a(S'signal.h'
p1966
F0.0
tp1967
a(S'filesys.h_1'
p1968
F0.0
tp1969
a(S'iosfwd'
p1970
F0.0
tp1971
a(S'test3.cpp'
p1972
F0.0
tp1973
a(S'sb.cpp'
p1974
F0.0
tp1975
a(S'in.cpp'
p1976
F0.0
tp1977
a(S'stringfwd.h'
p1978
F0.0
tp1979
a(S'unistd.h'
p1980
F0.0
tp1981
asS'chpwd'
p1982
(lp1983
(S'structures.h_1'
p1984
F0.12790697674418605
tp1985
a(S'structures.h'
p1986
F0.10185185185185185
tp1987
a(S'fs.cpp'
p1988
F0.07432432432432433
tp1989
a(S'filesys.cpp'
p1990
F0.05339805825242718
tp1991
a(S'time.h'
p1992
F0.0
tp1993
a(S'time.h_1'
p1994
F0.0
tp1995
a(S'ios_base.h'
p1996
F0.0
tp1997
a(S'stdio.h_1'
p1998
F0.0
tp1999
a(S'filesys.h'
p2000
F0.0
tp2001
a(S'iosfwd_1'
p2002
F0.0
tp2003
a(S'pthread.h'
p2004
F0.0
tp2005
a(S'stdio.h'
p2006
F0.0
tp2007
a(S'iostream'
p2008
F0.0
tp2009
a(S'string.h'
p2010
F0.0
tp2011
a(S'signal.h'
p2012
F0.0
tp2013
a(S'filesys.h_1'
p2014
F0.0
tp2015
a(S'iosfwd'
p2016
F0.0
tp2017
a(S'test3.cpp'
p2018
F0.0
tp2019
a(S'sb.cpp'
p2020
F0.0
tp2021
a(S'in.cpp'
p2022
F0.0
tp2023
a(S'stringfwd.h'
p2024
F0.0
tp2025
a(S'unistd.h'
p2026
F0.0
tp2027
asS'l'
p2028
(lp2029
(S'filesys.cpp'
p2030
F0.21359223300970873
tp2031
a(S'time.h'
p2032
F0.0
tp2033
a(S'time.h_1'
p2034
F0.0
tp2035
a(S'ios_base.h'
p2036
F0.0
tp2037
a(S'fs.cpp'
p2038
F0.0
tp2039
a(S'stdio.h_1'
p2040
F0.0
tp2041
a(S'filesys.h'
p2042
F0.0
tp2043
a(S'iosfwd_1'
p2044
F0.0
tp2045
a(S'pthread.h'
p2046
F0.0
tp2047
a(S'stdio.h'
p2048
F0.0
tp2049
a(S'iostream'
p2050
F0.0
tp2051
a(S'structures.h'
p2052
F0.0
tp2053
a(S'structures.h_1'
p2054
F0.0
tp2055
a(S'string.h'
p2056
F0.0
tp2057
a(S'signal.h'
p2058
F0.0
tp2059
a(S'filesys.h_1'
p2060
F0.0
tp2061
a(S'iosfwd'
p2062
F0.0
tp2063
a(S'test3.cpp'
p2064
F0.0
tp2065
a(S'sb.cpp'
p2066
F0.0
tp2067
a(S'in.cpp'
p2068
F0.0
tp2069
a(S'stringfwd.h'
p2070
F0.0
tp2071
a(S'unistd.h'
p2072
F0.0
tp2073
asS'spused'
p2074
(lp2075
(S'fs.cpp'
p2076
F0.2972972972972973
tp2077
a(S'time.h'
p2078
F0.0
tp2079
a(S'time.h_1'
p2080
F0.0
tp2081
a(S'ios_base.h'
p2082
F0.0
tp2083
a(S'stdio.h_1'
p2084
F0.0
tp2085
a(S'filesys.h'
p2086
F0.0
tp2087
a(S'filesys.cpp'
p2088
F0.0
tp2089
a(S'iosfwd_1'
p2090
F0.0
tp2091
a(S'pthread.h'
p2092
F0.0
tp2093
a(S'stdio.h'
p2094
F0.0
tp2095
a(S'iostream'
p2096
F0.0
tp2097
a(S'structures.h'
p2098
F0.0
tp2099
a(S'structures.h_1'
p2100
F0.0
tp2101
a(S'string.h'
p2102
F0.0
tp2103
a(S'signal.h'
p2104
F0.0
tp2105
a(S'filesys.h_1'
p2106
F0.0
tp2107
a(S'iosfwd'
p2108
F0.0
tp2109
a(S'test3.cpp'
p2110
F0.0
tp2111
a(S'sb.cpp'
p2112
F0.0
tp2113
a(S'in.cpp'
p2114
F0.0
tp2115
a(S'stringfwd.h'
p2116
F0.0
tp2117
a(S'unistd.h'
p2118
F0.0
tp2119
asS'mode'
p2120
(lp2121
(S'structures.h_1'
p2122
F0.17054263565891473
tp2123
a(S'filesys.cpp'
p2124
F0.14239482200647247
tp2125
a(S'structures.h'
p2126
F0.13580246913580246
tp2127
a(S'time.h'
p2128
F0.0
tp2129
a(S'time.h_1'
p2130
F0.0
tp2131
a(S'ios_base.h'
p2132
F0.0
tp2133
a(S'fs.cpp'
p2134
F0.0
tp2135
a(S'stdio.h_1'
p2136
F0.0
tp2137
a(S'filesys.h'
p2138
F0.0
tp2139
a(S'iosfwd_1'
p2140
F0.0
tp2141
a(S'pthread.h'
p2142
F0.0
tp2143
a(S'stdio.h'
p2144
F0.0
tp2145
a(S'iostream'
p2146
F0.0
tp2147
a(S'string.h'
p2148
F0.0
tp2149
a(S'signal.h'
p2150
F0.0
tp2151
a(S'filesys.h_1'
p2152
F0.0
tp2153
a(S'iosfwd'
p2154
F0.0
tp2155
a(S'test3.cpp'
p2156
F0.0
tp2157
a(S'sb.cpp'
p2158
F0.0
tp2159
a(S'in.cpp'
p2160
F0.0
tp2161
a(S'stringfwd.h'
p2162
F0.0
tp2163
a(S'unistd.h'
p2164
F0.0
tp2165
asS'kill'
p2166
(lp2167
(S'signal.h'
p2168
F11.0
tp2169
a(S'fs.cpp'
p2170
F0.14864864864864866
tp2171
a(S'time.h'
p2172
F0.0
tp2173
a(S'time.h_1'
p2174
F0.0
tp2175
a(S'ios_base.h'
p2176
F0.0
tp2177
a(S'stdio.h_1'
p2178
F0.0
tp2179
a(S'filesys.h'
p2180
F0.0
tp2181
a(S'filesys.cpp'
p2182
F0.0
tp2183
a(S'iosfwd_1'
p2184
F0.0
tp2185
a(S'pthread.h'
p2186
F0.0
tp2187
a(S'stdio.h'
p2188
F0.0
tp2189
a(S'iostream'
p2190
F0.0
tp2191
a(S'structures.h'
p2192
F0.0
tp2193
a(S'structures.h_1'
p2194
F0.0
tp2195
a(S'string.h'
p2196
F0.0
tp2197
a(S'filesys.h_1'
p2198
F0.0
tp2199
a(S'iosfwd'
p2200
F0.0
tp2201
a(S'test3.cpp'
p2202
F0.0
tp2203
a(S'sb.cpp'
p2204
F0.0
tp2205
a(S'in.cpp'
p2206
F0.0
tp2207
a(S'stringfwd.h'
p2208
F0.0
tp2209
a(S'unistd.h'
p2210
F0.0
tp2211
asS'strcmp'
p2212
(lp2213
(S'string.h'
p2214
F3.6666666666666665
tp2215
a(S'fs.cpp'
p2216
F0.0990990990990991
tp2217
a(S'filesys.cpp'
p2218
F0.07119741100323623
tp2219
a(S'time.h'
p2220
F0.0
tp2221
a(S'time.h_1'
p2222
F0.0
tp2223
a(S'ios_base.h'
p2224
F0.0
tp2225
a(S'stdio.h_1'
p2226
F0.0
tp2227
a(S'filesys.h'
p2228
F0.0
tp2229
a(S'iosfwd_1'
p2230
F0.0
tp2231
a(S'pthread.h'
p2232
F0.0
tp2233
a(S'stdio.h'
p2234
F0.0
tp2235
a(S'iostream'
p2236
F0.0
tp2237
a(S'structures.h'
p2238
F0.0
tp2239
a(S'structures.h_1'
p2240
F0.0
tp2241
a(S'signal.h'
p2242
F0.0
tp2243
a(S'filesys.h_1'
p2244
F0.0
tp2245
a(S'iosfwd'
p2246
F0.0
tp2247
a(S'test3.cpp'
p2248
F0.0
tp2249
a(S'sb.cpp'
p2250
F0.0
tp2251
a(S'in.cpp'
p2252
F0.0
tp2253
a(S'stringfwd.h'
p2254
F0.0
tp2255
a(S'unistd.h'
p2256
F0.0
tp2257
asS'force'
p2258
(lp2259
(S'fs.cpp'
p2260
F0.2972972972972973
tp2261
a(S'time.h'
p2262
F0.0
tp2263
a(S'time.h_1'
p2264
F0.0
tp2265
a(S'ios_base.h'
p2266
F0.0
tp2267
a(S'stdio.h_1'
p2268
F0.0
tp2269
a(S'filesys.h'
p2270
F0.0
tp2271
a(S'filesys.cpp'
p2272
F0.0
tp2273
a(S'iosfwd_1'
p2274
F0.0
tp2275
a(S'pthread.h'
p2276
F0.0
tp2277
a(S'stdio.h'
p2278
F0.0
tp2279
a(S'iostream'
p2280
F0.0
tp2281
a(S'structures.h'
p2282
F0.0
tp2283
a(S'structures.h_1'
p2284
F0.0
tp2285
a(S'string.h'
p2286
F0.0
tp2287
a(S'signal.h'
p2288
F0.0
tp2289
a(S'filesys.h_1'
p2290
F0.0
tp2291
a(S'iosfwd'
p2292
F0.0
tp2293
a(S'test3.cpp'
p2294
F0.0
tp2295
a(S'sb.cpp'
p2296
F0.0
tp2297
a(S'in.cpp'
p2298
F0.0
tp2299
a(S'stringfwd.h'
p2300
F0.0
tp2301
a(S'unistd.h'
p2302
F0.0
tp2303
asS'snprintf'
p2304
(lp2305
(S'stdio.h'
p2306
F7.333333333333333
tp2307
a(S'fs.cpp'
p2308
F0.0990990990990991
tp2309
a(S'filesys.cpp'
p2310
F0.07119741100323623
tp2311
a(S'time.h'
p2312
F0.0
tp2313
a(S'time.h_1'
p2314
F0.0
tp2315
a(S'ios_base.h'
p2316
F0.0
tp2317
a(S'stdio.h_1'
p2318
F0.0
tp2319
a(S'filesys.h'
p2320
F0.0
tp2321
a(S'iosfwd_1'
p2322
F0.0
tp2323
a(S'pthread.h'
p2324
F0.0
tp2325
a(S'iostream'
p2326
F0.0
tp2327
a(S'structures.h'
p2328
F0.0
tp2329
a(S'structures.h_1'
p2330
F0.0
tp2331
a(S'string.h'
p2332
F0.0
tp2333
a(S'signal.h'
p2334
F0.0
tp2335
a(S'filesys.h_1'
p2336
F0.0
tp2337
a(S'iosfwd'
p2338
F0.0
tp2339
a(S'test3.cpp'
p2340
F0.0
tp2341
a(S'sb.cpp'
p2342
F0.0
tp2343
a(S'in.cpp'
p2344
F0.0
tp2345
a(S'stringfwd.h'
p2346
F0.0
tp2347
a(S'unistd.h'
p2348
F0.0
tp2349
asS'maxin'
p2350
(lp2351
(S'sb.cpp'
p2352
F0.2716049382716049
tp2353
a(S'structures.h_1'
p2354
F0.17054263565891473
tp2355
a(S'structures.h'
p2356
F0.13580246913580246
tp2357
a(S'time.h'
p2358
F0.0
tp2359
a(S'time.h_1'
p2360
F0.0
tp2361
a(S'ios_base.h'
p2362
F0.0
tp2363
a(S'fs.cpp'
p2364
F0.0
tp2365
a(S'stdio.h_1'
p2366
F0.0
tp2367
a(S'filesys.h'
p2368
F0.0
tp2369
a(S'filesys.cpp'
p2370
F0.0
tp2371
a(S'iosfwd_1'
p2372
F0.0
tp2373
a(S'pthread.h'
p2374
F0.0
tp2375
a(S'stdio.h'
p2376
F0.0
tp2377
a(S'iostream'
p2378
F0.0
tp2379
a(S'string.h'
p2380
F0.0
tp2381
a(S'signal.h'
p2382
F0.0
tp2383
a(S'filesys.h_1'
p2384
F0.0
tp2385
a(S'iosfwd'
p2386
F0.0
tp2387
a(S'test3.cpp'
p2388
F0.0
tp2389
a(S'in.cpp'
p2390
F0.0
tp2391
a(S'stringfwd.h'
p2392
F0.0
tp2393
a(S'unistd.h'
p2394
F0.0
tp2395
asS'lno'
p2396
(lp2397
(S'fs.cpp'
p2398
F0.14864864864864866
tp2399
a(S'filesys.cpp'
p2400
F0.10679611650485436
tp2401
a(S'time.h'
p2402
F0.0
tp2403
a(S'time.h_1'
p2404
F0.0
tp2405
a(S'ios_base.h'
p2406
F0.0
tp2407
a(S'stdio.h_1'
p2408
F0.0
tp2409
a(S'filesys.h'
p2410
F0.0
tp2411
a(S'iosfwd_1'
p2412
F0.0
tp2413
a(S'pthread.h'
p2414
F0.0
tp2415
a(S'stdio.h'
p2416
F0.0
tp2417
a(S'iostream'
p2418
F0.0
tp2419
a(S'structures.h'
p2420
F0.0
tp2421
a(S'structures.h_1'
p2422
F0.0
tp2423
a(S'string.h'
p2424
F0.0
tp2425
a(S'signal.h'
p2426
F0.0
tp2427
a(S'filesys.h_1'
p2428
F0.0
tp2429
a(S'iosfwd'
p2430
F0.0
tp2431
a(S'test3.cpp'
p2432
F0.0
tp2433
a(S'sb.cpp'
p2434
F0.0
tp2435
a(S'in.cpp'
p2436
F0.0
tp2437
a(S'stringfwd.h'
p2438
F0.0
tp2439
a(S'unistd.h'
p2440
F0.0
tp2441
asS'inibno'
p2442
(lp2443
(S'filesys.cpp'
p2444
F0.42718446601941745
tp2445
a(S'time.h'
p2446
F0.0
tp2447
a(S'time.h_1'
p2448
F0.0
tp2449
a(S'ios_base.h'
p2450
F0.0
tp2451
a(S'fs.cpp'
p2452
F0.0
tp2453
a(S'stdio.h_1'
p2454
F0.0
tp2455
a(S'filesys.h'
p2456
F0.0
tp2457
a(S'iosfwd_1'
p2458
F0.0
tp2459
a(S'pthread.h'
p2460
F0.0
tp2461
a(S'stdio.h'
p2462
F0.0
tp2463
a(S'iostream'
p2464
F0.0
tp2465
a(S'structures.h'
p2466
F0.0
tp2467
a(S'structures.h_1'
p2468
F0.0
tp2469
a(S'string.h'
p2470
F0.0
tp2471
a(S'signal.h'
p2472
F0.0
tp2473
a(S'filesys.h_1'
p2474
F0.0
tp2475
a(S'iosfwd'
p2476
F0.0
tp2477
a(S'test3.cpp'
p2478
F0.0
tp2479
a(S'sb.cpp'
p2480
F0.0
tp2481
a(S'in.cpp'
p2482
F0.0
tp2483
a(S'stringfwd.h'
p2484
F0.0
tp2485
a(S'unistd.h'
p2486
F0.0
tp2487
asS'lastrd'
p2488
(lp2489
(S'structures.h_1'
p2490
F0.2046511627906977
tp2491
a(S'in.cpp'
p2492
F0.13333333333333336
tp2493
a(S'structures.h'
p2494
F0.08148148148148149
tp2495
a(S'fs.cpp'
p2496
F0.05945945945945947
tp2497
a(S'filesys.cpp'
p2498
F0.04271844660194175
tp2499
a(S'time.h'
p2500
F0.0
tp2501
a(S'time.h_1'
p2502
F0.0
tp2503
a(S'ios_base.h'
p2504
F0.0
tp2505
a(S'stdio.h_1'
p2506
F0.0
tp2507
a(S'filesys.h'
p2508
F0.0
tp2509
a(S'iosfwd_1'
p2510
F0.0
tp2511
a(S'pthread.h'
p2512
F0.0
tp2513
a(S'stdio.h'
p2514
F0.0
tp2515
a(S'iostream'
p2516
F0.0
tp2517
a(S'string.h'
p2518
F0.0
tp2519
a(S'signal.h'
p2520
F0.0
tp2521
a(S'filesys.h_1'
p2522
F0.0
tp2523
a(S'iosfwd'
p2524
F0.0
tp2525
a(S'test3.cpp'
p2526
F0.0
tp2527
a(S'sb.cpp'
p2528
F0.0
tp2529
a(S'stringfwd.h'
p2530
F0.0
tp2531
a(S'unistd.h'
p2532
F0.0
tp2533
asS'flush'
p2534
(lp2535
(S'time.h'
p2536
I0
tp2537
a(S'time.h_1'
p2538
I0
tp2539
a(S'ios_base.h'
p2540
I0
tp2541
a(S'fs.cpp'
p2542
I0
tp2543
a(S'stdio.h_1'
p2544
I0
tp2545
a(S'filesys.h'
p2546
I0
tp2547
a(S'filesys.cpp'
p2548
I0
tp2549
a(S'iosfwd_1'
p2550
I0
tp2551
a(S'pthread.h'
p2552
I0
tp2553
a(S'stdio.h'
p2554
I0
tp2555
a(S'iostream'
p2556
I0
tp2557
a(S'structures.h'
p2558
I0
tp2559
a(S'structures.h_1'
p2560
I0
tp2561
a(S'string.h'
p2562
I0
tp2563
a(S'signal.h'
p2564
I0
tp2565
a(S'filesys.h_1'
p2566
I0
tp2567
a(S'iosfwd'
p2568
I0
tp2569
a(S'test3.cpp'
p2570
I0
tp2571
a(S'sb.cpp'
p2572
I0
tp2573
a(S'in.cpp'
p2574
I0
tp2575
a(S'stringfwd.h'
p2576
I0
tp2577
a(S'unistd.h'
p2578
I0
tp2579
asS'inno'
p2580
(lp2581
(S'fs.cpp'
p2582
F0.22297297297297297
tp2583
a(S'structures.h_1'
p2584
F0.12790697674418605
tp2585
a(S'filesys.cpp'
p2586
F0.10679611650485436
tp2587
a(S'structures.h'
p2588
F0.10185185185185185
tp2589
a(S'time.h'
p2590
F0.0
tp2591
a(S'time.h_1'
p2592
F0.0
tp2593
a(S'ios_base.h'
p2594
F0.0
tp2595
a(S'stdio.h_1'
p2596
F0.0
tp2597
a(S'filesys.h'
p2598
F0.0
tp2599
a(S'iosfwd_1'
p2600
F0.0
tp2601
a(S'pthread.h'
p2602
F0.0
tp2603
a(S'stdio.h'
p2604
F0.0
tp2605
a(S'iostream'
p2606
F0.0
tp2607
a(S'string.h'
p2608
F0.0
tp2609
a(S'signal.h'
p2610
F0.0
tp2611
a(S'filesys.h_1'
p2612
F0.0
tp2613
a(S'iosfwd'
p2614
F0.0
tp2615
a(S'test3.cpp'
p2616
F0.0
tp2617
a(S'sb.cpp'
p2618
F0.0
tp2619
a(S'in.cpp'
p2620
F0.0
tp2621
a(S'stringfwd.h'
p2622
F0.0
tp2623
a(S'unistd.h'
p2624
F0.0
tp2625
asS'close'
p2626
(lp2627
(S'time.h'
p2628
I0
tp2629
a(S'time.h_1'
p2630
I0
tp2631
a(S'ios_base.h'
p2632
I0
tp2633
a(S'fs.cpp'
p2634
I0
tp2635
a(S'stdio.h_1'
p2636
I0
tp2637
a(S'filesys.h'
p2638
I0
tp2639
a(S'filesys.cpp'
p2640
I0
tp2641
a(S'iosfwd_1'
p2642
I0
tp2643
a(S'pthread.h'
p2644
I0
tp2645
a(S'stdio.h'
p2646
I0
tp2647
a(S'iostream'
p2648
I0
tp2649
a(S'structures.h'
p2650
I0
tp2651
a(S'structures.h_1'
p2652
I0
tp2653
a(S'string.h'
p2654
I0
tp2655
a(S'signal.h'
p2656
I0
tp2657
a(S'filesys.h_1'
p2658
I0
tp2659
a(S'iosfwd'
p2660
I0
tp2661
a(S'test3.cpp'
p2662
I0
tp2663
a(S'sb.cpp'
p2664
I0
tp2665
a(S'in.cpp'
p2666
I0
tp2667
a(S'stringfwd.h'
p2668
I0
tp2669
a(S'unistd.h'
p2670
I0
tp2671
asS'out'
p2672
(lp2673
(S'time.h'
p2674
I0
tp2675
a(S'time.h_1'
p2676
I0
tp2677
a(S'ios_base.h'
p2678
I0
tp2679
a(S'fs.cpp'
p2680
I0
tp2681
a(S'stdio.h_1'
p2682
I0
tp2683
a(S'filesys.h'
p2684
I0
tp2685
a(S'filesys.cpp'
p2686
I0
tp2687
a(S'iosfwd_1'
p2688
I0
tp2689
a(S'pthread.h'
p2690
I0
tp2691
a(S'stdio.h'
p2692
I0
tp2693
a(S'iostream'
p2694
I0
tp2695
a(S'structures.h'
p2696
I0
tp2697
a(S'structures.h_1'
p2698
I0
tp2699
a(S'string.h'
p2700
I0
tp2701
a(S'signal.h'
p2702
I0
tp2703
a(S'filesys.h_1'
p2704
I0
tp2705
a(S'iosfwd'
p2706
I0
tp2707
a(S'test3.cpp'
p2708
I0
tp2709
a(S'sb.cpp'
p2710
I0
tp2711
a(S'in.cpp'
p2712
I0
tp2713
a(S'stringfwd.h'
p2714
I0
tp2715
a(S'unistd.h'
p2716
I0
tp2717
asS'tmp'
p2718
(lp2719
(S'time.h'
p2720
I0
tp2721
a(S'time.h_1'
p2722
I0
tp2723
a(S'ios_base.h'
p2724
I0
tp2725
a(S'fs.cpp'
p2726
I0
tp2727
a(S'stdio.h_1'
p2728
I0
tp2729
a(S'filesys.h'
p2730
I0
tp2731
a(S'filesys.cpp'
p2732
I0
tp2733
a(S'iosfwd_1'
p2734
I0
tp2735
a(S'pthread.h'
p2736
I0
tp2737
a(S'stdio.h'
p2738
I0
tp2739
a(S'iostream'
p2740
I0
tp2741
a(S'structures.h'
p2742
I0
tp2743
a(S'structures.h_1'
p2744
I0
tp2745
a(S'string.h'
p2746
I0
tp2747
a(S'signal.h'
p2748
I0
tp2749
a(S'filesys.h_1'
p2750
I0
tp2751
a(S'iosfwd'
p2752
I0
tp2753
a(S'test3.cpp'
p2754
I0
tp2755
a(S'sb.cpp'
p2756
I0
tp2757
a(S'in.cpp'
p2758
I0
tp2759
a(S'stringfwd.h'
p2760
I0
tp2761
a(S'unistd.h'
p2762
I0
tp2763
asS'opened'
p2764
(lp2765
(S'filesys.cpp'
p2766
F0.21359223300970873
tp2767
a(S'time.h'
p2768
F0.0
tp2769
a(S'time.h_1'
p2770
F0.0
tp2771
a(S'ios_base.h'
p2772
F0.0
tp2773
a(S'fs.cpp'
p2774
F0.0
tp2775
a(S'stdio.h_1'
p2776
F0.0
tp2777
a(S'filesys.h'
p2778
F0.0
tp2779
a(S'iosfwd_1'
p2780
F0.0
tp2781
a(S'pthread.h'
p2782
F0.0
tp2783
a(S'stdio.h'
p2784
F0.0
tp2785
a(S'iostream'
p2786
F0.0
tp2787
a(S'structures.h'
p2788
F0.0
tp2789
a(S'structures.h_1'
p2790
F0.0
tp2791
a(S'string.h'
p2792
F0.0
tp2793
a(S'signal.h'
p2794
F0.0
tp2795
a(S'filesys.h_1'
p2796
F0.0
tp2797
a(S'iosfwd'
p2798
F0.0
tp2799
a(S'test3.cpp'
p2800
F0.0
tp2801
a(S'sb.cpp'
p2802
F0.0
tp2803
a(S'in.cpp'
p2804
F0.0
tp2805
a(S'stringfwd.h'
p2806
F0.0
tp2807
a(S'unistd.h'
p2808
F0.0
tp2809
asS'seekg'
p2810
(lp2811
(S'time.h'
p2812
I0
tp2813
a(S'time.h_1'
p2814
I0
tp2815
a(S'ios_base.h'
p2816
I0
tp2817
a(S'fs.cpp'
p2818
I0
tp2819
a(S'stdio.h_1'
p2820
I0
tp2821
a(S'filesys.h'
p2822
I0
tp2823
a(S'filesys.cpp'
p2824
I0
tp2825
a(S'iosfwd_1'
p2826
I0
tp2827
a(S'pthread.h'
p2828
I0
tp2829
a(S'stdio.h'
p2830
I0
tp2831
a(S'iostream'
p2832
I0
tp2833
a(S'structures.h'
p2834
I0
tp2835
a(S'structures.h_1'
p2836
I0
tp2837
a(S'string.h'
p2838
I0
tp2839
a(S'signal.h'
p2840
I0
tp2841
a(S'filesys.h_1'
p2842
I0
tp2843
a(S'iosfwd'
p2844
I0
tp2845
a(S'test3.cpp'
p2846
I0
tp2847
a(S'sb.cpp'
p2848
I0
tp2849
a(S'in.cpp'
p2850
I0
tp2851
a(S'stringfwd.h'
p2852
I0
tp2853
a(S'unistd.h'
p2854
I0
tp2855
asS'rx'
p2856
(lp2857
(S'fs.cpp'
p2858
F0.2972972972972973
tp2859
a(S'filesys.cpp'
p2860
F0.10679611650485436
tp2861
a(S'time.h'
p2862
F0.0
tp2863
a(S'time.h_1'
p2864
F0.0
tp2865
a(S'ios_base.h'
p2866
F0.0
tp2867
a(S'stdio.h_1'
p2868
F0.0
tp2869
a(S'filesys.h'
p2870
F0.0
tp2871
a(S'iosfwd_1'
p2872
F0.0
tp2873
a(S'pthread.h'
p2874
F0.0
tp2875
a(S'stdio.h'
p2876
F0.0
tp2877
a(S'iostream'
p2878
F0.0
tp2879
a(S'structures.h'
p2880
F0.0
tp2881
a(S'structures.h_1'
p2882
F0.0
tp2883
a(S'string.h'
p2884
F0.0
tp2885
a(S'signal.h'
p2886
F0.0
tp2887
a(S'filesys.h_1'
p2888
F0.0
tp2889
a(S'iosfwd'
p2890
F0.0
tp2891
a(S'test3.cpp'
p2892
F0.0
tp2893
a(S'sb.cpp'
p2894
F0.0
tp2895
a(S'in.cpp'
p2896
F0.0
tp2897
a(S'stringfwd.h'
p2898
F0.0
tp2899
a(S'unistd.h'
p2900
F0.0
tp2901
asS'dblist'
p2902
(lp2903
(S'structures.h_1'
p2904
F0.12790697674418605
tp2905
a(S'structures.h'
p2906
F0.10185185185185185
tp2907
a(S'fs.cpp'
p2908
F0.07432432432432433
tp2909
a(S'filesys.cpp'
p2910
F0.05339805825242718
tp2911
a(S'time.h'
p2912
F0.0
tp2913
a(S'time.h_1'
p2914
F0.0
tp2915
a(S'ios_base.h'
p2916
F0.0
tp2917
a(S'stdio.h_1'
p2918
F0.0
tp2919
a(S'filesys.h'
p2920
F0.0
tp2921
a(S'iosfwd_1'
p2922
F0.0
tp2923
a(S'pthread.h'
p2924
F0.0
tp2925
a(S'stdio.h'
p2926
F0.0
tp2927
a(S'iostream'
p2928
F0.0
tp2929
a(S'string.h'
p2930
F0.0
tp2931
a(S'signal.h'
p2932
F0.0
tp2933
a(S'filesys.h_1'
p2934
F0.0
tp2935
a(S'iosfwd'
p2936
F0.0
tp2937
a(S'test3.cpp'
p2938
F0.0
tp2939
a(S'sb.cpp'
p2940
F0.0
tp2941
a(S'in.cpp'
p2942
F0.0
tp2943
a(S'stringfwd.h'
p2944
F0.0
tp2945
a(S'unistd.h'
p2946
F0.0
tp2947
asS'sprintf'
p2948
(lp2949
(S'stdio.h_1'
p2950
F11.0
tp2951
a(S'in.cpp'
p2952
F0.33333333333333337
tp2953
a(S'time.h'
p2954
F0.0
tp2955
a(S'time.h_1'
p2956
F0.0
tp2957
a(S'ios_base.h'
p2958
F0.0
tp2959
a(S'fs.cpp'
p2960
F0.0
tp2961
a(S'filesys.h'
p2962
F0.0
tp2963
a(S'filesys.cpp'
p2964
F0.0
tp2965
a(S'iosfwd_1'
p2966
F0.0
tp2967
a(S'pthread.h'
p2968
F0.0
tp2969
a(S'stdio.h'
p2970
F0.0
tp2971
a(S'iostream'
p2972
F0.0
tp2973
a(S'structures.h'
p2974
F0.0
tp2975
a(S'structures.h_1'
p2976
F0.0
tp2977
a(S'string.h'
p2978
F0.0
tp2979
a(S'signal.h'
p2980
F0.0
tp2981
a(S'filesys.h_1'
p2982
F0.0
tp2983
a(S'iosfwd'
p2984
F0.0
tp2985
a(S'test3.cpp'
p2986
F0.0
tp2987
a(S'sb.cpp'
p2988
F0.0
tp2989
a(S'stringfwd.h'
p2990
F0.0
tp2991
a(S'unistd.h'
p2992
F0.0
tp2993
asS'print'
p2994
(lp2995
(S'sb.cpp'
p2996
F0.2716049382716049
tp2997
a(S'structures.h'
p2998
F0.13580246913580246
tp2999
a(S'filesys.cpp'
p3000
F0.07119741100323623
tp3001
a(S'time.h'
p3002
F0.0
tp3003
a(S'time.h_1'
p3004
F0.0
tp3005
a(S'ios_base.h'
p3006
F0.0
tp3007
a(S'fs.cpp'
p3008
F0.0
tp3009
a(S'stdio.h_1'
p3010
F0.0
tp3011
a(S'filesys.h'
p3012
F0.0
tp3013
a(S'iosfwd_1'
p3014
F0.0
tp3015
a(S'pthread.h'
p3016
F0.0
tp3017
a(S'stdio.h'
p3018
F0.0
tp3019
a(S'iostream'
p3020
F0.0
tp3021
a(S'structures.h_1'
p3022
F0.0
tp3023
a(S'string.h'
p3024
F0.0
tp3025
a(S'signal.h'
p3026
F0.0
tp3027
a(S'filesys.h_1'
p3028
F0.0
tp3029
a(S'iosfwd'
p3030
F0.0
tp3031
a(S'test3.cpp'
p3032
F0.0
tp3033
a(S'in.cpp'
p3034
F0.0
tp3035
a(S'stringfwd.h'
p3036
F0.0
tp3037
a(S'unistd.h'
p3038
F0.0
tp3039
asS'rm'
p3040
(lp3041
(S'filesys.cpp'
p3042
F0.42718446601941745
tp3043
a(S'time.h'
p3044
F0.0
tp3045
a(S'time.h_1'
p3046
F0.0
tp3047
a(S'ios_base.h'
p3048
F0.0
tp3049
a(S'fs.cpp'
p3050
F0.0
tp3051
a(S'stdio.h_1'
p3052
F0.0
tp3053
a(S'filesys.h'
p3054
F0.0
tp3055
a(S'iosfwd_1'
p3056
F0.0
tp3057
a(S'pthread.h'
p3058
F0.0
tp3059
a(S'stdio.h'
p3060
F0.0
tp3061
a(S'iostream'
p3062
F0.0
tp3063
a(S'structures.h'
p3064
F0.0
tp3065
a(S'structures.h_1'
p3066
F0.0
tp3067
a(S'string.h'
p3068
F0.0
tp3069
a(S'signal.h'
p3070
F0.0
tp3071
a(S'filesys.h_1'
p3072
F0.0
tp3073
a(S'iosfwd'
p3074
F0.0
tp3075
a(S'test3.cpp'
p3076
F0.0
tp3077
a(S'sb.cpp'
p3078
F0.0
tp3079
a(S'in.cpp'
p3080
F0.0
tp3081
a(S'stringfwd.h'
p3082
F0.0
tp3083
a(S'unistd.h'
p3084
F0.0
tp3085
asS'locate'
p3086
(lp3087
(S'structures.h_1'
p3088
F0.12790697674418605
tp3089
a(S'structures.h'
p3090
F0.10185185185185185
tp3091
a(S'fs.cpp'
p3092
F0.07432432432432433
tp3093
a(S'filesys.cpp'
p3094
F0.05339805825242718
tp3095
a(S'time.h'
p3096
F0.0
tp3097
a(S'time.h_1'
p3098
F0.0
tp3099
a(S'ios_base.h'
p3100
F0.0
tp3101
a(S'stdio.h_1'
p3102
F0.0
tp3103
a(S'filesys.h'
p3104
F0.0
tp3105
a(S'iosfwd_1'
p3106
F0.0
tp3107
a(S'pthread.h'
p3108
F0.0
tp3109
a(S'stdio.h'
p3110
F0.0
tp3111
a(S'iostream'
p3112
F0.0
tp3113
a(S'string.h'
p3114
F0.0
tp3115
a(S'signal.h'
p3116
F0.0
tp3117
a(S'filesys.h_1'
p3118
F0.0
tp3119
a(S'iosfwd'
p3120
F0.0
tp3121
a(S'test3.cpp'
p3122
F0.0
tp3123
a(S'sb.cpp'
p3124
F0.0
tp3125
a(S'in.cpp'
p3126
F0.0
tp3127
a(S'stringfwd.h'
p3128
F0.0
tp3129
a(S'unistd.h'
p3130
F0.0
tp3131
asS'fpar'
p3132
(lp3133
(S'fs.cpp'
p3134
F0.2972972972972973
tp3135
a(S'time.h'
p3136
F0.0
tp3137
a(S'time.h_1'
p3138
F0.0
tp3139
a(S'ios_base.h'
p3140
F0.0
tp3141
a(S'stdio.h_1'
p3142
F0.0
tp3143
a(S'filesys.h'
p3144
F0.0
tp3145
a(S'filesys.cpp'
p3146
F0.0
tp3147
a(S'iosfwd_1'
p3148
F0.0
tp3149
a(S'pthread.h'
p3150
F0.0
tp3151
a(S'stdio.h'
p3152
F0.0
tp3153
a(S'iostream'
p3154
F0.0
tp3155
a(S'structures.h'
p3156
F0.0
tp3157
a(S'structures.h_1'
p3158
F0.0
tp3159
a(S'string.h'
p3160
F0.0
tp3161
a(S'signal.h'
p3162
F0.0
tp3163
a(S'filesys.h_1'
p3164
F0.0
tp3165
a(S'iosfwd'
p3166
F0.0
tp3167
a(S'test3.cpp'
p3168
F0.0
tp3169
a(S'sb.cpp'
p3170
F0.0
tp3171
a(S'in.cpp'
p3172
F0.0
tp3173
a(S'stringfwd.h'
p3174
F0.0
tp3175
a(S'unistd.h'
p3176
F0.0
tp3177
asS'parpw'
p3178
(lp3179
(S'fs.cpp'
p3180
F0.2972972972972973
tp3181
a(S'time.h'
p3182
F0.0
tp3183
a(S'time.h_1'
p3184
F0.0
tp3185
a(S'ios_base.h'
p3186
F0.0
tp3187
a(S'stdio.h_1'
p3188
F0.0
tp3189
a(S'filesys.h'
p3190
F0.0
tp3191
a(S'filesys.cpp'
p3192
F0.0
tp3193
a(S'iosfwd_1'
p3194
F0.0
tp3195
a(S'pthread.h'
p3196
F0.0
tp3197
a(S'stdio.h'
p3198
F0.0
tp3199
a(S'iostream'
p3200
F0.0
tp3201
a(S'structures.h'
p3202
F0.0
tp3203
a(S'structures.h_1'
p3204
F0.0
tp3205
a(S'string.h'
p3206
F0.0
tp3207
a(S'signal.h'
p3208
F0.0
tp3209
a(S'filesys.h_1'
p3210
F0.0
tp3211
a(S'iosfwd'
p3212
F0.0
tp3213
a(S'test3.cpp'
p3214
F0.0
tp3215
a(S'sb.cpp'
p3216
F0.0
tp3217
a(S'in.cpp'
p3218
F0.0
tp3219
a(S'stringfwd.h'
p3220
F0.0
tp3221
a(S'unistd.h'
p3222
F0.0
tp3223
asS'here'
p3224
(lp3225
(S'filesys.cpp'
p3226
F0.8543689320388349
tp3227
a(S'time.h'
p3228
F0.0
tp3229
a(S'time.h_1'
p3230
F0.0
tp3231
a(S'ios_base.h'
p3232
F0.0
tp3233
a(S'fs.cpp'
p3234
F0.0
tp3235
a(S'stdio.h_1'
p3236
F0.0
tp3237
a(S'filesys.h'
p3238
F0.0
tp3239
a(S'iosfwd_1'
p3240
F0.0
tp3241
a(S'pthread.h'
p3242
F0.0
tp3243
a(S'stdio.h'
p3244
F0.0
tp3245
a(S'iostream'
p3246
F0.0
tp3247
a(S'structures.h'
p3248
F0.0
tp3249
a(S'structures.h_1'
p3250
F0.0
tp3251
a(S'string.h'
p3252
F0.0
tp3253
a(S'signal.h'
p3254
F0.0
tp3255
a(S'filesys.h_1'
p3256
F0.0
tp3257
a(S'iosfwd'
p3258
F0.0
tp3259
a(S'test3.cpp'
p3260
F0.0
tp3261
a(S'sb.cpp'
p3262
F0.0
tp3263
a(S'in.cpp'
p3264
F0.0
tp3265
a(S'stringfwd.h'
p3266
F0.0
tp3267
a(S'unistd.h'
p3268
F0.0
tp3269
asS'read_myfs'
p3270
(lp3271
(S'filesys.h_1'
p3272
F0.4583333333333333
tp3273
a(S'filesys.h'
p3274
F0.4074074074074074
tp3275
a(S'filesys.cpp'
p3276
F0.07119741100323623
tp3277
a(S'time.h'
p3278
F0.0
tp3279
a(S'time.h_1'
p3280
F0.0
tp3281
a(S'ios_base.h'
p3282
F0.0
tp3283
a(S'fs.cpp'
p3284
F0.0
tp3285
a(S'stdio.h_1'
p3286
F0.0
tp3287
a(S'iosfwd_1'
p3288
F0.0
tp3289
a(S'pthread.h'
p3290
F0.0
tp3291
a(S'stdio.h'
p3292
F0.0
tp3293
a(S'iostream'
p3294
F0.0
tp3295
a(S'structures.h'
p3296
F0.0
tp3297
a(S'structures.h_1'
p3298
F0.0
tp3299
a(S'string.h'
p3300
F0.0
tp3301
a(S'signal.h'
p3302
F0.0
tp3303
a(S'iosfwd'
p3304
F0.0
tp3305
a(S'test3.cpp'
p3306
F0.0
tp3307
a(S'sb.cpp'
p3308
F0.0
tp3309
a(S'in.cpp'
p3310
F0.0
tp3311
a(S'stringfwd.h'
p3312
F0.0
tp3313
a(S'unistd.h'
p3314
F0.0
tp3315
asS'showfile_myfs'
p3316
(lp3317
(S'filesys.h_1'
p3318
F0.34375
tp3319
a(S'filesys.h'
p3320
F0.3055555555555555
tp3321
a(S'test3.cpp'
p3322
F0.18333333333333332
tp3323
a(S'filesys.cpp'
p3324
F0.05339805825242718
tp3325
a(S'time.h'
p3326
F0.0
tp3327
a(S'time.h_1'
p3328
F0.0
tp3329
a(S'ios_base.h'
p3330
F0.0
tp3331
a(S'fs.cpp'
p3332
F0.0
tp3333
a(S'stdio.h_1'
p3334
F0.0
tp3335
a(S'iosfwd_1'
p3336
F0.0
tp3337
a(S'pthread.h'
p3338
F0.0
tp3339
a(S'stdio.h'
p3340
F0.0
tp3341
a(S'iostream'
p3342
F0.0
tp3343
a(S'structures.h'
p3344
F0.0
tp3345
a(S'structures.h_1'
p3346
F0.0
tp3347
a(S'string.h'
p3348
F0.0
tp3349
a(S'signal.h'
p3350
F0.0
tp3351
a(S'iosfwd'
p3352
F0.0
tp3353
a(S'sb.cpp'
p3354
F0.0
tp3355
a(S'in.cpp'
p3356
F0.0
tp3357
a(S'stringfwd.h'
p3358
F0.0
tp3359
a(S'unistd.h'
p3360
F0.0
tp3361
asS'basic_ifstream'
p3362
(lp3363
(S'time.h'
p3364
I0
tp3365
a(S'time.h_1'
p3366
I0
tp3367
a(S'ios_base.h'
p3368
I0
tp3369
a(S'fs.cpp'
p3370
I0
tp3371
a(S'stdio.h_1'
p3372
I0
tp3373
a(S'filesys.h'
p3374
I0
tp3375
a(S'filesys.cpp'
p3376
I0
tp3377
a(S'iosfwd_1'
p3378
I0
tp3379
a(S'pthread.h'
p3380
I0
tp3381
a(S'stdio.h'
p3382
I0
tp3383
a(S'iostream'
p3384
I0
tp3385
a(S'structures.h'
p3386
I0
tp3387
a(S'structures.h_1'
p3388
I0
tp3389
a(S'string.h'
p3390
I0
tp3391
a(S'signal.h'
p3392
I0
tp3393
a(S'filesys.h_1'
p3394
I0
tp3395
a(S'iosfwd'
p3396
I0
tp3397
a(S'test3.cpp'
p3398
I0
tp3399
a(S'sb.cpp'
p3400
I0
tp3401
a(S'in.cpp'
p3402
I0
tp3403
a(S'stringfwd.h'
p3404
I0
tp3405
a(S'unistd.h'
p3406
I0
tp3407
asS'createdir'
p3408
(lp3409
(S'structures.h'
p3410
F0.2037037037037037
tp3411
a(S'fs.cpp'
p3412
F0.14864864864864866
tp3413
a(S'time.h'
p3414
F0.0
tp3415
a(S'time.h_1'
p3416
F0.0
tp3417
a(S'ios_base.h'
p3418
F0.0
tp3419
a(S'stdio.h_1'
p3420
F0.0
tp3421
a(S'filesys.h'
p3422
F0.0
tp3423
a(S'filesys.cpp'
p3424
F0.0
tp3425
a(S'iosfwd_1'
p3426
F0.0
tp3427
a(S'pthread.h'
p3428
F0.0
tp3429
a(S'stdio.h'
p3430
F0.0
tp3431
a(S'iostream'
p3432
F0.0
tp3433
a(S'structures.h_1'
p3434
F0.0
tp3435
a(S'string.h'
p3436
F0.0
tp3437
a(S'signal.h'
p3438
F0.0
tp3439
a(S'filesys.h_1'
p3440
F0.0
tp3441
a(S'iosfwd'
p3442
F0.0
tp3443
a(S'test3.cpp'
p3444
F0.0
tp3445
a(S'sb.cpp'
p3446
F0.0
tp3447
a(S'in.cpp'
p3448
F0.0
tp3449
a(S'stringfwd.h'
p3450
F0.0
tp3451
a(S'unistd.h'
p3452
F0.0
tp3453
asS'src'
p3454
(lp3455
(S'filesys.cpp'
p3456
F0.42718446601941745
tp3457
a(S'time.h'
p3458
F0.0
tp3459
a(S'time.h_1'
p3460
F0.0
tp3461
a(S'ios_base.h'
p3462
F0.0
tp3463
a(S'fs.cpp'
p3464
F0.0
tp3465
a(S'stdio.h_1'
p3466
F0.0
tp3467
a(S'filesys.h'
p3468
F0.0
tp3469
a(S'iosfwd_1'
p3470
F0.0
tp3471
a(S'pthread.h'
p3472
F0.0
tp3473
a(S'stdio.h'
p3474
F0.0
tp3475
a(S'iostream'
p3476
F0.0
tp3477
a(S'structures.h'
p3478
F0.0
tp3479
a(S'structures.h_1'
p3480
F0.0
tp3481
a(S'string.h'
p3482
F0.0
tp3483
a(S'signal.h'
p3484
F0.0
tp3485
a(S'filesys.h_1'
p3486
F0.0
tp3487
a(S'iosfwd'
p3488
F0.0
tp3489
a(S'test3.cpp'
p3490
F0.0
tp3491
a(S'sb.cpp'
p3492
F0.0
tp3493
a(S'in.cpp'
p3494
F0.0
tp3495
a(S'stringfwd.h'
p3496
F0.0
tp3497
a(S'unistd.h'
p3498
F0.0
tp3499
asS'c_str'
p3500
(lp3501
(S'time.h'
p3502
I0
tp3503
a(S'time.h_1'
p3504
I0
tp3505
a(S'ios_base.h'
p3506
I0
tp3507
a(S'fs.cpp'
p3508
I0
tp3509
a(S'stdio.h_1'
p3510
I0
tp3511
a(S'filesys.h'
p3512
I0
tp3513
a(S'filesys.cpp'
p3514
I0
tp3515
a(S'iosfwd_1'
p3516
I0
tp3517
a(S'pthread.h'
p3518
I0
tp3519
a(S'stdio.h'
p3520
I0
tp3521
a(S'iostream'
p3522
I0
tp3523
a(S'structures.h'
p3524
I0
tp3525
a(S'structures.h_1'
p3526
I0
tp3527
a(S'string.h'
p3528
I0
tp3529
a(S'signal.h'
p3530
I0
tp3531
a(S'filesys.h_1'
p3532
I0
tp3533
a(S'iosfwd'
p3534
I0
tp3535
a(S'test3.cpp'
p3536
I0
tp3537
a(S'sb.cpp'
p3538
I0
tp3539
a(S'in.cpp'
p3540
I0
tp3541
a(S'stringfwd.h'
p3542
I0
tp3543
a(S'unistd.h'
p3544
I0
tp3545
asS'chmod_myfs'
p3546
(lp3547
(S'filesys.h_1'
p3548
F0.4583333333333333
tp3549
a(S'filesys.h'
p3550
F0.4074074074074074
tp3551
a(S'filesys.cpp'
p3552
F0.07119741100323623
tp3553
a(S'time.h'
p3554
F0.0
tp3555
a(S'time.h_1'
p3556
F0.0
tp3557
a(S'ios_base.h'
p3558
F0.0
tp3559
a(S'fs.cpp'
p3560
F0.0
tp3561
a(S'stdio.h_1'
p3562
F0.0
tp3563
a(S'iosfwd_1'
p3564
F0.0
tp3565
a(S'pthread.h'
p3566
F0.0
tp3567
a(S'stdio.h'
p3568
F0.0
tp3569
a(S'iostream'
p3570
F0.0
tp3571
a(S'structures.h'
p3572
F0.0
tp3573
a(S'structures.h_1'
p3574
F0.0
tp3575
a(S'string.h'
p3576
F0.0
tp3577
a(S'signal.h'
p3578
F0.0
tp3579
a(S'iosfwd'
p3580
F0.0
tp3581
a(S'test3.cpp'
p3582
F0.0
tp3583
a(S'sb.cpp'
p3584
F0.0
tp3585
a(S'in.cpp'
p3586
F0.0
tp3587
a(S'stringfwd.h'
p3588
F0.0
tp3589
a(S'unistd.h'
p3590
F0.0
tp3591
asS'newpwd'
p3592
(lp3593
(S'fs.cpp'
p3594
F0.2972972972972973
tp3595
a(S'time.h'
p3596
F0.0
tp3597
a(S'time.h_1'
p3598
F0.0
tp3599
a(S'ios_base.h'
p3600
F0.0
tp3601
a(S'stdio.h_1'
p3602
F0.0
tp3603
a(S'filesys.h'
p3604
F0.0
tp3605
a(S'filesys.cpp'
p3606
F0.0
tp3607
a(S'iosfwd_1'
p3608
F0.0
tp3609
a(S'pthread.h'
p3610
F0.0
tp3611
a(S'stdio.h'
p3612
F0.0
tp3613
a(S'iostream'
p3614
F0.0
tp3615
a(S'structures.h'
p3616
F0.0
tp3617
a(S'structures.h_1'
p3618
F0.0
tp3619
a(S'string.h'
p3620
F0.0
tp3621
a(S'signal.h'
p3622
F0.0
tp3623
a(S'filesys.h_1'
p3624
F0.0
tp3625
a(S'iosfwd'
p3626
F0.0
tp3627
a(S'test3.cpp'
p3628
F0.0
tp3629
a(S'sb.cpp'
p3630
F0.0
tp3631
a(S'in.cpp'
p3632
F0.0
tp3633
a(S'stringfwd.h'
p3634
F0.0
tp3635
a(S'unistd.h'
p3636
F0.0
tp3637
asS'g'
p3638
(lp3639
(S'in.cpp'
p3640
F0.6666666666666667
tp3641
a(S'time.h'
p3642
F0.0
tp3643
a(S'time.h_1'
p3644
F0.0
tp3645
a(S'ios_base.h'
p3646
F0.0
tp3647
a(S'fs.cpp'
p3648
F0.0
tp3649
a(S'stdio.h_1'
p3650
F0.0
tp3651
a(S'filesys.h'
p3652
F0.0
tp3653
a(S'filesys.cpp'
p3654
F0.0
tp3655
a(S'iosfwd_1'
p3656
F0.0
tp3657
a(S'pthread.h'
p3658
F0.0
tp3659
a(S'stdio.h'
p3660
F0.0
tp3661
a(S'iostream'
p3662
F0.0
tp3663
a(S'structures.h'
p3664
F0.0
tp3665
a(S'structures.h_1'
p3666
F0.0
tp3667
a(S'string.h'
p3668
F0.0
tp3669
a(S'signal.h'
p3670
F0.0
tp3671
a(S'filesys.h_1'
p3672
F0.0
tp3673
a(S'iosfwd'
p3674
F0.0
tp3675
a(S'test3.cpp'
p3676
F0.0
tp3677
a(S'sb.cpp'
p3678
F0.0
tp3679
a(S'stringfwd.h'
p3680
F0.0
tp3681
a(S'unistd.h'
p3682
F0.0
tp3683
asS'mypapers'
p3684
(lp3685
(S'test3.cpp'
p3686
F0.7333333333333333
tp3687
a(S'time.h'
p3688
F0.0
tp3689
a(S'time.h_1'
p3690
F0.0
tp3691
a(S'ios_base.h'
p3692
F0.0
tp3693
a(S'fs.cpp'
p3694
F0.0
tp3695
a(S'stdio.h_1'
p3696
F0.0
tp3697
a(S'filesys.h'
p3698
F0.0
tp3699
a(S'filesys.cpp'
p3700
F0.0
tp3701
a(S'iosfwd_1'
p3702
F0.0
tp3703
a(S'pthread.h'
p3704
F0.0
tp3705
a(S'stdio.h'
p3706
F0.0
tp3707
a(S'iostream'
p3708
F0.0
tp3709
a(S'structures.h'
p3710
F0.0
tp3711
a(S'structures.h_1'
p3712
F0.0
tp3713
a(S'string.h'
p3714
F0.0
tp3715
a(S'signal.h'
p3716
F0.0
tp3717
a(S'filesys.h_1'
p3718
F0.0
tp3719
a(S'iosfwd'
p3720
F0.0
tp3721
a(S'sb.cpp'
p3722
F0.0
tp3723
a(S'in.cpp'
p3724
F0.0
tp3725
a(S'stringfwd.h'
p3726
F0.0
tp3727
a(S'unistd.h'
p3728
F0.0
tp3729
asS'k'
p3730
(lp3731
(S'in.cpp'
p3732
F0.6666666666666667
tp3733
a(S'time.h'
p3734
F0.0
tp3735
a(S'time.h_1'
p3736
F0.0
tp3737
a(S'ios_base.h'
p3738
F0.0
tp3739
a(S'fs.cpp'
p3740
F0.0
tp3741
a(S'stdio.h_1'
p3742
F0.0
tp3743
a(S'filesys.h'
p3744
F0.0
tp3745
a(S'filesys.cpp'
p3746
F0.0
tp3747
a(S'iosfwd_1'
p3748
F0.0
tp3749
a(S'pthread.h'
p3750
F0.0
tp3751
a(S'stdio.h'
p3752
F0.0
tp3753
a(S'iostream'
p3754
F0.0
tp3755
a(S'structures.h'
p3756
F0.0
tp3757
a(S'structures.h_1'
p3758
F0.0
tp3759
a(S'string.h'
p3760
F0.0
tp3761
a(S'signal.h'
p3762
F0.0
tp3763
a(S'filesys.h_1'
p3764
F0.0
tp3765
a(S'iosfwd'
p3766
F0.0
tp3767
a(S'test3.cpp'
p3768
F0.0
tp3769
a(S'sb.cpp'
p3770
F0.0
tp3771
a(S'stringfwd.h'
p3772
F0.0
tp3773
a(S'unistd.h'
p3774
F0.0
tp3775
asS'ty'
p3776
(lp3777
(S'fs.cpp'
p3778
F0.2972972972972973
tp3779
a(S'time.h'
p3780
F0.0
tp3781
a(S'time.h_1'
p3782
F0.0
tp3783
a(S'ios_base.h'
p3784
F0.0
tp3785
a(S'stdio.h_1'
p3786
F0.0
tp3787
a(S'filesys.h'
p3788
F0.0
tp3789
a(S'filesys.cpp'
p3790
F0.0
tp3791
a(S'iosfwd_1'
p3792
F0.0
tp3793
a(S'pthread.h'
p3794
F0.0
tp3795
a(S'stdio.h'
p3796
F0.0
tp3797
a(S'iostream'
p3798
F0.0
tp3799
a(S'structures.h'
p3800
F0.0
tp3801
a(S'structures.h_1'
p3802
F0.0
tp3803
a(S'string.h'
p3804
F0.0
tp3805
a(S'signal.h'
p3806
F0.0
tp3807
a(S'filesys.h_1'
p3808
F0.0
tp3809
a(S'iosfwd'
p3810
F0.0
tp3811
a(S'test3.cpp'
p3812
F0.0
tp3813
a(S'sb.cpp'
p3814
F0.0
tp3815
a(S'in.cpp'
p3816
F0.0
tp3817
a(S'stringfwd.h'
p3818
F0.0
tp3819
a(S'unistd.h'
p3820
F0.0
tp3821
asS'to_string'
p3822
(lp3823
(S'time.h'
p3824
I0
tp3825
a(S'time.h_1'
p3826
I0
tp3827
a(S'ios_base.h'
p3828
I0
tp3829
a(S'fs.cpp'
p3830
I0
tp3831
a(S'stdio.h_1'
p3832
I0
tp3833
a(S'filesys.h'
p3834
I0
tp3835
a(S'filesys.cpp'
p3836
I0
tp3837
a(S'iosfwd_1'
p3838
I0
tp3839
a(S'pthread.h'
p3840
I0
tp3841
a(S'stdio.h'
p3842
I0
tp3843
a(S'iostream'
p3844
I0
tp3845
a(S'structures.h'
p3846
I0
tp3847
a(S'structures.h_1'
p3848
I0
tp3849
a(S'string.h'
p3850
I0
tp3851
a(S'signal.h'
p3852
I0
tp3853
a(S'filesys.h_1'
p3854
I0
tp3855
a(S'iosfwd'
p3856
I0
tp3857
a(S'test3.cpp'
p3858
I0
tp3859
a(S'sb.cpp'
p3860
I0
tp3861
a(S'in.cpp'
p3862
I0
tp3863
a(S'stringfwd.h'
p3864
I0
tp3865
a(S'unistd.h'
p3866
I0
tp3867
asS's'
p3868
(lp3869
(S'sb.cpp'
p3870
F0.4074074074074074
tp3871
a(S'fs.cpp'
p3872
F0.14864864864864866
tp3873
a(S'time.h'
p3874
F0.0
tp3875
a(S'time.h_1'
p3876
F0.0
tp3877
a(S'ios_base.h'
p3878
F0.0
tp3879
a(S'stdio.h_1'
p3880
F0.0
tp3881
a(S'filesys.h'
p3882
F0.0
tp3883
a(S'filesys.cpp'
p3884
F0.0
tp3885
a(S'iosfwd_1'
p3886
F0.0
tp3887
a(S'pthread.h'
p3888
F0.0
tp3889
a(S'stdio.h'
p3890
F0.0
tp3891
a(S'iostream'
p3892
F0.0
tp3893
a(S'structures.h'
p3894
F0.0
tp3895
a(S'structures.h_1'
p3896
F0.0
tp3897
a(S'string.h'
p3898
F0.0
tp3899
a(S'signal.h'
p3900
F0.0
tp3901
a(S'filesys.h_1'
p3902
F0.0
tp3903
a(S'iosfwd'
p3904
F0.0
tp3905
a(S'test3.cpp'
p3906
F0.0
tp3907
a(S'in.cpp'
p3908
F0.0
tp3909
a(S'stringfwd.h'
p3910
F0.0
tp3911
a(S'unistd.h'
p3912
F0.0
tp3913
asS'basic_ofstream'
p3914
(lp3915
(S'time.h'
p3916
I0
tp3917
a(S'time.h_1'
p3918
I0
tp3919
a(S'ios_base.h'
p3920
I0
tp3921
a(S'fs.cpp'
p3922
I0
tp3923
a(S'stdio.h_1'
p3924
I0
tp3925
a(S'filesys.h'
p3926
I0
tp3927
a(S'filesys.cpp'
p3928
I0
tp3929
a(S'iosfwd_1'
p3930
I0
tp3931
a(S'pthread.h'
p3932
I0
tp3933
a(S'stdio.h'
p3934
I0
tp3935
a(S'iostream'
p3936
I0
tp3937
a(S'structures.h'
p3938
I0
tp3939
a(S'structures.h_1'
p3940
I0
tp3941
a(S'string.h'
p3942
I0
tp3943
a(S'signal.h'
p3944
I0
tp3945
a(S'filesys.h_1'
p3946
I0
tp3947
a(S'iosfwd'
p3948
I0
tp3949
a(S'test3.cpp'
p3950
I0
tp3951
a(S'sb.cpp'
p3952
I0
tp3953
a(S'in.cpp'
p3954
I0
tp3955
a(S'stringfwd.h'
p3956
I0
tp3957
a(S'unistd.h'
p3958
I0
tp3959
asS'inlist'
p3960
(lp3961
(S'structures.h_1'
p3962
F0.12790697674418605
tp3963
a(S'structures.h'
p3964
F0.10185185185185185
tp3965
a(S'fs.cpp'
p3966
F0.07432432432432433
tp3967
a(S'filesys.cpp'
p3968
F0.05339805825242718
tp3969
a(S'time.h'
p3970
F0.0
tp3971
a(S'time.h_1'
p3972
F0.0
tp3973
a(S'ios_base.h'
p3974
F0.0
tp3975
a(S'stdio.h_1'
p3976
F0.0
tp3977
a(S'filesys.h'
p3978
F0.0
tp3979
a(S'iosfwd_1'
p3980
F0.0
tp3981
a(S'pthread.h'
p3982
F0.0
tp3983
a(S'stdio.h'
p3984
F0.0
tp3985
a(S'iostream'
p3986
F0.0
tp3987
a(S'string.h'
p3988
F0.0
tp3989
a(S'signal.h'
p3990
F0.0
tp3991
a(S'filesys.h_1'
p3992
F0.0
tp3993
a(S'iosfwd'
p3994
F0.0
tp3995
a(S'test3.cpp'
p3996
F0.0
tp3997
a(S'sb.cpp'
p3998
F0.0
tp3999
a(S'in.cpp'
p4000
F0.0
tp4001
a(S'stringfwd.h'
p4002
F0.0
tp4003
a(S'unistd.h'
p4004
F0.0
tp4005
asS'rand'
p4006
(lp4007
(S'time.h'
p4008
I0
tp4009
a(S'time.h_1'
p4010
I0
tp4011
a(S'ios_base.h'
p4012
I0
tp4013
a(S'fs.cpp'
p4014
I0
tp4015
a(S'stdio.h_1'
p4016
I0
tp4017
a(S'filesys.h'
p4018
I0
tp4019
a(S'filesys.cpp'
p4020
I0
tp4021
a(S'iosfwd_1'
p4022
I0
tp4023
a(S'pthread.h'
p4024
I0
tp4025
a(S'stdio.h'
p4026
I0
tp4027
a(S'iostream'
p4028
I0
tp4029
a(S'structures.h'
p4030
I0
tp4031
a(S'structures.h_1'
p4032
I0
tp4033
a(S'string.h'
p4034
I0
tp4035
a(S'signal.h'
p4036
I0
tp4037
a(S'filesys.h_1'
p4038
I0
tp4039
a(S'iosfwd'
p4040
I0
tp4041
a(S'test3.cpp'
p4042
I0
tp4043
a(S'sb.cpp'
p4044
I0
tp4045
a(S'in.cpp'
p4046
I0
tp4047
a(S'stringfwd.h'
p4048
I0
tp4049
a(S'unistd.h'
p4050
I0
tp4051
asS'sindbl'
p4052
(lp4053
(S'in.cpp'
p4054
F0.16666666666666669
tp4055
a(S'structures.h_1'
p4056
F0.12790697674418605
tp4057
a(S'structures.h'
p4058
F0.10185185185185185
tp4059
a(S'fs.cpp'
p4060
F0.07432432432432433
tp4061
a(S'time.h'
p4062
F0.0
tp4063
a(S'time.h_1'
p4064
F0.0
tp4065
a(S'ios_base.h'
p4066
F0.0
tp4067
a(S'stdio.h_1'
p4068
F0.0
tp4069
a(S'filesys.h'
p4070
F0.0
tp4071
a(S'filesys.cpp'
p4072
F0.0
tp4073
a(S'iosfwd_1'
p4074
F0.0
tp4075
a(S'pthread.h'
p4076
F0.0
tp4077
a(S'stdio.h'
p4078
F0.0
tp4079
a(S'iostream'
p4080
F0.0
tp4081
a(S'string.h'
p4082
F0.0
tp4083
a(S'signal.h'
p4084
F0.0
tp4085
a(S'filesys.h_1'
p4086
F0.0
tp4087
a(S'iosfwd'
p4088
F0.0
tp4089
a(S'test3.cpp'
p4090
F0.0
tp4091
a(S'sb.cpp'
p4092
F0.0
tp4093
a(S'stringfwd.h'
p4094
F0.0
tp4095
a(S'unistd.h'
p4096
F0.0
tp4097
asS'operator='
p4098
(lp4099
(S'time.h'
p4100
I0
tp4101
a(S'time.h_1'
p4102
I0
tp4103
a(S'ios_base.h'
p4104
I0
tp4105
a(S'fs.cpp'
p4106
I0
tp4107
a(S'stdio.h_1'
p4108
I0
tp4109
a(S'filesys.h'
p4110
I0
tp4111
a(S'filesys.cpp'
p4112
I0
tp4113
a(S'iosfwd_1'
p4114
I0
tp4115
a(S'pthread.h'
p4116
I0
tp4117
a(S'stdio.h'
p4118
I0
tp4119
a(S'iostream'
p4120
I0
tp4121
a(S'structures.h'
p4122
I0
tp4123
a(S'structures.h_1'
p4124
I0
tp4125
a(S'string.h'
p4126
I0
tp4127
a(S'signal.h'
p4128
I0
tp4129
a(S'filesys.h_1'
p4130
I0
tp4131
a(S'iosfwd'
p4132
I0
tp4133
a(S'test3.cpp'
p4134
I0
tp4135
a(S'sb.cpp'
p4136
I0
tp4137
a(S'in.cpp'
p4138
I0
tp4139
a(S'stringfwd.h'
p4140
I0
tp4141
a(S'unistd.h'
p4142
I0
tp4143
asS'dump_myfs'
p4144
(lp4145
(S'filesys.h_1'
p4146
F0.4583333333333333
tp4147
a(S'filesys.h'
p4148
F0.4074074074074074
tp4149
a(S'filesys.cpp'
p4150
F0.07119741100323623
tp4151
a(S'time.h'
p4152
F0.0
tp4153
a(S'time.h_1'
p4154
F0.0
tp4155
a(S'ios_base.h'
p4156
F0.0
tp4157
a(S'fs.cpp'
p4158
F0.0
tp4159
a(S'stdio.h_1'
p4160
F0.0
tp4161
a(S'iosfwd_1'
p4162
F0.0
tp4163
a(S'pthread.h'
p4164
F0.0
tp4165
a(S'stdio.h'
p4166
F0.0
tp4167
a(S'iostream'
p4168
F0.0
tp4169
a(S'structures.h'
p4170
F0.0
tp4171
a(S'structures.h_1'
p4172
F0.0
tp4173
a(S'string.h'
p4174
F0.0
tp4175
a(S'signal.h'
p4176
F0.0
tp4177
a(S'iosfwd'
p4178
F0.0
tp4179
a(S'test3.cpp'
p4180
F0.0
tp4181
a(S'sb.cpp'
p4182
F0.0
tp4183
a(S'in.cpp'
p4184
F0.0
tp4185
a(S'stringfwd.h'
p4186
F0.0
tp4187
a(S'unistd.h'
p4188
F0.0
tp4189
asS'getinode'
p4190
(lp4191
(S'sb.cpp'
p4192
F0.2716049382716049
tp4193
a(S'structures.h'
p4194
F0.13580246913580246
tp4195
a(S'fs.cpp'
p4196
F0.0990990990990991
tp4197
a(S'time.h'
p4198
F0.0
tp4199
a(S'time.h_1'
p4200
F0.0
tp4201
a(S'ios_base.h'
p4202
F0.0
tp4203
a(S'stdio.h_1'
p4204
F0.0
tp4205
a(S'filesys.h'
p4206
F0.0
tp4207
a(S'filesys.cpp'
p4208
F0.0
tp4209
a(S'iosfwd_1'
p4210
F0.0
tp4211
a(S'pthread.h'
p4212
F0.0
tp4213
a(S'stdio.h'
p4214
F0.0
tp4215
a(S'iostream'
p4216
F0.0
tp4217
a(S'structures.h_1'
p4218
F0.0
tp4219
a(S'string.h'
p4220
F0.0
tp4221
a(S'signal.h'
p4222
F0.0
tp4223
a(S'filesys.h_1'
p4224
F0.0
tp4225
a(S'iosfwd'
p4226
F0.0
tp4227
a(S'test3.cpp'
p4228
F0.0
tp4229
a(S'in.cpp'
p4230
F0.0
tp4231
a(S'stringfwd.h'
p4232
F0.0
tp4233
a(S'unistd.h'
p4234
F0.0
tp4235
asS'getinblock'
p4236
(lp4237
(S'structures.h_1'
p4238
F0.12790697674418605
tp4239
a(S'structures.h'
p4240
F0.10185185185185185
tp4241
a(S'fs.cpp'
p4242
F0.07432432432432433
tp4243
a(S'filesys.cpp'
p4244
F0.05339805825242718
tp4245
a(S'time.h'
p4246
F0.0
tp4247
a(S'time.h_1'
p4248
F0.0
tp4249
a(S'ios_base.h'
p4250
F0.0
tp4251
a(S'stdio.h_1'
p4252
F0.0
tp4253
a(S'filesys.h'
p4254
F0.0
tp4255
a(S'iosfwd_1'
p4256
F0.0
tp4257
a(S'pthread.h'
p4258
F0.0
tp4259
a(S'stdio.h'
p4260
F0.0
tp4261
a(S'iostream'
p4262
F0.0
tp4263
a(S'string.h'
p4264
F0.0
tp4265
a(S'signal.h'
p4266
F0.0
tp4267
a(S'filesys.h_1'
p4268
F0.0
tp4269
a(S'iosfwd'
p4270
F0.0
tp4271
a(S'test3.cpp'
p4272
F0.0
tp4273
a(S'sb.cpp'
p4274
F0.0
tp4275
a(S'in.cpp'
p4276
F0.0
tp4277
a(S'stringfwd.h'
p4278
F0.0
tp4279
a(S'unistd.h'
p4280
F0.0
tp4281
asS'operator+'
p4282
(lp4283
(S'time.h'
p4284
I0
tp4285
a(S'time.h_1'
p4286
I0
tp4287
a(S'ios_base.h'
p4288
I0
tp4289
a(S'fs.cpp'
p4290
I0
tp4291
a(S'stdio.h_1'
p4292
I0
tp4293
a(S'filesys.h'
p4294
I0
tp4295
a(S'filesys.cpp'
p4296
I0
tp4297
a(S'iosfwd_1'
p4298
I0
tp4299
a(S'pthread.h'
p4300
I0
tp4301
a(S'stdio.h'
p4302
I0
tp4303
a(S'iostream'
p4304
I0
tp4305
a(S'structures.h'
p4306
I0
tp4307
a(S'structures.h_1'
p4308
I0
tp4309
a(S'string.h'
p4310
I0
tp4311
a(S'signal.h'
p4312
I0
tp4313
a(S'filesys.h_1'
p4314
I0
tp4315
a(S'iosfwd'
p4316
I0
tp4317
a(S'test3.cpp'
p4318
I0
tp4319
a(S'sb.cpp'
p4320
I0
tp4321
a(S'in.cpp'
p4322
I0
tp4323
a(S'stringfwd.h'
p4324
I0
tp4325
a(S'unistd.h'
p4326
I0
tp4327
asS'operator-'
p4328
(lp4329
(S'time.h'
p4330
I0
tp4331
a(S'time.h_1'
p4332
I0
tp4333
a(S'ios_base.h'
p4334
I0
tp4335
a(S'fs.cpp'
p4336
I0
tp4337
a(S'stdio.h_1'
p4338
I0
tp4339
a(S'filesys.h'
p4340
I0
tp4341
a(S'filesys.cpp'
p4342
I0
tp4343
a(S'iosfwd_1'
p4344
I0
tp4345
a(S'pthread.h'
p4346
I0
tp4347
a(S'stdio.h'
p4348
I0
tp4349
a(S'iostream'
p4350
I0
tp4351
a(S'structures.h'
p4352
I0
tp4353
a(S'structures.h_1'
p4354
I0
tp4355
a(S'string.h'
p4356
I0
tp4357
a(S'signal.h'
p4358
I0
tp4359
a(S'filesys.h_1'
p4360
I0
tp4361
a(S'iosfwd'
p4362
I0
tp4363
a(S'test3.cpp'
p4364
I0
tp4365
a(S'sb.cpp'
p4366
I0
tp4367
a(S'in.cpp'
p4368
I0
tp4369
a(S'stringfwd.h'
p4370
I0
tp4371
a(S'unistd.h'
p4372
I0
tp4373
asS'open_myfs'
p4374
(lp4375
(S'filesys.h_1'
p4376
F0.34375
tp4377
a(S'filesys.h'
p4378
F0.3055555555555555
tp4379
a(S'test3.cpp'
p4380
F0.18333333333333332
tp4381
a(S'filesys.cpp'
p4382
F0.05339805825242718
tp4383
a(S'time.h'
p4384
F0.0
tp4385
a(S'time.h_1'
p4386
F0.0
tp4387
a(S'ios_base.h'
p4388
F0.0
tp4389
a(S'fs.cpp'
p4390
F0.0
tp4391
a(S'stdio.h_1'
p4392
F0.0
tp4393
a(S'iosfwd_1'
p4394
F0.0
tp4395
a(S'pthread.h'
p4396
F0.0
tp4397
a(S'stdio.h'
p4398
F0.0
tp4399
a(S'iostream'
p4400
F0.0
tp4401
a(S'structures.h'
p4402
F0.0
tp4403
a(S'structures.h_1'
p4404
F0.0
tp4405
a(S'string.h'
p4406
F0.0
tp4407
a(S'signal.h'
p4408
F0.0
tp4409
a(S'iosfwd'
p4410
F0.0
tp4411
a(S'sb.cpp'
p4412
F0.0
tp4413
a(S'in.cpp'
p4414
F0.0
tp4415
a(S'stringfwd.h'
p4416
F0.0
tp4417
a(S'unistd.h'
p4418
F0.0
tp4419
asS'operator!'
p4420
(lp4421
(S'time.h'
p4422
I0
tp4423
a(S'time.h_1'
p4424
I0
tp4425
a(S'ios_base.h'
p4426
I0
tp4427
a(S'fs.cpp'
p4428
I0
tp4429
a(S'stdio.h_1'
p4430
I0
tp4431
a(S'filesys.h'
p4432
I0
tp4433
a(S'filesys.cpp'
p4434
I0
tp4435
a(S'iosfwd_1'
p4436
I0
tp4437
a(S'pthread.h'
p4438
I0
tp4439
a(S'stdio.h'
p4440
I0
tp4441
a(S'iostream'
p4442
I0
tp4443
a(S'structures.h'
p4444
I0
tp4445
a(S'structures.h_1'
p4446
I0
tp4447
a(S'string.h'
p4448
I0
tp4449
a(S'signal.h'
p4450
I0
tp4451
a(S'filesys.h_1'
p4452
I0
tp4453
a(S'iosfwd'
p4454
I0
tp4455
a(S'test3.cpp'
p4456
I0
tp4457
a(S'sb.cpp'
p4458
I0
tp4459
a(S'in.cpp'
p4460
I0
tp4461
a(S'stringfwd.h'
p4462
I0
tp4463
a(S'unistd.h'
p4464
I0
tp4465
asS'accp'
p4466
(lp4467
(S'in.cpp'
p4468
F0.13333333333333336
tp4469
a(S'structures.h_1'
p4470
F0.10232558139534885
tp4471
a(S'structures.h'
p4472
F0.08148148148148149
tp4473
a(S'fs.cpp'
p4474
F0.05945945945945947
tp4475
a(S'filesys.cpp'
p4476
F0.04271844660194175
tp4477
a(S'time.h'
p4478
F0.0
tp4479
a(S'time.h_1'
p4480
F0.0
tp4481
a(S'ios_base.h'
p4482
F0.0
tp4483
a(S'stdio.h_1'
p4484
F0.0
tp4485
a(S'filesys.h'
p4486
F0.0
tp4487
a(S'iosfwd_1'
p4488
F0.0
tp4489
a(S'pthread.h'
p4490
F0.0
tp4491
a(S'stdio.h'
p4492
F0.0
tp4493
a(S'iostream'
p4494
F0.0
tp4495
a(S'string.h'
p4496
F0.0
tp4497
a(S'signal.h'
p4498
F0.0
tp4499
a(S'filesys.h_1'
p4500
F0.0
tp4501
a(S'iosfwd'
p4502
F0.0
tp4503
a(S'test3.cpp'
p4504
F0.0
tp4505
a(S'sb.cpp'
p4506
F0.0
tp4507
a(S'stringfwd.h'
p4508
F0.0
tp4509
a(S'unistd.h'
p4510
F0.0
tp4511
asS'size'
p4512
(lp4513
(S'sb.cpp'
p4514
F0.2037037037037037
tp4515
a(S'structures.h_1'
p4516
F0.12790697674418605
tp4517
a(S'structures.h'
p4518
F0.10185185185185185
tp4519
a(S'filesys.cpp'
p4520
F0.05339805825242718
tp4521
a(S'time.h'
p4522
F0.0
tp4523
a(S'time.h_1'
p4524
F0.0
tp4525
a(S'ios_base.h'
p4526
F0.0
tp4527
a(S'fs.cpp'
p4528
F0.0
tp4529
a(S'stdio.h_1'
p4530
F0.0
tp4531
a(S'filesys.h'
p4532
F0.0
tp4533
a(S'iosfwd_1'
p4534
F0.0
tp4535
a(S'pthread.h'
p4536
F0.0
tp4537
a(S'stdio.h'
p4538
F0.0
tp4539
a(S'iostream'
p4540
F0.0
tp4541
a(S'string.h'
p4542
F0.0
tp4543
a(S'signal.h'
p4544
F0.0
tp4545
a(S'filesys.h_1'
p4546
F0.0
tp4547
a(S'iosfwd'
p4548
F0.0
tp4549
a(S'test3.cpp'
p4550
F0.0
tp4551
a(S'in.cpp'
p4552
F0.0
tp4553
a(S'stringfwd.h'
p4554
F0.0
tp4555
a(S'unistd.h'
p4556
F0.0
tp4557
asS'freeblock'
p4558
(lp4559
(S'sb.cpp'
p4560
F0.16296296296296298
tp4561
a(S'structures.h_1'
p4562
F0.10232558139534885
tp4563
a(S'structures.h'
p4564
F0.08148148148148149
tp4565
a(S'fs.cpp'
p4566
F0.05945945945945947
tp4567
a(S'filesys.cpp'
p4568
F0.04271844660194175
tp4569
a(S'time.h'
p4570
F0.0
tp4571
a(S'time.h_1'
p4572
F0.0
tp4573
a(S'ios_base.h'
p4574
F0.0
tp4575
a(S'stdio.h_1'
p4576
F0.0
tp4577
a(S'filesys.h'
p4578
F0.0
tp4579
a(S'iosfwd_1'
p4580
F0.0
tp4581
a(S'pthread.h'
p4582
F0.0
tp4583
a(S'stdio.h'
p4584
F0.0
tp4585
a(S'iostream'
p4586
F0.0
tp4587
a(S'string.h'
p4588
F0.0
tp4589
a(S'signal.h'
p4590
F0.0
tp4591
a(S'filesys.h_1'
p4592
F0.0
tp4593
a(S'iosfwd'
p4594
F0.0
tp4595
a(S'test3.cpp'
p4596
F0.0
tp4597
a(S'in.cpp'
p4598
F0.0
tp4599
a(S'stringfwd.h'
p4600
F0.0
tp4601
a(S'unistd.h'
p4602
F0.0
tp4603
asS'loc'
p4604
(lp4605
(S'fs.cpp'
p4606
F0.2972972972972973
tp4607
a(S'filesys.cpp'
p4608
F0.10679611650485436
tp4609
a(S'time.h'
p4610
F0.0
tp4611
a(S'time.h_1'
p4612
F0.0
tp4613
a(S'ios_base.h'
p4614
F0.0
tp4615
a(S'stdio.h_1'
p4616
F0.0
tp4617
a(S'filesys.h'
p4618
F0.0
tp4619
a(S'iosfwd_1'
p4620
F0.0
tp4621
a(S'pthread.h'
p4622
F0.0
tp4623
a(S'stdio.h'
p4624
F0.0
tp4625
a(S'iostream'
p4626
F0.0
tp4627
a(S'structures.h'
p4628
F0.0
tp4629
a(S'structures.h_1'
p4630
F0.0
tp4631
a(S'string.h'
p4632
F0.0
tp4633
a(S'signal.h'
p4634
F0.0
tp4635
a(S'filesys.h_1'
p4636
F0.0
tp4637
a(S'iosfwd'
p4638
F0.0
tp4639
a(S'test3.cpp'
p4640
F0.0
tp4641
a(S'sb.cpp'
p4642
F0.0
tp4643
a(S'in.cpp'
p4644
F0.0
tp4645
a(S'stringfwd.h'
p4646
F0.0
tp4647
a(S'unistd.h'
p4648
F0.0
tp4649
asS'dump'
p4650
(lp4651
(S'structures.h_1'
p4652
F0.2046511627906977
tp4653
a(S'structures.h'
p4654
F0.16296296296296298
tp4655
a(S'sb.cpp'
p4656
F0.16296296296296298
tp4657
a(S'in.cpp'
p4658
F0.13333333333333336
tp4659
a(S'filesys.cpp'
p4660
F0.0854368932038835
tp4661
a(S'time.h'
p4662
F0.0
tp4663
a(S'time.h_1'
p4664
F0.0
tp4665
a(S'ios_base.h'
p4666
F0.0
tp4667
a(S'fs.cpp'
p4668
F0.0
tp4669
a(S'stdio.h_1'
p4670
F0.0
tp4671
a(S'filesys.h'
p4672
F0.0
tp4673
a(S'iosfwd_1'
p4674
F0.0
tp4675
a(S'pthread.h'
p4676
F0.0
tp4677
a(S'stdio.h'
p4678
F0.0
tp4679
a(S'iostream'
p4680
F0.0
tp4681
a(S'string.h'
p4682
F0.0
tp4683
a(S'signal.h'
p4684
F0.0
tp4685
a(S'filesys.h_1'
p4686
F0.0
tp4687
a(S'iosfwd'
p4688
F0.0
tp4689
a(S'test3.cpp'
p4690
F0.0
tp4691
a(S'stringfwd.h'
p4692
F0.0
tp4693
a(S'unistd.h'
p4694
F0.0
tp4695
asS'basic_string'
p4696
(lp4697
(S'time.h'
p4698
I0
tp4699
a(S'time.h_1'
p4700
I0
tp4701
a(S'ios_base.h'
p4702
I0
tp4703
a(S'fs.cpp'
p4704
I0
tp4705
a(S'stdio.h_1'
p4706
I0
tp4707
a(S'filesys.h'
p4708
I0
tp4709
a(S'filesys.cpp'
p4710
I0
tp4711
a(S'iosfwd_1'
p4712
I0
tp4713
a(S'pthread.h'
p4714
I0
tp4715
a(S'stdio.h'
p4716
I0
tp4717
a(S'iostream'
p4718
I0
tp4719
a(S'structures.h'
p4720
I0
tp4721
a(S'structures.h_1'
p4722
I0
tp4723
a(S'string.h'
p4724
I0
tp4725
a(S'signal.h'
p4726
I0
tp4727
a(S'filesys.h_1'
p4728
I0
tp4729
a(S'iosfwd'
p4730
I0
tp4731
a(S'test3.cpp'
p4732
I0
tp4733
a(S'sb.cpp'
p4734
I0
tp4735
a(S'in.cpp'
p4736
I0
tp4737
a(S'stringfwd.h'
p4738
I0
tp4739
a(S'unistd.h'
p4740
I0
tp4741
asS'write_myfs'
p4742
(lp4743
(S'filesys.h_1'
p4744
F0.34375
tp4745
a(S'filesys.h'
p4746
F0.3055555555555555
tp4747
a(S'test3.cpp'
p4748
F0.18333333333333332
tp4749
a(S'filesys.cpp'
p4750
F0.05339805825242718
tp4751
a(S'time.h'
p4752
F0.0
tp4753
a(S'time.h_1'
p4754
F0.0
tp4755
a(S'ios_base.h'
p4756
F0.0
tp4757
a(S'fs.cpp'
p4758
F0.0
tp4759
a(S'stdio.h_1'
p4760
F0.0
tp4761
a(S'iosfwd_1'
p4762
F0.0
tp4763
a(S'pthread.h'
p4764
F0.0
tp4765
a(S'stdio.h'
p4766
F0.0
tp4767
a(S'iostream'
p4768
F0.0
tp4769
a(S'structures.h'
p4770
F0.0
tp4771
a(S'structures.h_1'
p4772
F0.0
tp4773
a(S'string.h'
p4774
F0.0
tp4775
a(S'signal.h'
p4776
F0.0
tp4777
a(S'iosfwd'
p4778
F0.0
tp4779
a(S'sb.cpp'
p4780
F0.0
tp4781
a(S'in.cpp'
p4782
F0.0
tp4783
a(S'stringfwd.h'
p4784
F0.0
tp4785
a(S'unistd.h'
p4786
F0.0
tp4787
asS'rm_myfs'
p4788
(lp4789
(S'filesys.h_1'
p4790
F0.4583333333333333
tp4791
a(S'filesys.h'
p4792
F0.4074074074074074
tp4793
a(S'filesys.cpp'
p4794
F0.07119741100323623
tp4795
a(S'time.h'
p4796
F0.0
tp4797
a(S'time.h_1'
p4798
F0.0
tp4799
a(S'ios_base.h'
p4800
F0.0
tp4801
a(S'fs.cpp'
p4802
F0.0
tp4803
a(S'stdio.h_1'
p4804
F0.0
tp4805
a(S'iosfwd_1'
p4806
F0.0
tp4807
a(S'pthread.h'
p4808
F0.0
tp4809
a(S'stdio.h'
p4810
F0.0
tp4811
a(S'iostream'
p4812
F0.0
tp4813
a(S'structures.h'
p4814
F0.0
tp4815
a(S'structures.h_1'
p4816
F0.0
tp4817
a(S'string.h'
p4818
F0.0
tp4819
a(S'signal.h'
p4820
F0.0
tp4821
a(S'iosfwd'
p4822
F0.0
tp4823
a(S'test3.cpp'
p4824
F0.0
tp4825
a(S'sb.cpp'
p4826
F0.0
tp4827
a(S'in.cpp'
p4828
F0.0
tp4829
a(S'stringfwd.h'
p4830
F0.0
tp4831
a(S'unistd.h'
p4832
F0.0
tp4833
asS'fd2'
p4834
(lp4835
(S'time.h'
p4836
I0
tp4837
a(S'time.h_1'
p4838
I0
tp4839
a(S'ios_base.h'
p4840
I0
tp4841
a(S'fs.cpp'
p4842
I0
tp4843
a(S'stdio.h_1'
p4844
I0
tp4845
a(S'filesys.h'
p4846
I0
tp4847
a(S'filesys.cpp'
p4848
I0
tp4849
a(S'iosfwd_1'
p4850
I0
tp4851
a(S'pthread.h'
p4852
I0
tp4853
a(S'stdio.h'
p4854
I0
tp4855
a(S'iostream'
p4856
I0
tp4857
a(S'structures.h'
p4858
I0
tp4859
a(S'structures.h_1'
p4860
I0
tp4861
a(S'string.h'
p4862
I0
tp4863
a(S'signal.h'
p4864
I0
tp4865
a(S'filesys.h_1'
p4866
I0
tp4867
a(S'iosfwd'
p4868
I0
tp4869
a(S'test3.cpp'
p4870
I0
tp4871
a(S'sb.cpp'
p4872
I0
tp4873
a(S'in.cpp'
p4874
I0
tp4875
a(S'stringfwd.h'
p4876
I0
tp4877
a(S'unistd.h'
p4878
I0
tp4879
asS'addentry'
p4880
(lp4881
(S'structures.h_1'
p4882
F0.12790697674418605
tp4883
a(S'structures.h'
p4884
F0.10185185185185185
tp4885
a(S'fs.cpp'
p4886
F0.07432432432432433
tp4887
a(S'filesys.cpp'
p4888
F0.05339805825242718
tp4889
a(S'time.h'
p4890
F0.0
tp4891
a(S'time.h_1'
p4892
F0.0
tp4893
a(S'ios_base.h'
p4894
F0.0
tp4895
a(S'stdio.h_1'
p4896
F0.0
tp4897
a(S'filesys.h'
p4898
F0.0
tp4899
a(S'iosfwd_1'
p4900
F0.0
tp4901
a(S'pthread.h'
p4902
F0.0
tp4903
a(S'stdio.h'
p4904
F0.0
tp4905
a(S'iostream'
p4906
F0.0
tp4907
a(S'string.h'
p4908
F0.0
tp4909
a(S'signal.h'
p4910
F0.0
tp4911
a(S'filesys.h_1'
p4912
F0.0
tp4913
a(S'iosfwd'
p4914
F0.0
tp4915
a(S'test3.cpp'
p4916
F0.0
tp4917
a(S'sb.cpp'
p4918
F0.0
tp4919
a(S'in.cpp'
p4920
F0.0
tp4921
a(S'stringfwd.h'
p4922
F0.0
tp4923
a(S'unistd.h'
p4924
F0.0
tp4925
asS'copied'
p4926
(lp4927
(S'filesys.cpp'
p4928
F0.6407766990291263
tp4929
a(S'time.h'
p4930
F0.0
tp4931
a(S'time.h_1'
p4932
F0.0
tp4933
a(S'ios_base.h'
p4934
F0.0
tp4935
a(S'fs.cpp'
p4936
F0.0
tp4937
a(S'stdio.h_1'
p4938
F0.0
tp4939
a(S'filesys.h'
p4940
F0.0
tp4941
a(S'iosfwd_1'
p4942
F0.0
tp4943
a(S'pthread.h'
p4944
F0.0
tp4945
a(S'stdio.h'
p4946
F0.0
tp4947
a(S'iostream'
p4948
F0.0
tp4949
a(S'structures.h'
p4950
F0.0
tp4951
a(S'structures.h_1'
p4952
F0.0
tp4953
a(S'string.h'
p4954
F0.0
tp4955
a(S'signal.h'
p4956
F0.0
tp4957
a(S'filesys.h_1'
p4958
F0.0
tp4959
a(S'iosfwd'
p4960
F0.0
tp4961
a(S'test3.cpp'
p4962
F0.0
tp4963
a(S'sb.cpp'
p4964
F0.0
tp4965
a(S'in.cpp'
p4966
F0.0
tp4967
a(S'stringfwd.h'
p4968
F0.0
tp4969
a(S'unistd.h'
p4970
F0.0
tp4971
asS'lastmod'
p4972
(lp4973
(S'structures.h_1'
p4974
F0.2046511627906977
tp4975
a(S'in.cpp'
p4976
F0.13333333333333336
tp4977
a(S'structures.h'
p4978
F0.08148148148148149
tp4979
a(S'fs.cpp'
p4980
F0.05945945945945947
tp4981
a(S'filesys.cpp'
p4982
F0.04271844660194175
tp4983
a(S'time.h'
p4984
F0.0
tp4985
a(S'time.h_1'
p4986
F0.0
tp4987
a(S'ios_base.h'
p4988
F0.0
tp4989
a(S'stdio.h_1'
p4990
F0.0
tp4991
a(S'filesys.h'
p4992
F0.0
tp4993
a(S'iosfwd_1'
p4994
F0.0
tp4995
a(S'pthread.h'
p4996
F0.0
tp4997
a(S'stdio.h'
p4998
F0.0
tp4999
a(S'iostream'
p5000
F0.0
tp5001
a(S'string.h'
p5002
F0.0
tp5003
a(S'signal.h'
p5004
F0.0
tp5005
a(S'filesys.h_1'
p5006
F0.0
tp5007
a(S'iosfwd'
p5008
F0.0
tp5009
a(S'test3.cpp'
p5010
F0.0
tp5011
a(S'sb.cpp'
p5012
F0.0
tp5013
a(S'stringfwd.h'
p5014
F0.0
tp5015
a(S'unistd.h'
p5016
F0.0
tp5017
asS'operator|'
p5018
(lp5019
(S'ios_base.h'
p5020
F11.0
tp5021
a(S'filesys.cpp'
p5022
F0.10679611650485436
tp5023
a(S'time.h'
p5024
F0.0
tp5025
a(S'time.h_1'
p5026
F0.0
tp5027
a(S'fs.cpp'
p5028
F0.0
tp5029
a(S'stdio.h_1'
p5030
F0.0
tp5031
a(S'filesys.h'
p5032
F0.0
tp5033
a(S'iosfwd_1'
p5034
F0.0
tp5035
a(S'pthread.h'
p5036
F0.0
tp5037
a(S'stdio.h'
p5038
F0.0
tp5039
a(S'iostream'
p5040
F0.0
tp5041
a(S'structures.h'
p5042
F0.0
tp5043
a(S'structures.h_1'
p5044
F0.0
tp5045
a(S'string.h'
p5046
F0.0
tp5047
a(S'signal.h'
p5048
F0.0
tp5049
a(S'filesys.h_1'
p5050
F0.0
tp5051
a(S'iosfwd'
p5052
F0.0
tp5053
a(S'test3.cpp'
p5054
F0.0
tp5055
a(S'sb.cpp'
p5056
F0.0
tp5057
a(S'in.cpp'
p5058
F0.0
tp5059
a(S'stringfwd.h'
p5060
F0.0
tp5061
a(S'unistd.h'
p5062
F0.0
tp5063
asS'dumpfile'
p5064
(lp5065
(S'filesys.cpp'
p5066
F0.42718446601941745
tp5067
a(S'time.h'
p5068
F0.0
tp5069
a(S'time.h_1'
p5070
F0.0
tp5071
a(S'ios_base.h'
p5072
F0.0
tp5073
a(S'fs.cpp'
p5074
F0.0
tp5075
a(S'stdio.h_1'
p5076
F0.0
tp5077
a(S'filesys.h'
p5078
F0.0
tp5079
a(S'iosfwd_1'
p5080
F0.0
tp5081
a(S'pthread.h'
p5082
F0.0
tp5083
a(S'stdio.h'
p5084
F0.0
tp5085
a(S'iostream'
p5086
F0.0
tp5087
a(S'structures.h'
p5088
F0.0
tp5089
a(S'structures.h_1'
p5090
F0.0
tp5091
a(S'string.h'
p5092
F0.0
tp5093
a(S'signal.h'
p5094
F0.0
tp5095
a(S'filesys.h_1'
p5096
F0.0
tp5097
a(S'iosfwd'
p5098
F0.0
tp5099
a(S'test3.cpp'
p5100
F0.0
tp5101
a(S'sb.cpp'
p5102
F0.0
tp5103
a(S'in.cpp'
p5104
F0.0
tp5105
a(S'stringfwd.h'
p5106
F0.0
tp5107
a(S'unistd.h'
p5108
F0.0
tp5109
asS'ptable'
p5110
(lp5111
(S'structures.h_1'
p5112
F0.12790697674418605
tp5113
a(S'structures.h'
p5114
F0.10185185185185185
tp5115
a(S'fs.cpp'
p5116
F0.07432432432432433
tp5117
a(S'filesys.cpp'
p5118
F0.05339805825242718
tp5119
a(S'time.h'
p5120
F0.0
tp5121
a(S'time.h_1'
p5122
F0.0
tp5123
a(S'ios_base.h'
p5124
F0.0
tp5125
a(S'stdio.h_1'
p5126
F0.0
tp5127
a(S'filesys.h'
p5128
F0.0
tp5129
a(S'iosfwd_1'
p5130
F0.0
tp5131
a(S'pthread.h'
p5132
F0.0
tp5133
a(S'stdio.h'
p5134
F0.0
tp5135
a(S'iostream'
p5136
F0.0
tp5137
a(S'string.h'
p5138
F0.0
tp5139
a(S'signal.h'
p5140
F0.0
tp5141
a(S'filesys.h_1'
p5142
F0.0
tp5143
a(S'iosfwd'
p5144
F0.0
tp5145
a(S'test3.cpp'
p5146
F0.0
tp5147
a(S'sb.cpp'
p5148
F0.0
tp5149
a(S'in.cpp'
p5150
F0.0
tp5151
a(S'stringfwd.h'
p5152
F0.0
tp5153
a(S'unistd.h'
p5154
F0.0
tp5155
asS'fpos'
p5156
(lp5157
(S'time.h'
p5158
I0
tp5159
a(S'time.h_1'
p5160
I0
tp5161
a(S'ios_base.h'
p5162
I0
tp5163
a(S'fs.cpp'
p5164
I0
tp5165
a(S'stdio.h_1'
p5166
I0
tp5167
a(S'filesys.h'
p5168
I0
tp5169
a(S'filesys.cpp'
p5170
I0
tp5171
a(S'iosfwd_1'
p5172
I0
tp5173
a(S'pthread.h'
p5174
I0
tp5175
a(S'stdio.h'
p5176
I0
tp5177
a(S'iostream'
p5178
I0
tp5179
a(S'structures.h'
p5180
I0
tp5181
a(S'structures.h_1'
p5182
I0
tp5183
a(S'string.h'
p5184
I0
tp5185
a(S'signal.h'
p5186
I0
tp5187
a(S'filesys.h_1'
p5188
I0
tp5189
a(S'iosfwd'
p5190
I0
tp5191
a(S'test3.cpp'
p5192
I0
tp5193
a(S'sb.cpp'
p5194
I0
tp5195
a(S'in.cpp'
p5196
I0
tp5197
a(S'stringfwd.h'
p5198
I0
tp5199
a(S'unistd.h'
p5200
I0
tp5201
asS'search'
p5202
(lp5203
(S'fs.cpp'
p5204
F0.14864864864864866
tp5205
a(S'filesys.cpp'
p5206
F0.10679611650485436
tp5207
a(S'time.h'
p5208
F0.0
tp5209
a(S'time.h_1'
p5210
F0.0
tp5211
a(S'ios_base.h'
p5212
F0.0
tp5213
a(S'stdio.h_1'
p5214
F0.0
tp5215
a(S'filesys.h'
p5216
F0.0
tp5217
a(S'iosfwd_1'
p5218
F0.0
tp5219
a(S'pthread.h'
p5220
F0.0
tp5221
a(S'stdio.h'
p5222
F0.0
tp5223
a(S'iostream'
p5224
F0.0
tp5225
a(S'structures.h'
p5226
F0.0
tp5227
a(S'structures.h_1'
p5228
F0.0
tp5229
a(S'string.h'
p5230
F0.0
tp5231
a(S'signal.h'
p5232
F0.0
tp5233
a(S'filesys.h_1'
p5234
F0.0
tp5235
a(S'iosfwd'
p5236
F0.0
tp5237
a(S'test3.cpp'
p5238
F0.0
tp5239
a(S'sb.cpp'
p5240
F0.0
tp5241
a(S'in.cpp'
p5242
F0.0
tp5243
a(S'stringfwd.h'
p5244
F0.0
tp5245
a(S'unistd.h'
p5246
F0.0
tp5247
asS'N'
p5248
(lp5249
(S'time.h'
p5250
I0
tp5251
a(S'time.h_1'
p5252
I0
tp5253
a(S'ios_base.h'
p5254
I0
tp5255
a(S'fs.cpp'
p5256
I0
tp5257
a(S'stdio.h_1'
p5258
I0
tp5259
a(S'filesys.h'
p5260
I0
tp5261
a(S'filesys.cpp'
p5262
I0
tp5263
a(S'iosfwd_1'
p5264
I0
tp5265
a(S'pthread.h'
p5266
I0
tp5267
a(S'stdio.h'
p5268
I0
tp5269
a(S'iostream'
p5270
I0
tp5271
a(S'structures.h'
p5272
I0
tp5273
a(S'structures.h_1'
p5274
I0
tp5275
a(S'string.h'
p5276
I0
tp5277
a(S'signal.h'
p5278
I0
tp5279
a(S'filesys.h_1'
p5280
I0
tp5281
a(S'iosfwd'
p5282
I0
tp5283
a(S'test3.cpp'
p5284
I0
tp5285
a(S'sb.cpp'
p5286
I0
tp5287
a(S'in.cpp'
p5288
I0
tp5289
a(S'stringfwd.h'
p5290
I0
tp5291
a(S'unistd.h'
p5292
I0
tp5293
asS'copy'
p5294
(lp5295
(S'filesys.cpp'
p5296
F0.42718446601941745
tp5297
a(S'time.h'
p5298
F0.0
tp5299
a(S'time.h_1'
p5300
F0.0
tp5301
a(S'ios_base.h'
p5302
F0.0
tp5303
a(S'fs.cpp'
p5304
F0.0
tp5305
a(S'stdio.h_1'
p5306
F0.0
tp5307
a(S'filesys.h'
p5308
F0.0
tp5309
a(S'iosfwd_1'
p5310
F0.0
tp5311
a(S'pthread.h'
p5312
F0.0
tp5313
a(S'stdio.h'
p5314
F0.0
tp5315
a(S'iostream'
p5316
F0.0
tp5317
a(S'structures.h'
p5318
F0.0
tp5319
a(S'structures.h_1'
p5320
F0.0
tp5321
a(S'string.h'
p5322
F0.0
tp5323
a(S'signal.h'
p5324
F0.0
tp5325
a(S'filesys.h_1'
p5326
F0.0
tp5327
a(S'iosfwd'
p5328
F0.0
tp5329
a(S'test3.cpp'
p5330
F0.0
tp5331
a(S'sb.cpp'
p5332
F0.0
tp5333
a(S'in.cpp'
p5334
F0.0
tp5335
a(S'stringfwd.h'
p5336
F0.0
tp5337
a(S'unistd.h'
p5338
F0.0
tp5339
asS'maxfs'
p5340
(lp5341
(S'filesys.cpp'
p5342
F0.21359223300970873
tp5343
a(S'time.h'
p5344
F0.0
tp5345
a(S'time.h_1'
p5346
F0.0
tp5347
a(S'ios_base.h'
p5348
F0.0
tp5349
a(S'fs.cpp'
p5350
F0.0
tp5351
a(S'stdio.h_1'
p5352
F0.0
tp5353
a(S'filesys.h'
p5354
F0.0
tp5355
a(S'iosfwd_1'
p5356
F0.0
tp5357
a(S'pthread.h'
p5358
F0.0
tp5359
a(S'stdio.h'
p5360
F0.0
tp5361
a(S'iostream'
p5362
F0.0
tp5363
a(S'structures.h'
p5364
F0.0
tp5365
a(S'structures.h_1'
p5366
F0.0
tp5367
a(S'string.h'
p5368
F0.0
tp5369
a(S'signal.h'
p5370
F0.0
tp5371
a(S'filesys.h_1'
p5372
F0.0
tp5373
a(S'iosfwd'
p5374
F0.0
tp5375
a(S'test3.cpp'
p5376
F0.0
tp5377
a(S'sb.cpp'
p5378
F0.0
tp5379
a(S'in.cpp'
p5380
F0.0
tp5381
a(S'stringfwd.h'
p5382
F0.0
tp5383
a(S'unistd.h'
p5384
F0.0
tp5385
asS'mkdir_myfs'
p5386
(lp5387
(S'filesys.h_1'
p5388
F0.34375
tp5389
a(S'filesys.h'
p5390
F0.3055555555555555
tp5391
a(S'test3.cpp'
p5392
F0.18333333333333332
tp5393
a(S'filesys.cpp'
p5394
F0.05339805825242718
tp5395
a(S'time.h'
p5396
F0.0
tp5397
a(S'time.h_1'
p5398
F0.0
tp5399
a(S'ios_base.h'
p5400
F0.0
tp5401
a(S'fs.cpp'
p5402
F0.0
tp5403
a(S'stdio.h_1'
p5404
F0.0
tp5405
a(S'iosfwd_1'
p5406
F0.0
tp5407
a(S'pthread.h'
p5408
F0.0
tp5409
a(S'stdio.h'
p5410
F0.0
tp5411
a(S'iostream'
p5412
F0.0
tp5413
a(S'structures.h'
p5414
F0.0
tp5415
a(S'structures.h_1'
p5416
F0.0
tp5417
a(S'string.h'
p5418
F0.0
tp5419
a(S'signal.h'
p5420
F0.0
tp5421
a(S'iosfwd'
p5422
F0.0
tp5423
a(S'sb.cpp'
p5424
F0.0
tp5425
a(S'in.cpp'
p5426
F0.0
tp5427
a(S'stringfwd.h'
p5428
F0.0
tp5429
a(S'unistd.h'
p5430
F0.0
tp5431
asS'replacer'
p5432
(lp5433
(S'fs.cpp'
p5434
F0.2972972972972973
tp5435
a(S'time.h'
p5436
F0.0
tp5437
a(S'time.h_1'
p5438
F0.0
tp5439
a(S'ios_base.h'
p5440
F0.0
tp5441
a(S'stdio.h_1'
p5442
F0.0
tp5443
a(S'filesys.h'
p5444
F0.0
tp5445
a(S'filesys.cpp'
p5446
F0.0
tp5447
a(S'iosfwd_1'
p5448
F0.0
tp5449
a(S'pthread.h'
p5450
F0.0
tp5451
a(S'stdio.h'
p5452
F0.0
tp5453
a(S'iostream'
p5454
F0.0
tp5455
a(S'structures.h'
p5456
F0.0
tp5457
a(S'structures.h_1'
p5458
F0.0
tp5459
a(S'string.h'
p5460
F0.0
tp5461
a(S'signal.h'
p5462
F0.0
tp5463
a(S'filesys.h_1'
p5464
F0.0
tp5465
a(S'iosfwd'
p5466
F0.0
tp5467
a(S'test3.cpp'
p5468
F0.0
tp5469
a(S'sb.cpp'
p5470
F0.0
tp5471
a(S'in.cpp'
p5472
F0.0
tp5473
a(S'stringfwd.h'
p5474
F0.0
tp5475
a(S'unistd.h'
p5476
F0.0
tp5477
asS'dbno'
p5478
(lp5479
(S'fs.cpp'
p5480
F0.5945945945945946
tp5481
a(S'time.h'
p5482
F0.0
tp5483
a(S'time.h_1'
p5484
F0.0
tp5485
a(S'ios_base.h'
p5486
F0.0
tp5487
a(S'stdio.h_1'
p5488
F0.0
tp5489
a(S'filesys.h'
p5490
F0.0
tp5491
a(S'filesys.cpp'
p5492
F0.0
tp5493
a(S'iosfwd_1'
p5494
F0.0
tp5495
a(S'pthread.h'
p5496
F0.0
tp5497
a(S'stdio.h'
p5498
F0.0
tp5499
a(S'iostream'
p5500
F0.0
tp5501
a(S'structures.h'
p5502
F0.0
tp5503
a(S'structures.h_1'
p5504
F0.0
tp5505
a(S'string.h'
p5506
F0.0
tp5507
a(S'signal.h'
p5508
F0.0
tp5509
a(S'filesys.h_1'
p5510
F0.0
tp5511
a(S'iosfwd'
p5512
F0.0
tp5513
a(S'test3.cpp'
p5514
F0.0
tp5515
a(S'sb.cpp'
p5516
F0.0
tp5517
a(S'in.cpp'
p5518
F0.0
tp5519
a(S'stringfwd.h'
p5520
F0.0
tp5521
a(S'unistd.h'
p5522
F0.0
tp5523
asS'newmd'
p5524
(lp5525
(S'filesys.cpp'
p5526
F0.21359223300970873
tp5527
a(S'time.h'
p5528
F0.0
tp5529
a(S'time.h_1'
p5530
F0.0
tp5531
a(S'ios_base.h'
p5532
F0.0
tp5533
a(S'fs.cpp'
p5534
F0.0
tp5535
a(S'stdio.h_1'
p5536
F0.0
tp5537
a(S'filesys.h'
p5538
F0.0
tp5539
a(S'iosfwd_1'
p5540
F0.0
tp5541
a(S'pthread.h'
p5542
F0.0
tp5543
a(S'stdio.h'
p5544
F0.0
tp5545
a(S'iostream'
p5546
F0.0
tp5547
a(S'structures.h'
p5548
F0.0
tp5549
a(S'structures.h_1'
p5550
F0.0
tp5551
a(S'string.h'
p5552
F0.0
tp5553
a(S'signal.h'
p5554
F0.0
tp5555
a(S'filesys.h_1'
p5556
F0.0
tp5557
a(S'iosfwd'
p5558
F0.0
tp5559
a(S'test3.cpp'
p5560
F0.0
tp5561
a(S'sb.cpp'
p5562
F0.0
tp5563
a(S'in.cpp'
p5564
F0.0
tp5565
a(S'stringfwd.h'
p5566
F0.0
tp5567
a(S'unistd.h'
p5568
F0.0
tp5569
asS'fdentry'
p5570
(lp5571
(S'structures.h_1'
p5572
F2.046511627906977
tp5573
a(S'structures.h'
p5574
F0.4074074074074074
tp5575
a(S'time.h'
p5576
F0.0
tp5577
a(S'time.h_1'
p5578
F0.0
tp5579
a(S'ios_base.h'
p5580
F0.0
tp5581
a(S'fs.cpp'
p5582
F0.0
tp5583
a(S'stdio.h_1'
p5584
F0.0
tp5585
a(S'filesys.h'
p5586
F0.0
tp5587
a(S'filesys.cpp'
p5588
F0.0
tp5589
a(S'iosfwd_1'
p5590
F0.0
tp5591
a(S'pthread.h'
p5592
F0.0
tp5593
a(S'stdio.h'
p5594
F0.0
tp5595
a(S'iostream'
p5596
F0.0
tp5597
a(S'string.h'
p5598
F0.0
tp5599
a(S'signal.h'
p5600
F0.0
tp5601
a(S'filesys.h_1'
p5602
F0.0
tp5603
a(S'iosfwd'
p5604
F0.0
tp5605
a(S'test3.cpp'
p5606
F0.0
tp5607
a(S'sb.cpp'
p5608
F0.0
tp5609
a(S'in.cpp'
p5610
F0.0
tp5611
a(S'stringfwd.h'
p5612
F0.0
tp5613
a(S'unistd.h'
p5614
F0.0
tp5615
asS'j'
p5616
(lp5617
(S'in.cpp'
p5618
F0.2222222222222222
tp5619
a(S'fs.cpp'
p5620
F0.1981981981981982
tp5621
a(S'filesys.cpp'
p5622
F0.07119741100323623
tp5623
a(S'time.h'
p5624
F0.0
tp5625
a(S'time.h_1'
p5626
F0.0
tp5627
a(S'ios_base.h'
p5628
F0.0
tp5629
a(S'stdio.h_1'
p5630
F0.0
tp5631
a(S'filesys.h'
p5632
F0.0
tp5633
a(S'iosfwd_1'
p5634
F0.0
tp5635
a(S'pthread.h'
p5636
F0.0
tp5637
a(S'stdio.h'
p5638
F0.0
tp5639
a(S'iostream'
p5640
F0.0
tp5641
a(S'structures.h'
p5642
F0.0
tp5643
a(S'structures.h_1'
p5644
F0.0
tp5645
a(S'string.h'
p5646
F0.0
tp5647
a(S'signal.h'
p5648
F0.0
tp5649
a(S'filesys.h_1'
p5650
F0.0
tp5651
a(S'iosfwd'
p5652
F0.0
tp5653
a(S'test3.cpp'
p5654
F0.0
tp5655
a(S'sb.cpp'
p5656
F0.0
tp5657
a(S'stringfwd.h'
p5658
F0.0
tp5659
a(S'unistd.h'
p5660
F0.0
tp5661
asS'up'
p5662
(lp5663
(S'fs.cpp'
p5664
F0.2972972972972973
tp5665
a(S'filesys.cpp'
p5666
F0.10679611650485436
tp5667
a(S'time.h'
p5668
F0.0
tp5669
a(S'time.h_1'
p5670
F0.0
tp5671
a(S'ios_base.h'
p5672
F0.0
tp5673
a(S'stdio.h_1'
p5674
F0.0
tp5675
a(S'filesys.h'
p5676
F0.0
tp5677
a(S'iosfwd_1'
p5678
F0.0
tp5679
a(S'pthread.h'
p5680
F0.0
tp5681
a(S'stdio.h'
p5682
F0.0
tp5683
a(S'iostream'
p5684
F0.0
tp5685
a(S'structures.h'
p5686
F0.0
tp5687
a(S'structures.h_1'
p5688
F0.0
tp5689
a(S'string.h'
p5690
F0.0
tp5691
a(S'signal.h'
p5692
F0.0
tp5693
a(S'filesys.h_1'
p5694
F0.0
tp5695
a(S'iosfwd'
p5696
F0.0
tp5697
a(S'test3.cpp'
p5698
F0.0
tp5699
a(S'sb.cpp'
p5700
F0.0
tp5701
a(S'in.cpp'
p5702
F0.0
tp5703
a(S'stringfwd.h'
p5704
F0.0
tp5705
a(S'unistd.h'
p5706
F0.0
tp5707
asS'r'
p5708
(lp5709
(S'filesys.cpp'
p5710
F1.0679611650485437
tp5711
a(S'fs.cpp'
p5712
F0.44594594594594594
tp5713
a(S'time.h'
p5714
F0.0
tp5715
a(S'time.h_1'
p5716
F0.0
tp5717
a(S'ios_base.h'
p5718
F0.0
tp5719
a(S'stdio.h_1'
p5720
F0.0
tp5721
a(S'filesys.h'
p5722
F0.0
tp5723
a(S'iosfwd_1'
p5724
F0.0
tp5725
a(S'pthread.h'
p5726
F0.0
tp5727
a(S'stdio.h'
p5728
F0.0
tp5729
a(S'iostream'
p5730
F0.0
tp5731
a(S'structures.h'
p5732
F0.0
tp5733
a(S'structures.h_1'
p5734
F0.0
tp5735
a(S'string.h'
p5736
F0.0
tp5737
a(S'signal.h'
p5738
F0.0
tp5739
a(S'filesys.h_1'
p5740
F0.0
tp5741
a(S'iosfwd'
p5742
F0.0
tp5743
a(S'test3.cpp'
p5744
F0.0
tp5745
a(S'sb.cpp'
p5746
F0.0
tp5747
a(S'in.cpp'
p5748
F0.0
tp5749
a(S'stringfwd.h'
p5750
F0.0
tp5751
a(S'unistd.h'
p5752
F0.0
tp5753
asS'del'
p5754
(lp5755
(S'fs.cpp'
p5756
F0.2972972972972973
tp5757
a(S'time.h'
p5758
F0.0
tp5759
a(S'time.h_1'
p5760
F0.0
tp5761
a(S'ios_base.h'
p5762
F0.0
tp5763
a(S'stdio.h_1'
p5764
F0.0
tp5765
a(S'filesys.h'
p5766
F0.0
tp5767
a(S'filesys.cpp'
p5768
F0.0
tp5769
a(S'iosfwd_1'
p5770
F0.0
tp5771
a(S'pthread.h'
p5772
F0.0
tp5773
a(S'stdio.h'
p5774
F0.0
tp5775
a(S'iostream'
p5776
F0.0
tp5777
a(S'structures.h'
p5778
F0.0
tp5779
a(S'structures.h_1'
p5780
F0.0
tp5781
a(S'string.h'
p5782
F0.0
tp5783
a(S'signal.h'
p5784
F0.0
tp5785
a(S'filesys.h_1'
p5786
F0.0
tp5787
a(S'iosfwd'
p5788
F0.0
tp5789
a(S'test3.cpp'
p5790
F0.0
tp5791
a(S'sb.cpp'
p5792
F0.0
tp5793
a(S'in.cpp'
p5794
F0.0
tp5795
a(S'stringfwd.h'
p5796
F0.0
tp5797
a(S'unistd.h'
p5798
F0.0
tp5799
asS'ctime_r'
p5800
(lp5801
(S'time.h_1'
p5802
F5.5
tp5803
a(S'in.cpp'
p5804
F0.33333333333333337
tp5805
a(S'time.h'
p5806
F0.0
tp5807
a(S'ios_base.h'
p5808
F0.0
tp5809
a(S'fs.cpp'
p5810
F0.0
tp5811
a(S'stdio.h_1'
p5812
F0.0
tp5813
a(S'filesys.h'
p5814
F0.0
tp5815
a(S'filesys.cpp'
p5816
F0.0
tp5817
a(S'iosfwd_1'
p5818
F0.0
tp5819
a(S'pthread.h'
p5820
F0.0
tp5821
a(S'stdio.h'
p5822
F0.0
tp5823
a(S'iostream'
p5824
F0.0
tp5825
a(S'structures.h'
p5826
F0.0
tp5827
a(S'structures.h_1'
p5828
F0.0
tp5829
a(S'string.h'
p5830
F0.0
tp5831
a(S'signal.h'
p5832
F0.0
tp5833
a(S'filesys.h_1'
p5834
F0.0
tp5835
a(S'iosfwd'
p5836
F0.0
tp5837
a(S'test3.cpp'
p5838
F0.0
tp5839
a(S'sb.cpp'
p5840
F0.0
tp5841
a(S'stringfwd.h'
p5842
F0.0
tp5843
a(S'unistd.h'
p5844
F0.0
tp5845
asS'display'
p5846
(lp5847
(S'in.cpp'
p5848
F0.2222222222222222
tp5849
a(S'structures.h'
p5850
F0.13580246913580246
tp5851
a(S'filesys.cpp'
p5852
F0.07119741100323623
tp5853
a(S'time.h'
p5854
F0.0
tp5855
a(S'time.h_1'
p5856
F0.0
tp5857
a(S'ios_base.h'
p5858
F0.0
tp5859
a(S'fs.cpp'
p5860
F0.0
tp5861
a(S'stdio.h_1'
p5862
F0.0
tp5863
a(S'filesys.h'
p5864
F0.0
tp5865
a(S'iosfwd_1'
p5866
F0.0
tp5867
a(S'pthread.h'
p5868
F0.0
tp5869
a(S'stdio.h'
p5870
F0.0
tp5871
a(S'iostream'
p5872
F0.0
tp5873
a(S'structures.h_1'
p5874
F0.0
tp5875
a(S'string.h'
p5876
F0.0
tp5877
a(S'signal.h'
p5878
F0.0
tp5879
a(S'filesys.h_1'
p5880
F0.0
tp5881
a(S'iosfwd'
p5882
F0.0
tp5883
a(S'test3.cpp'
p5884
F0.0
tp5885
a(S'sb.cpp'
p5886
F0.0
tp5887
a(S'stringfwd.h'
p5888
F0.0
tp5889
a(S'unistd.h'
p5890
F0.0
tp5891
asS'copy_pc2myfs'
p5892
(lp5893
(S'filesys.h_1'
p5894
F0.34375
tp5895
a(S'filesys.h'
p5896
F0.3055555555555555
tp5897
a(S'test3.cpp'
p5898
F0.18333333333333332
tp5899
a(S'filesys.cpp'
p5900
F0.05339805825242718
tp5901
a(S'time.h'
p5902
F0.0
tp5903
a(S'time.h_1'
p5904
F0.0
tp5905
a(S'ios_base.h'
p5906
F0.0
tp5907
a(S'fs.cpp'
p5908
F0.0
tp5909
a(S'stdio.h_1'
p5910
F0.0
tp5911
a(S'iosfwd_1'
p5912
F0.0
tp5913
a(S'pthread.h'
p5914
F0.0
tp5915
a(S'stdio.h'
p5916
F0.0
tp5917
a(S'iostream'
p5918
F0.0
tp5919
a(S'structures.h'
p5920
F0.0
tp5921
a(S'structures.h_1'
p5922
F0.0
tp5923
a(S'string.h'
p5924
F0.0
tp5925
a(S'signal.h'
p5926
F0.0
tp5927
a(S'iosfwd'
p5928
F0.0
tp5929
a(S'sb.cpp'
p5930
F0.0
tp5931
a(S'in.cpp'
p5932
F0.0
tp5933
a(S'stringfwd.h'
p5934
F0.0
tp5935
a(S'unistd.h'
p5936
F0.0
tp5937
asS'ad'
p5938
(lp5939
(S'sb.cpp'
p5940
F1.6296296296296295
tp5941
a(S'time.h'
p5942
F0.0
tp5943
a(S'time.h_1'
p5944
F0.0
tp5945
a(S'ios_base.h'
p5946
F0.0
tp5947
a(S'fs.cpp'
p5948
F0.0
tp5949
a(S'stdio.h_1'
p5950
F0.0
tp5951
a(S'filesys.h'
p5952
F0.0
tp5953
a(S'filesys.cpp'
p5954
F0.0
tp5955
a(S'iosfwd_1'
p5956
F0.0
tp5957
a(S'pthread.h'
p5958
F0.0
tp5959
a(S'stdio.h'
p5960
F0.0
tp5961
a(S'iostream'
p5962
F0.0
tp5963
a(S'structures.h'
p5964
F0.0
tp5965
a(S'structures.h_1'
p5966
F0.0
tp5967
a(S'string.h'
p5968
F0.0
tp5969
a(S'signal.h'
p5970
F0.0
tp5971
a(S'filesys.h_1'
p5972
F0.0
tp5973
a(S'iosfwd'
p5974
F0.0
tp5975
a(S'test3.cpp'
p5976
F0.0
tp5977
a(S'in.cpp'
p5978
F0.0
tp5979
a(S'stringfwd.h'
p5980
F0.0
tp5981
a(S'unistd.h'
p5982
F0.0
tp5983
asS'__assert_fail'
p5984
(lp5985
(S'time.h'
p5986
I0
tp5987
a(S'time.h_1'
p5988
I0
tp5989
a(S'ios_base.h'
p5990
I0
tp5991
a(S'fs.cpp'
p5992
I0
tp5993
a(S'stdio.h_1'
p5994
I0
tp5995
a(S'filesys.h'
p5996
I0
tp5997
a(S'filesys.cpp'
p5998
I0
tp5999
a(S'iosfwd_1'
p6000
I0
tp6001
a(S'pthread.h'
p6002
I0
tp6003
a(S'stdio.h'
p6004
I0
tp6005
a(S'iostream'
p6006
I0
tp6007
a(S'structures.h'
p6008
I0
tp6009
a(S'structures.h_1'
p6010
I0
tp6011
a(S'string.h'
p6012
I0
tp6013
a(S'signal.h'
p6014
I0
tp6015
a(S'filesys.h_1'
p6016
I0
tp6017
a(S'iosfwd'
p6018
I0
tp6019
a(S'test3.cpp'
p6020
I0
tp6021
a(S'sb.cpp'
p6022
I0
tp6023
a(S'in.cpp'
p6024
I0
tp6025
a(S'stringfwd.h'
p6026
I0
tp6027
a(S'unistd.h'
p6028
I0
tp6029
asS'tellg'
p6030
(lp6031
(S'time.h'
p6032
I0
tp6033
a(S'time.h_1'
p6034
I0
tp6035
a(S'ios_base.h'
p6036
I0
tp6037
a(S'fs.cpp'
p6038
I0
tp6039
a(S'stdio.h_1'
p6040
I0
tp6041
a(S'filesys.h'
p6042
I0
tp6043
a(S'filesys.cpp'
p6044
I0
tp6045
a(S'iosfwd_1'
p6046
I0
tp6047
a(S'pthread.h'
p6048
I0
tp6049
a(S'stdio.h'
p6050
I0
tp6051
a(S'iostream'
p6052
I0
tp6053
a(S'structures.h'
p6054
I0
tp6055
a(S'structures.h_1'
p6056
I0
tp6057
a(S'string.h'
p6058
I0
tp6059
a(S'signal.h'
p6060
I0
tp6061
a(S'filesys.h_1'
p6062
I0
tp6063
a(S'iosfwd'
p6064
I0
tp6065
a(S'test3.cpp'
p6066
I0
tp6067
a(S'sb.cpp'
p6068
I0
tp6069
a(S'in.cpp'
p6070
I0
tp6071
a(S'stringfwd.h'
p6072
I0
tp6073
a(S'unistd.h'
p6074
I0
tp6075
asS'dindbl'
p6076
(lp6077
(S'in.cpp'
p6078
F0.16666666666666669
tp6079
a(S'structures.h_1'
p6080
F0.12790697674418605
tp6081
a(S'structures.h'
p6082
F0.10185185185185185
tp6083
a(S'fs.cpp'
p6084
F0.07432432432432433
tp6085
a(S'time.h'
p6086
F0.0
tp6087
a(S'time.h_1'
p6088
F0.0
tp6089
a(S'ios_base.h'
p6090
F0.0
tp6091
a(S'stdio.h_1'
p6092
F0.0
tp6093
a(S'filesys.h'
p6094
F0.0
tp6095
a(S'filesys.cpp'
p6096
F0.0
tp6097
a(S'iosfwd_1'
p6098
F0.0
tp6099
a(S'pthread.h'
p6100
F0.0
tp6101
a(S'stdio.h'
p6102
F0.0
tp6103
a(S'iostream'
p6104
F0.0
tp6105
a(S'string.h'
p6106
F0.0
tp6107
a(S'signal.h'
p6108
F0.0
tp6109
a(S'filesys.h_1'
p6110
F0.0
tp6111
a(S'iosfwd'
p6112
F0.0
tp6113
a(S'test3.cpp'
p6114
F0.0
tp6115
a(S'sb.cpp'
p6116
F0.0
tp6117
a(S'stringfwd.h'
p6118
F0.0
tp6119
a(S'unistd.h'
p6120
F0.0
tp6121
asS'ap'
p6122
(lp6123
(S'fs.cpp'
p6124
F0.2972972972972973
tp6125
a(S'time.h'
p6126
F0.0
tp6127
a(S'time.h_1'
p6128
F0.0
tp6129
a(S'ios_base.h'
p6130
F0.0
tp6131
a(S'stdio.h_1'
p6132
F0.0
tp6133
a(S'filesys.h'
p6134
F0.0
tp6135
a(S'filesys.cpp'
p6136
F0.0
tp6137
a(S'iosfwd_1'
p6138
F0.0
tp6139
a(S'pthread.h'
p6140
F0.0
tp6141
a(S'stdio.h'
p6142
F0.0
tp6143
a(S'iostream'
p6144
F0.0
tp6145
a(S'structures.h'
p6146
F0.0
tp6147
a(S'structures.h_1'
p6148
F0.0
tp6149
a(S'string.h'
p6150
F0.0
tp6151
a(S'signal.h'
p6152
F0.0
tp6153
a(S'filesys.h_1'
p6154
F0.0
tp6155
a(S'iosfwd'
p6156
F0.0
tp6157
a(S'test3.cpp'
p6158
F0.0
tp6159
a(S'sb.cpp'
p6160
F0.0
tp6161
a(S'in.cpp'
p6162
F0.0
tp6163
a(S'stringfwd.h'
p6164
F0.0
tp6165
a(S'unistd.h'
p6166
F0.0
tp6167
asS'us2char'
p6168
(lp6169
(S'structures.h_1'
p6170
F0.17054263565891473
tp6171
a(S'structures.h'
p6172
F0.13580246913580246
tp6173
a(S'fs.cpp'
p6174
F0.0990990990990991
tp6175
a(S'time.h'
p6176
F0.0
tp6177
a(S'time.h_1'
p6178
F0.0
tp6179
a(S'ios_base.h'
p6180
F0.0
tp6181
a(S'stdio.h_1'
p6182
F0.0
tp6183
a(S'filesys.h'
p6184
F0.0
tp6185
a(S'filesys.cpp'
p6186
F0.0
tp6187
a(S'iosfwd_1'
p6188
F0.0
tp6189
a(S'pthread.h'
p6190
F0.0
tp6191
a(S'stdio.h'
p6192
F0.0
tp6193
a(S'iostream'
p6194
F0.0
tp6195
a(S'string.h'
p6196
F0.0
tp6197
a(S'signal.h'
p6198
F0.0
tp6199
a(S'filesys.h_1'
p6200
F0.0
tp6201
a(S'iosfwd'
p6202
F0.0
tp6203
a(S'test3.cpp'
p6204
F0.0
tp6205
a(S'sb.cpp'
p6206
F0.0
tp6207
a(S'in.cpp'
p6208
F0.0
tp6209
a(S'stringfwd.h'
p6210
F0.0
tp6211
a(S'unistd.h'
p6212
F0.0
tp6213
asS'in'
p6214
(lp6215
(S'structures.h_1'
p6216
F0.5116279069767442
tp6217
a(S'in.cpp'
p6218
F0.2666666666666667
tp6219
a(S'structures.h'
p6220
F0.16296296296296298
tp6221
a(S'fs.cpp'
p6222
F0.05945945945945947
tp6223
a(S'filesys.cpp'
p6224
F0.04271844660194175
tp6225
a(S'time.h'
p6226
F0.0
tp6227
a(S'time.h_1'
p6228
F0.0
tp6229
a(S'ios_base.h'
p6230
F0.0
tp6231
a(S'stdio.h_1'
p6232
F0.0
tp6233
a(S'filesys.h'
p6234
F0.0
tp6235
a(S'iosfwd_1'
p6236
F0.0
tp6237
a(S'pthread.h'
p6238
F0.0
tp6239
a(S'stdio.h'
p6240
F0.0
tp6241
a(S'iostream'
p6242
F0.0
tp6243
a(S'string.h'
p6244
F0.0
tp6245
a(S'signal.h'
p6246
F0.0
tp6247
a(S'filesys.h_1'
p6248
F0.0
tp6249
a(S'iosfwd'
p6250
F0.0
tp6251
a(S'test3.cpp'
p6252
F0.0
tp6253
a(S'sb.cpp'
p6254
F0.0
tp6255
a(S'stringfwd.h'
p6256
F0.0
tp6257
a(S'unistd.h'
p6258
F0.0
tp6259
asS'strlen'
p6260
(lp6261
(S'time.h'
p6262
I0
tp6263
a(S'time.h_1'
p6264
I0
tp6265
a(S'ios_base.h'
p6266
I0
tp6267
a(S'fs.cpp'
p6268
I0
tp6269
a(S'stdio.h_1'
p6270
I0
tp6271
a(S'filesys.h'
p6272
I0
tp6273
a(S'filesys.cpp'
p6274
I0
tp6275
a(S'iosfwd_1'
p6276
I0
tp6277
a(S'pthread.h'
p6278
I0
tp6279
a(S'stdio.h'
p6280
I0
tp6281
a(S'iostream'
p6282
I0
tp6283
a(S'structures.h'
p6284
I0
tp6285
a(S'structures.h_1'
p6286
I0
tp6287
a(S'string.h'
p6288
I0
tp6289
a(S'signal.h'
p6290
I0
tp6291
a(S'filesys.h_1'
p6292
I0
tp6293
a(S'iosfwd'
p6294
I0
tp6295
a(S'test3.cpp'
p6296
I0
tp6297
a(S'sb.cpp'
p6298
I0
tp6299
a(S'in.cpp'
p6300
I0
tp6301
a(S'stringfwd.h'
p6302
I0
tp6303
a(S'unistd.h'
p6304
I0
tp6305
asS'binary'
p6306
(lp6307
(S'time.h'
p6308
I0
tp6309
a(S'time.h_1'
p6310
I0
tp6311
a(S'ios_base.h'
p6312
I0
tp6313
a(S'fs.cpp'
p6314
I0
tp6315
a(S'stdio.h_1'
p6316
I0
tp6317
a(S'filesys.h'
p6318
I0
tp6319
a(S'filesys.cpp'
p6320
I0
tp6321
a(S'iosfwd_1'
p6322
I0
tp6323
a(S'pthread.h'
p6324
I0
tp6325
a(S'stdio.h'
p6326
I0
tp6327
a(S'iostream'
p6328
I0
tp6329
a(S'structures.h'
p6330
I0
tp6331
a(S'structures.h_1'
p6332
I0
tp6333
a(S'string.h'
p6334
I0
tp6335
a(S'signal.h'
p6336
I0
tp6337
a(S'filesys.h_1'
p6338
I0
tp6339
a(S'iosfwd'
p6340
I0
tp6341
a(S'test3.cpp'
p6342
I0
tp6343
a(S'sb.cpp'
p6344
I0
tp6345
a(S'in.cpp'
p6346
I0
tp6347
a(S'stringfwd.h'
p6348
I0
tp6349
a(S'unistd.h'
p6350
I0
tp6351
asS'myfs'
p6352
(lp6353
(S'filesys.cpp'
p6354
F0.21359223300970873
tp6355
a(S'time.h'
p6356
F0.0
tp6357
a(S'time.h_1'
p6358
F0.0
tp6359
a(S'ios_base.h'
p6360
F0.0
tp6361
a(S'fs.cpp'
p6362
F0.0
tp6363
a(S'stdio.h_1'
p6364
F0.0
tp6365
a(S'filesys.h'
p6366
F0.0
tp6367
a(S'iosfwd_1'
p6368
F0.0
tp6369
a(S'pthread.h'
p6370
F0.0
tp6371
a(S'stdio.h'
p6372
F0.0
tp6373
a(S'iostream'
p6374
F0.0
tp6375
a(S'structures.h'
p6376
F0.0
tp6377
a(S'structures.h_1'
p6378
F0.0
tp6379
a(S'string.h'
p6380
F0.0
tp6381
a(S'signal.h'
p6382
F0.0
tp6383
a(S'filesys.h_1'
p6384
F0.0
tp6385
a(S'iosfwd'
p6386
F0.0
tp6387
a(S'test3.cpp'
p6388
F0.0
tp6389
a(S'sb.cpp'
p6390
F0.0
tp6391
a(S'in.cpp'
p6392
F0.0
tp6393
a(S'stringfwd.h'
p6394
F0.0
tp6395
a(S'unistd.h'
p6396
F0.0
tp6397
asS'end'
p6398
(lp6399
(S'time.h'
p6400
I0
tp6401
a(S'time.h_1'
p6402
I0
tp6403
a(S'ios_base.h'
p6404
I0
tp6405
a(S'fs.cpp'
p6406
I0
tp6407
a(S'stdio.h_1'
p6408
I0
tp6409
a(S'filesys.h'
p6410
I0
tp6411
a(S'filesys.cpp'
p6412
I0
tp6413
a(S'iosfwd_1'
p6414
I0
tp6415
a(S'pthread.h'
p6416
I0
tp6417
a(S'stdio.h'
p6418
I0
tp6419
a(S'iostream'
p6420
I0
tp6421
a(S'structures.h'
p6422
I0
tp6423
a(S'structures.h_1'
p6424
I0
tp6425
a(S'string.h'
p6426
I0
tp6427
a(S'signal.h'
p6428
I0
tp6429
a(S'filesys.h_1'
p6430
I0
tp6431
a(S'iosfwd'
p6432
I0
tp6433
a(S'test3.cpp'
p6434
I0
tp6435
a(S'sb.cpp'
p6436
I0
tp6437
a(S'in.cpp'
p6438
I0
tp6439
a(S'stringfwd.h'
p6440
I0
tp6441
a(S'unistd.h'
p6442
I0
tp6443
asS'fdtable'
p6444
(lp6445
(S'structures.h_1'
p6446
F0.17054263565891473
tp6447
a(S'structures.h'
p6448
F0.13580246913580246
tp6449
a(S'filesys.cpp'
p6450
F0.07119741100323623
tp6451
a(S'time.h'
p6452
F0.0
tp6453
a(S'time.h_1'
p6454
F0.0
tp6455
a(S'ios_base.h'
p6456
F0.0
tp6457
a(S'fs.cpp'
p6458
F0.0
tp6459
a(S'stdio.h_1'
p6460
F0.0
tp6461
a(S'filesys.h'
p6462
F0.0
tp6463
a(S'iosfwd_1'
p6464
F0.0
tp6465
a(S'pthread.h'
p6466
F0.0
tp6467
a(S'stdio.h'
p6468
F0.0
tp6469
a(S'iostream'
p6470
F0.0
tp6471
a(S'string.h'
p6472
F0.0
tp6473
a(S'signal.h'
p6474
F0.0
tp6475
a(S'filesys.h_1'
p6476
F0.0
tp6477
a(S'iosfwd'
p6478
F0.0
tp6479
a(S'test3.cpp'
p6480
F0.0
tp6481
a(S'sb.cpp'
p6482
F0.0
tp6483
a(S'in.cpp'
p6484
F0.0
tp6485
a(S'stringfwd.h'
p6486
F0.0
tp6487
a(S'unistd.h'
p6488
F0.0
tp6489
asS'close_myfs'
p6490
(lp6491
(S'filesys.h_1'
p6492
F0.4583333333333333
tp6493
a(S'filesys.h'
p6494
F0.4074074074074074
tp6495
a(S'filesys.cpp'
p6496
F0.07119741100323623
tp6497
a(S'time.h'
p6498
F0.0
tp6499
a(S'time.h_1'
p6500
F0.0
tp6501
a(S'ios_base.h'
p6502
F0.0
tp6503
a(S'fs.cpp'
p6504
F0.0
tp6505
a(S'stdio.h_1'
p6506
F0.0
tp6507
a(S'iosfwd_1'
p6508
F0.0
tp6509
a(S'pthread.h'
p6510
F0.0
tp6511
a(S'stdio.h'
p6512
F0.0
tp6513
a(S'iostream'
p6514
F0.0
tp6515
a(S'structures.h'
p6516
F0.0
tp6517
a(S'structures.h_1'
p6518
F0.0
tp6519
a(S'string.h'
p6520
F0.0
tp6521
a(S'signal.h'
p6522
F0.0
tp6523
a(S'iosfwd'
p6524
F0.0
tp6525
a(S'test3.cpp'
p6526
F0.0
tp6527
a(S'sb.cpp'
p6528
F0.0
tp6529
a(S'in.cpp'
p6530
F0.0
tp6531
a(S'stringfwd.h'
p6532
F0.0
tp6533
a(S'unistd.h'
p6534
F0.0
tp6535
asS'fsize'
p6536
(lp6537
(S'in.cpp'
p6538
F0.13333333333333336
tp6539
a(S'structures.h_1'
p6540
F0.10232558139534885
tp6541
a(S'structures.h'
p6542
F0.08148148148148149
tp6543
a(S'fs.cpp'
p6544
F0.05945945945945947
tp6545
a(S'filesys.cpp'
p6546
F0.04271844660194175
tp6547
a(S'time.h'
p6548
F0.0
tp6549
a(S'time.h_1'
p6550
F0.0
tp6551
a(S'ios_base.h'
p6552
F0.0
tp6553
a(S'stdio.h_1'
p6554
F0.0
tp6555
a(S'filesys.h'
p6556
F0.0
tp6557
a(S'iosfwd_1'
p6558
F0.0
tp6559
a(S'pthread.h'
p6560
F0.0
tp6561
a(S'stdio.h'
p6562
F0.0
tp6563
a(S'iostream'
p6564
F0.0
tp6565
a(S'string.h'
p6566
F0.0
tp6567
a(S'signal.h'
p6568
F0.0
tp6569
a(S'filesys.h_1'
p6570
F0.0
tp6571
a(S'iosfwd'
p6572
F0.0
tp6573
a(S'test3.cpp'
p6574
F0.0
tp6575
a(S'sb.cpp'
p6576
F0.0
tp6577
a(S'stringfwd.h'
p6578
F0.0
tp6579
a(S'unistd.h'
p6580
F0.0
tp6581
asS'barWidth'
p6582
(lp6583
(S'fs.cpp'
p6584
F0.2972972972972973
tp6585
a(S'time.h'
p6586
F0.0
tp6587
a(S'time.h_1'
p6588
F0.0
tp6589
a(S'ios_base.h'
p6590
F0.0
tp6591
a(S'stdio.h_1'
p6592
F0.0
tp6593
a(S'filesys.h'
p6594
F0.0
tp6595
a(S'filesys.cpp'
p6596
F0.0
tp6597
a(S'iosfwd_1'
p6598
F0.0
tp6599
a(S'pthread.h'
p6600
F0.0
tp6601
a(S'stdio.h'
p6602
F0.0
tp6603
a(S'iostream'
p6604
F0.0
tp6605
a(S'structures.h'
p6606
F0.0
tp6607
a(S'structures.h_1'
p6608
F0.0
tp6609
a(S'string.h'
p6610
F0.0
tp6611
a(S'signal.h'
p6612
F0.0
tp6613
a(S'filesys.h_1'
p6614
F0.0
tp6615
a(S'iosfwd'
p6616
F0.0
tp6617
a(S'test3.cpp'
p6618
F0.0
tp6619
a(S'sb.cpp'
p6620
F0.0
tp6621
a(S'in.cpp'
p6622
F0.0
tp6623
a(S'stringfwd.h'
p6624
F0.0
tp6625
a(S'unistd.h'
p6626
F0.0
tp6627
asS'dbused'
p6628
(lp6629
(S'sb.cpp'
p6630
F0.2716049382716049
tp6631
a(S'structures.h_1'
p6632
F0.17054263565891473
tp6633
a(S'structures.h'
p6634
F0.13580246913580246
tp6635
a(S'time.h'
p6636
F0.0
tp6637
a(S'time.h_1'
p6638
F0.0
tp6639
a(S'ios_base.h'
p6640
F0.0
tp6641
a(S'fs.cpp'
p6642
F0.0
tp6643
a(S'stdio.h_1'
p6644
F0.0
tp6645
a(S'filesys.h'
p6646
F0.0
tp6647
a(S'filesys.cpp'
p6648
F0.0
tp6649
a(S'iosfwd_1'
p6650
F0.0
tp6651
a(S'pthread.h'
p6652
F0.0
tp6653
a(S'stdio.h'
p6654
F0.0
tp6655
a(S'iostream'
p6656
F0.0
tp6657
a(S'string.h'
p6658
F0.0
tp6659
a(S'signal.h'
p6660
F0.0
tp6661
a(S'filesys.h_1'
p6662
F0.0
tp6663
a(S'iosfwd'
p6664
F0.0
tp6665
a(S'test3.cpp'
p6666
F0.0
tp6667
a(S'in.cpp'
p6668
F0.0
tp6669
a(S'stringfwd.h'
p6670
F0.0
tp6671
a(S'unistd.h'
p6672
F0.0
tp6673
asS'write'
p6674
(lp6675
(S'time.h'
p6676
I0
tp6677
a(S'time.h_1'
p6678
I0
tp6679
a(S'ios_base.h'
p6680
I0
tp6681
a(S'fs.cpp'
p6682
I0
tp6683
a(S'stdio.h_1'
p6684
I0
tp6685
a(S'filesys.h'
p6686
I0
tp6687
a(S'filesys.cpp'
p6688
I0
tp6689
a(S'iosfwd_1'
p6690
I0
tp6691
a(S'pthread.h'
p6692
I0
tp6693
a(S'stdio.h'
p6694
I0
tp6695
a(S'iostream'
p6696
I0
tp6697
a(S'structures.h'
p6698
I0
tp6699
a(S'structures.h_1'
p6700
I0
tp6701
a(S'string.h'
p6702
I0
tp6703
a(S'signal.h'
p6704
I0
tp6705
a(S'filesys.h_1'
p6706
I0
tp6707
a(S'iosfwd'
p6708
I0
tp6709
a(S'test3.cpp'
p6710
I0
tp6711
a(S'sb.cpp'
p6712
I0
tp6713
a(S'in.cpp'
p6714
I0
tp6715
a(S'stringfwd.h'
p6716
I0
tp6717
a(S'unistd.h'
p6718
I0
tp6719
asS'dest'
p6720
(lp6721
(S'filesys.cpp'
p6722
F0.42718446601941745
tp6723
a(S'time.h'
p6724
F0.0
tp6725
a(S'time.h_1'
p6726
F0.0
tp6727
a(S'ios_base.h'
p6728
F0.0
tp6729
a(S'fs.cpp'
p6730
F0.0
tp6731
a(S'stdio.h_1'
p6732
F0.0
tp6733
a(S'filesys.h'
p6734
F0.0
tp6735
a(S'iosfwd_1'
p6736
F0.0
tp6737
a(S'pthread.h'
p6738
F0.0
tp6739
a(S'stdio.h'
p6740
F0.0
tp6741
a(S'iostream'
p6742
F0.0
tp6743
a(S'structures.h'
p6744
F0.0
tp6745
a(S'structures.h_1'
p6746
F0.0
tp6747
a(S'string.h'
p6748
F0.0
tp6749
a(S'signal.h'
p6750
F0.0
tp6751
a(S'filesys.h_1'
p6752
F0.0
tp6753
a(S'iosfwd'
p6754
F0.0
tp6755
a(S'test3.cpp'
p6756
F0.0
tp6757
a(S'sb.cpp'
p6758
F0.0
tp6759
a(S'in.cpp'
p6760
F0.0
tp6761
a(S'stringfwd.h'
p6762
F0.0
tp6763
a(S'unistd.h'
p6764
F0.0
tp6765
asS'ent'
p6766
(lp6767
(S'filesys.cpp'
p6768
F0.5339805825242718
tp6769
a(S'fs.cpp'
p6770
F0.14864864864864866
tp6771
a(S'time.h'
p6772
F0.0
tp6773
a(S'time.h_1'
p6774
F0.0
tp6775
a(S'ios_base.h'
p6776
F0.0
tp6777
a(S'stdio.h_1'
p6778
F0.0
tp6779
a(S'filesys.h'
p6780
F0.0
tp6781
a(S'iosfwd_1'
p6782
F0.0
tp6783
a(S'pthread.h'
p6784
F0.0
tp6785
a(S'stdio.h'
p6786
F0.0
tp6787
a(S'iostream'
p6788
F0.0
tp6789
a(S'structures.h'
p6790
F0.0
tp6791
a(S'structures.h_1'
p6792
F0.0
tp6793
a(S'string.h'
p6794
F0.0
tp6795
a(S'signal.h'
p6796
F0.0
tp6797
a(S'filesys.h_1'
p6798
F0.0
tp6799
a(S'iosfwd'
p6800
F0.0
tp6801
a(S'test3.cpp'
p6802
F0.0
tp6803
a(S'sb.cpp'
p6804
F0.0
tp6805
a(S'in.cpp'
p6806
F0.0
tp6807
a(S'stringfwd.h'
p6808
F0.0
tp6809
a(S'unistd.h'
p6810
F0.0
tp6811
asS'fname'
p6812
(lp6813
(S'filesys.cpp'
p6814
F0.8543689320388349
tp6815
a(S'time.h'
p6816
F0.0
tp6817
a(S'time.h_1'
p6818
F0.0
tp6819
a(S'ios_base.h'
p6820
F0.0
tp6821
a(S'fs.cpp'
p6822
F0.0
tp6823
a(S'stdio.h_1'
p6824
F0.0
tp6825
a(S'filesys.h'
p6826
F0.0
tp6827
a(S'iosfwd_1'
p6828
F0.0
tp6829
a(S'pthread.h'
p6830
F0.0
tp6831
a(S'stdio.h'
p6832
F0.0
tp6833
a(S'iostream'
p6834
F0.0
tp6835
a(S'structures.h'
p6836
F0.0
tp6837
a(S'structures.h_1'
p6838
F0.0
tp6839
a(S'string.h'
p6840
F0.0
tp6841
a(S'signal.h'
p6842
F0.0
tp6843
a(S'filesys.h_1'
p6844
F0.0
tp6845
a(S'iosfwd'
p6846
F0.0
tp6847
a(S'test3.cpp'
p6848
F0.0
tp6849
a(S'sb.cpp'
p6850
F0.0
tp6851
a(S'in.cpp'
p6852
F0.0
tp6853
a(S'stringfwd.h'
p6854
F0.0
tp6855
a(S'unistd.h'
p6856
F0.0
tp6857
asS'test'
p6858
(lp6859
(S'test3.cpp'
p6860
F0.7333333333333333
tp6861
a(S'time.h'
p6862
F0.0
tp6863
a(S'time.h_1'
p6864
F0.0
tp6865
a(S'ios_base.h'
p6866
F0.0
tp6867
a(S'fs.cpp'
p6868
F0.0
tp6869
a(S'stdio.h_1'
p6870
F0.0
tp6871
a(S'filesys.h'
p6872
F0.0
tp6873
a(S'filesys.cpp'
p6874
F0.0
tp6875
a(S'iosfwd_1'
p6876
F0.0
tp6877
a(S'pthread.h'
p6878
F0.0
tp6879
a(S'stdio.h'
p6880
F0.0
tp6881
a(S'iostream'
p6882
F0.0
tp6883
a(S'structures.h'
p6884
F0.0
tp6885
a(S'structures.h_1'
p6886
F0.0
tp6887
a(S'string.h'
p6888
F0.0
tp6889
a(S'signal.h'
p6890
F0.0
tp6891
a(S'filesys.h_1'
p6892
F0.0
tp6893
a(S'iosfwd'
p6894
F0.0
tp6895
a(S'sb.cpp'
p6896
F0.0
tp6897
a(S'in.cpp'
p6898
F0.0
tp6899
a(S'stringfwd.h'
p6900
F0.0
tp6901
a(S'unistd.h'
p6902
F0.0
tp6903
asS'mycode'
p6904
(lp6905
(S'test3.cpp'
p6906
F0.7333333333333333
tp6907
a(S'time.h'
p6908
F0.0
tp6909
a(S'time.h_1'
p6910
F0.0
tp6911
a(S'ios_base.h'
p6912
F0.0
tp6913
a(S'fs.cpp'
p6914
F0.0
tp6915
a(S'stdio.h_1'
p6916
F0.0
tp6917
a(S'filesys.h'
p6918
F0.0
tp6919
a(S'filesys.cpp'
p6920
F0.0
tp6921
a(S'iosfwd_1'
p6922
F0.0
tp6923
a(S'pthread.h'
p6924
F0.0
tp6925
a(S'stdio.h'
p6926
F0.0
tp6927
a(S'iostream'
p6928
F0.0
tp6929
a(S'structures.h'
p6930
F0.0
tp6931
a(S'structures.h_1'
p6932
F0.0
tp6933
a(S'string.h'
p6934
F0.0
tp6935
a(S'signal.h'
p6936
F0.0
tp6937
a(S'filesys.h_1'
p6938
F0.0
tp6939
a(S'iosfwd'
p6940
F0.0
tp6941
a(S'sb.cpp'
p6942
F0.0
tp6943
a(S'in.cpp'
p6944
F0.0
tp6945
a(S'stringfwd.h'
p6946
F0.0
tp6947
a(S'unistd.h'
p6948
F0.0
tp6949
asS'copy_myfs2pc'
p6950
(lp6951
(S'filesys.h_1'
p6952
F0.4583333333333333
tp6953
a(S'filesys.h'
p6954
F0.4074074074074074
tp6955
a(S'filesys.cpp'
p6956
F0.07119741100323623
tp6957
a(S'time.h'
p6958
F0.0
tp6959
a(S'time.h_1'
p6960
F0.0
tp6961
a(S'ios_base.h'
p6962
F0.0
tp6963
a(S'fs.cpp'
p6964
F0.0
tp6965
a(S'stdio.h_1'
p6966
F0.0
tp6967
a(S'iosfwd_1'
p6968
F0.0
tp6969
a(S'pthread.h'
p6970
F0.0
tp6971
a(S'stdio.h'
p6972
F0.0
tp6973
a(S'iostream'
p6974
F0.0
tp6975
a(S'structures.h'
p6976
F0.0
tp6977
a(S'structures.h_1'
p6978
F0.0
tp6979
a(S'string.h'
p6980
F0.0
tp6981
a(S'signal.h'
p6982
F0.0
tp6983
a(S'iosfwd'
p6984
F0.0
tp6985
a(S'test3.cpp'
p6986
F0.0
tp6987
a(S'sb.cpp'
p6988
F0.0
tp6989
a(S'in.cpp'
p6990
F0.0
tp6991
a(S'stringfwd.h'
p6992
F0.0
tp6993
a(S'unistd.h'
p6994
F0.0
tp6995
asS'buff'
p6996
(lp6997
(S'filesys.cpp'
p6998
F0.42718446601941745
tp6999
a(S'time.h'
p7000
F0.0
tp7001
a(S'time.h_1'
p7002
F0.0
tp7003
a(S'ios_base.h'
p7004
F0.0
tp7005
a(S'fs.cpp'
p7006
F0.0
tp7007
a(S'stdio.h_1'
p7008
F0.0
tp7009
a(S'filesys.h'
p7010
F0.0
tp7011
a(S'iosfwd_1'
p7012
F0.0
tp7013
a(S'pthread.h'
p7014
F0.0
tp7015
a(S'stdio.h'
p7016
F0.0
tp7017
a(S'iostream'
p7018
F0.0
tp7019
a(S'structures.h'
p7020
F0.0
tp7021
a(S'structures.h_1'
p7022
F0.0
tp7023
a(S'string.h'
p7024
F0.0
tp7025
a(S'signal.h'
p7026
F0.0
tp7027
a(S'filesys.h_1'
p7028
F0.0
tp7029
a(S'iosfwd'
p7030
F0.0
tp7031
a(S'test3.cpp'
p7032
F0.0
tp7033
a(S'sb.cpp'
p7034
F0.0
tp7035
a(S'in.cpp'
p7036
F0.0
tp7037
a(S'stringfwd.h'
p7038
F0.0
tp7039
a(S'unistd.h'
p7040
F0.0
tp7041
asS'fp'
p7042
(lp7043
(S'sb.cpp'
p7044
F0.5432098765432098
tp7045
a(S'in.cpp'
p7046
F0.4444444444444444
tp7047
a(S'filesys.cpp'
p7048
F0.28478964401294493
tp7049
a(S'time.h'
p7050
F0.0
tp7051
a(S'time.h_1'
p7052
F0.0
tp7053
a(S'ios_base.h'
p7054
F0.0
tp7055
a(S'fs.cpp'
p7056
F0.0
tp7057
a(S'stdio.h_1'
p7058
F0.0
tp7059
a(S'filesys.h'
p7060
F0.0
tp7061
a(S'iosfwd_1'
p7062
F0.0
tp7063
a(S'pthread.h'
p7064
F0.0
tp7065
a(S'stdio.h'
p7066
F0.0
tp7067
a(S'iostream'
p7068
F0.0
tp7069
a(S'structures.h'
p7070
F0.0
tp7071
a(S'structures.h_1'
p7072
F0.0
tp7073
a(S'string.h'
p7074
F0.0
tp7075
a(S'signal.h'
p7076
F0.0
tp7077
a(S'filesys.h_1'
p7078
F0.0
tp7079
a(S'iosfwd'
p7080
F0.0
tp7081
a(S'test3.cpp'
p7082
F0.0
tp7083
a(S'stringfwd.h'
p7084
F0.0
tp7085
a(S'unistd.h'
p7086
F0.0
tp7087
asS'fs'
p7088
(lp7089
(S'filesys.cpp'
p7090
F0.42718446601941745
tp7091
a(S'time.h'
p7092
F0.0
tp7093
a(S'time.h_1'
p7094
F0.0
tp7095
a(S'ios_base.h'
p7096
F0.0
tp7097
a(S'fs.cpp'
p7098
F0.0
tp7099
a(S'stdio.h_1'
p7100
F0.0
tp7101
a(S'filesys.h'
p7102
F0.0
tp7103
a(S'iosfwd_1'
p7104
F0.0
tp7105
a(S'pthread.h'
p7106
F0.0
tp7107
a(S'stdio.h'
p7108
F0.0
tp7109
a(S'iostream'
p7110
F0.0
tp7111
a(S'structures.h'
p7112
F0.0
tp7113
a(S'structures.h_1'
p7114
F0.0
tp7115
a(S'string.h'
p7116
F0.0
tp7117
a(S'signal.h'
p7118
F0.0
tp7119
a(S'filesys.h_1'
p7120
F0.0
tp7121
a(S'iosfwd'
p7122
F0.0
tp7123
a(S'test3.cpp'
p7124
F0.0
tp7125
a(S'sb.cpp'
p7126
F0.0
tp7127
a(S'in.cpp'
p7128
F0.0
tp7129
a(S'stringfwd.h'
p7130
F0.0
tp7131
a(S'unistd.h'
p7132
F0.0
tp7133
asS'maxdb'
p7134
(lp7135
(S'sb.cpp'
p7136
F0.16296296296296298
tp7137
a(S'structures.h_1'
p7138
F0.10232558139534885
tp7139
a(S'structures.h'
p7140
F0.08148148148148149
tp7141
a(S'fs.cpp'
p7142
F0.05945945945945947
tp7143
a(S'filesys.cpp'
p7144
F0.04271844660194175
tp7145
a(S'time.h'
p7146
F0.0
tp7147
a(S'time.h_1'
p7148
F0.0
tp7149
a(S'ios_base.h'
p7150
F0.0
tp7151
a(S'stdio.h_1'
p7152
F0.0
tp7153
a(S'filesys.h'
p7154
F0.0
tp7155
a(S'iosfwd_1'
p7156
F0.0
tp7157
a(S'pthread.h'
p7158
F0.0
tp7159
a(S'stdio.h'
p7160
F0.0
tp7161
a(S'iostream'
p7162
F0.0
tp7163
a(S'string.h'
p7164
F0.0
tp7165
a(S'signal.h'
p7166
F0.0
tp7167
a(S'filesys.h_1'
p7168
F0.0
tp7169
a(S'iosfwd'
p7170
F0.0
tp7171
a(S'test3.cpp'
p7172
F0.0
tp7173
a(S'in.cpp'
p7174
F0.0
tp7175
a(S'stringfwd.h'
p7176
F0.0
tp7177
a(S'unistd.h'
p7178
F0.0
tp7179
asS'curfs'
p7180
(lp7181
(S'filesys.cpp'
p7182
F0.21359223300970873
tp7183
a(S'time.h'
p7184
F0.0
tp7185
a(S'time.h_1'
p7186
F0.0
tp7187
a(S'ios_base.h'
p7188
F0.0
tp7189
a(S'fs.cpp'
p7190
F0.0
tp7191
a(S'stdio.h_1'
p7192
F0.0
tp7193
a(S'filesys.h'
p7194
F0.0
tp7195
a(S'iosfwd_1'
p7196
F0.0
tp7197
a(S'pthread.h'
p7198
F0.0
tp7199
a(S'stdio.h'
p7200
F0.0
tp7201
a(S'iostream'
p7202
F0.0
tp7203
a(S'structures.h'
p7204
F0.0
tp7205
a(S'structures.h_1'
p7206
F0.0
tp7207
a(S'string.h'
p7208
F0.0
tp7209
a(S'signal.h'
p7210
F0.0
tp7211
a(S'filesys.h_1'
p7212
F0.0
tp7213
a(S'iosfwd'
p7214
F0.0
tp7215
a(S'test3.cpp'
p7216
F0.0
tp7217
a(S'sb.cpp'
p7218
F0.0
tp7219
a(S'in.cpp'
p7220
F0.0
tp7221
a(S'stringfwd.h'
p7222
F0.0
tp7223
a(S'unistd.h'
p7224
F0.0
tp7225
asS'mytext'
p7226
(lp7227
(S'test3.cpp'
p7228
F0.7333333333333333
tp7229
a(S'time.h'
p7230
F0.0
tp7231
a(S'time.h_1'
p7232
F0.0
tp7233
a(S'ios_base.h'
p7234
F0.0
tp7235
a(S'fs.cpp'
p7236
F0.0
tp7237
a(S'stdio.h_1'
p7238
F0.0
tp7239
a(S'filesys.h'
p7240
F0.0
tp7241
a(S'filesys.cpp'
p7242
F0.0
tp7243
a(S'iosfwd_1'
p7244
F0.0
tp7245
a(S'pthread.h'
p7246
F0.0
tp7247
a(S'stdio.h'
p7248
F0.0
tp7249
a(S'iostream'
p7250
F0.0
tp7251
a(S'structures.h'
p7252
F0.0
tp7253
a(S'structures.h_1'
p7254
F0.0
tp7255
a(S'string.h'
p7256
F0.0
tp7257
a(S'signal.h'
p7258
F0.0
tp7259
a(S'filesys.h_1'
p7260
F0.0
tp7261
a(S'iosfwd'
p7262
F0.0
tp7263
a(S'sb.cpp'
p7264
F0.0
tp7265
a(S'in.cpp'
p7266
F0.0
tp7267
a(S'stringfwd.h'
p7268
F0.0
tp7269
a(S'unistd.h'
p7270
F0.0
tp7271
asS'fd'
p7272
(lp7273
(S'filesys.cpp'
p7274
F0.42718446601941745
tp7275
a(S'test3.cpp'
p7276
F0.36666666666666664
tp7277
a(S'time.h'
p7278
F0.0
tp7279
a(S'time.h_1'
p7280
F0.0
tp7281
a(S'ios_base.h'
p7282
F0.0
tp7283
a(S'fs.cpp'
p7284
F0.0
tp7285
a(S'stdio.h_1'
p7286
F0.0
tp7287
a(S'filesys.h'
p7288
F0.0
tp7289
a(S'iosfwd_1'
p7290
F0.0
tp7291
a(S'pthread.h'
p7292
F0.0
tp7293
a(S'stdio.h'
p7294
F0.0
tp7295
a(S'iostream'
p7296
F0.0
tp7297
a(S'structures.h'
p7298
F0.0
tp7299
a(S'structures.h_1'
p7300
F0.0
tp7301
a(S'string.h'
p7302
F0.0
tp7303
a(S'signal.h'
p7304
F0.0
tp7305
a(S'filesys.h_1'
p7306
F0.0
tp7307
a(S'iosfwd'
p7308
F0.0
tp7309
a(S'sb.cpp'
p7310
F0.0
tp7311
a(S'in.cpp'
p7312
F0.0
tp7313
a(S'stringfwd.h'
p7314
F0.0
tp7315
a(S'unistd.h'
p7316
F0.0
tp7317
asS'dirbl'
p7318
(lp7319
(S'in.cpp'
p7320
F0.16666666666666669
tp7321
a(S'structures.h_1'
p7322
F0.12790697674418605
tp7323
a(S'structures.h'
p7324
F0.10185185185185185
tp7325
a(S'fs.cpp'
p7326
F0.07432432432432433
tp7327
a(S'time.h'
p7328
F0.0
tp7329
a(S'time.h_1'
p7330
F0.0
tp7331
a(S'ios_base.h'
p7332
F0.0
tp7333
a(S'stdio.h_1'
p7334
F0.0
tp7335
a(S'filesys.h'
p7336
F0.0
tp7337
a(S'filesys.cpp'
p7338
F0.0
tp7339
a(S'iosfwd_1'
p7340
F0.0
tp7341
a(S'pthread.h'
p7342
F0.0
tp7343
a(S'stdio.h'
p7344
F0.0
tp7345
a(S'iostream'
p7346
F0.0
tp7347
a(S'string.h'
p7348
F0.0
tp7349
a(S'signal.h'
p7350
F0.0
tp7351
a(S'filesys.h_1'
p7352
F0.0
tp7353
a(S'iosfwd'
p7354
F0.0
tp7355
a(S'test3.cpp'
p7356
F0.0
tp7357
a(S'sb.cpp'
p7358
F0.0
tp7359
a(S'stringfwd.h'
p7360
F0.0
tp7361
a(S'unistd.h'
p7362
F0.0
tp7363
asS'addblock'
p7364
(lp7365
(S'structures.h_1'
p7366
F0.12790697674418605
tp7367
a(S'structures.h'
p7368
F0.10185185185185185
tp7369
a(S'fs.cpp'
p7370
F0.07432432432432433
tp7371
a(S'filesys.cpp'
p7372
F0.05339805825242718
tp7373
a(S'time.h'
p7374
F0.0
tp7375
a(S'time.h_1'
p7376
F0.0
tp7377
a(S'ios_base.h'
p7378
F0.0
tp7379
a(S'stdio.h_1'
p7380
F0.0
tp7381
a(S'filesys.h'
p7382
F0.0
tp7383
a(S'iosfwd_1'
p7384
F0.0
tp7385
a(S'pthread.h'
p7386
F0.0
tp7387
a(S'stdio.h'
p7388
F0.0
tp7389
a(S'iostream'
p7390
F0.0
tp7391
a(S'string.h'
p7392
F0.0
tp7393
a(S'signal.h'
p7394
F0.0
tp7395
a(S'filesys.h_1'
p7396
F0.0
tp7397
a(S'iosfwd'
p7398
F0.0
tp7399
a(S'test3.cpp'
p7400
F0.0
tp7401
a(S'sb.cpp'
p7402
F0.0
tp7403
a(S'in.cpp'
p7404
F0.0
tp7405
a(S'stringfwd.h'
p7406
F0.0
tp7407
a(S'unistd.h'
p7408
F0.0
tp7409
asS'fn'
p7410
(lp7411
(S'test3.cpp'
p7412
F0.36666666666666664
tp7413
a(S'fs.cpp'
p7414
F0.14864864864864866
tp7415
a(S'time.h'
p7416
F0.0
tp7417
a(S'time.h_1'
p7418
F0.0
tp7419
a(S'ios_base.h'
p7420
F0.0
tp7421
a(S'stdio.h_1'
p7422
F0.0
tp7423
a(S'filesys.h'
p7424
F0.0
tp7425
a(S'filesys.cpp'
p7426
F0.0
tp7427
a(S'iosfwd_1'
p7428
F0.0
tp7429
a(S'pthread.h'
p7430
F0.0
tp7431
a(S'stdio.h'
p7432
F0.0
tp7433
a(S'iostream'
p7434
F0.0
tp7435
a(S'structures.h'
p7436
F0.0
tp7437
a(S'structures.h_1'
p7438
F0.0
tp7439
a(S'string.h'
p7440
F0.0
tp7441
a(S'signal.h'
p7442
F0.0
tp7443
a(S'filesys.h_1'
p7444
F0.0
tp7445
a(S'iosfwd'
p7446
F0.0
tp7447
a(S'sb.cpp'
p7448
F0.0
tp7449
a(S'in.cpp'
p7450
F0.0
tp7451
a(S'stringfwd.h'
p7452
F0.0
tp7453
a(S'unistd.h'
p7454
F0.0
tp7455
asS'nm'
p7456
(lp7457
(S'fs.cpp'
p7458
F0.2972972972972973
tp7459
a(S'time.h'
p7460
F0.0
tp7461
a(S'time.h_1'
p7462
F0.0
tp7463
a(S'ios_base.h'
p7464
F0.0
tp7465
a(S'stdio.h_1'
p7466
F0.0
tp7467
a(S'filesys.h'
p7468
F0.0
tp7469
a(S'filesys.cpp'
p7470
F0.0
tp7471
a(S'iosfwd_1'
p7472
F0.0
tp7473
a(S'pthread.h'
p7474
F0.0
tp7475
a(S'stdio.h'
p7476
F0.0
tp7477
a(S'iostream'
p7478
F0.0
tp7479
a(S'structures.h'
p7480
F0.0
tp7481
a(S'structures.h_1'
p7482
F0.0
tp7483
a(S'string.h'
p7484
F0.0
tp7485
a(S'signal.h'
p7486
F0.0
tp7487
a(S'filesys.h_1'
p7488
F0.0
tp7489
a(S'iosfwd'
p7490
F0.0
tp7491
a(S'test3.cpp'
p7492
F0.0
tp7493
a(S'sb.cpp'
p7494
F0.0
tp7495
a(S'in.cpp'
p7496
F0.0
tp7497
a(S'stringfwd.h'
p7498
F0.0
tp7499
a(S'unistd.h'
p7500
F0.0
tp7501
asS'newman'
p7502
(lp7503
(S'fs.cpp'
p7504
F0.2972972972972973
tp7505
a(S'time.h'
p7506
F0.0
tp7507
a(S'time.h_1'
p7508
F0.0
tp7509
a(S'ios_base.h'
p7510
F0.0
tp7511
a(S'stdio.h_1'
p7512
F0.0
tp7513
a(S'filesys.h'
p7514
F0.0
tp7515
a(S'filesys.cpp'
p7516
F0.0
tp7517
a(S'iosfwd_1'
p7518
F0.0
tp7519
a(S'pthread.h'
p7520
F0.0
tp7521
a(S'stdio.h'
p7522
F0.0
tp7523
a(S'iostream'
p7524
F0.0
tp7525
a(S'structures.h'
p7526
F0.0
tp7527
a(S'structures.h_1'
p7528
F0.0
tp7529
a(S'string.h'
p7530
F0.0
tp7531
a(S'signal.h'
p7532
F0.0
tp7533
a(S'filesys.h_1'
p7534
F0.0
tp7535
a(S'iosfwd'
p7536
F0.0
tp7537
a(S'test3.cpp'
p7538
F0.0
tp7539
a(S'sb.cpp'
p7540
F0.0
tp7541
a(S'in.cpp'
p7542
F0.0
tp7543
a(S'stringfwd.h'
p7544
F0.0
tp7545
a(S'unistd.h'
p7546
F0.0
tp7547
asS'eof_myfs'
p7548
(lp7549
(S'filesys.h_1'
p7550
F0.4583333333333333
tp7551
a(S'filesys.h'
p7552
F0.4074074074074074
tp7553
a(S'filesys.cpp'
p7554
F0.07119741100323623
tp7555
a(S'time.h'
p7556
F0.0
tp7557
a(S'time.h_1'
p7558
F0.0
tp7559
a(S'ios_base.h'
p7560
F0.0
tp7561
a(S'fs.cpp'
p7562
F0.0
tp7563
a(S'stdio.h_1'
p7564
F0.0
tp7565
a(S'iosfwd_1'
p7566
F0.0
tp7567
a(S'pthread.h'
p7568
F0.0
tp7569
a(S'stdio.h'
p7570
F0.0
tp7571
a(S'iostream'
p7572
F0.0
tp7573
a(S'structures.h'
p7574
F0.0
tp7575
a(S'structures.h_1'
p7576
F0.0
tp7577
a(S'string.h'
p7578
F0.0
tp7579
a(S'signal.h'
p7580
F0.0
tp7581
a(S'iosfwd'
p7582
F0.0
tp7583
a(S'test3.cpp'
p7584
F0.0
tp7585
a(S'sb.cpp'
p7586
F0.0
tp7587
a(S'in.cpp'
p7588
F0.0
tp7589
a(S'stringfwd.h'
p7590
F0.0
tp7591
a(S'unistd.h'
p7592
F0.0
tp7593
asS'e'
p7594
(lp7595
(S'filesys.cpp'
p7596
F0.6407766990291263
tp7597
a(S'time.h'
p7598
F0.0
tp7599
a(S'time.h_1'
p7600
F0.0
tp7601
a(S'ios_base.h'
p7602
F0.0
tp7603
a(S'fs.cpp'
p7604
F0.0
tp7605
a(S'stdio.h_1'
p7606
F0.0
tp7607
a(S'filesys.h'
p7608
F0.0
tp7609
a(S'iosfwd_1'
p7610
F0.0
tp7611
a(S'pthread.h'
p7612
F0.0
tp7613
a(S'stdio.h'
p7614
F0.0
tp7615
a(S'iostream'
p7616
F0.0
tp7617
a(S'structures.h'
p7618
F0.0
tp7619
a(S'structures.h_1'
p7620
F0.0
tp7621
a(S'string.h'
p7622
F0.0
tp7623
a(S'signal.h'
p7624
F0.0
tp7625
a(S'filesys.h_1'
p7626
F0.0
tp7627
a(S'iosfwd'
p7628
F0.0
tp7629
a(S'test3.cpp'
p7630
F0.0
tp7631
a(S'sb.cpp'
p7632
F0.0
tp7633
a(S'in.cpp'
p7634
F0.0
tp7635
a(S'stringfwd.h'
p7636
F0.0
tp7637
a(S'unistd.h'
p7638
F0.0
tp7639
asS'i'
p7640
(lp7641
(S'sb.cpp'
p7642
F0.8148148148148148
tp7643
a(S'filesys.cpp'
p7644
F0.6407766990291263
tp7645
a(S'fs.cpp'
p7646
F0.5202702702702703
tp7647
a(S'in.cpp'
p7648
F0.5
tp7649
a(S'time.h'
p7650
F0.0
tp7651
a(S'time.h_1'
p7652
F0.0
tp7653
a(S'ios_base.h'
p7654
F0.0
tp7655
a(S'stdio.h_1'
p7656
F0.0
tp7657
a(S'filesys.h'
p7658
F0.0
tp7659
a(S'iosfwd_1'
p7660
F0.0
tp7661
a(S'pthread.h'
p7662
F0.0
tp7663
a(S'stdio.h'
p7664
F0.0
tp7665
a(S'iostream'
p7666
F0.0
tp7667
a(S'structures.h'
p7668
F0.0
tp7669
a(S'structures.h_1'
p7670
F0.0
tp7671
a(S'string.h'
p7672
F0.0
tp7673
a(S'signal.h'
p7674
F0.0
tp7675
a(S'filesys.h_1'
p7676
F0.0
tp7677
a(S'iosfwd'
p7678
F0.0
tp7679
a(S'test3.cpp'
p7680
F0.0
tp7681
a(S'stringfwd.h'
p7682
F0.0
tp7683
a(S'unistd.h'
p7684
F0.0
tp7685
asS'clear'
p7686
(lp7687
(S'structures.h_1'
p7688
F0.4093023255813954
tp7689
a(S'structures.h'
p7690
F0.16296296296296298
tp7691
a(S'in.cpp'
p7692
F0.13333333333333336
tp7693
a(S'fs.cpp'
p7694
F0.05945945945945947
tp7695
a(S'filesys.cpp'
p7696
F0.04271844660194175
tp7697
a(S'time.h'
p7698
F0.0
tp7699
a(S'time.h_1'
p7700
F0.0
tp7701
a(S'ios_base.h'
p7702
F0.0
tp7703
a(S'stdio.h_1'
p7704
F0.0
tp7705
a(S'filesys.h'
p7706
F0.0
tp7707
a(S'iosfwd_1'
p7708
F0.0
tp7709
a(S'pthread.h'
p7710
F0.0
tp7711
a(S'stdio.h'
p7712
F0.0
tp7713
a(S'iostream'
p7714
F0.0
tp7715
a(S'string.h'
p7716
F0.0
tp7717
a(S'signal.h'
p7718
F0.0
tp7719
a(S'filesys.h_1'
p7720
F0.0
tp7721
a(S'iosfwd'
p7722
F0.0
tp7723
a(S'test3.cpp'
p7724
F0.0
tp7725
a(S'sb.cpp'
p7726
F0.0
tp7727
a(S'stringfwd.h'
p7728
F0.0
tp7729
a(S'unistd.h'
p7730
F0.0
tp7731
asS'getpwd'
p7732
(lp7733
(S'structures.h'
p7734
F0.13580246913580246
tp7735
a(S'fs.cpp'
p7736
F0.0990990990990991
tp7737
a(S'filesys.cpp'
p7738
F0.07119741100323623
tp7739
a(S'time.h'
p7740
F0.0
tp7741
a(S'time.h_1'
p7742
F0.0
tp7743
a(S'ios_base.h'
p7744
F0.0
tp7745
a(S'stdio.h_1'
p7746
F0.0
tp7747
a(S'filesys.h'
p7748
F0.0
tp7749
a(S'iosfwd_1'
p7750
F0.0
tp7751
a(S'pthread.h'
p7752
F0.0
tp7753
a(S'stdio.h'
p7754
F0.0
tp7755
a(S'iostream'
p7756
F0.0
tp7757
a(S'structures.h_1'
p7758
F0.0
tp7759
a(S'string.h'
p7760
F0.0
tp7761
a(S'signal.h'
p7762
F0.0
tp7763
a(S'filesys.h_1'
p7764
F0.0
tp7765
a(S'iosfwd'
p7766
F0.0
tp7767
a(S'test3.cpp'
p7768
F0.0
tp7769
a(S'sb.cpp'
p7770
F0.0
tp7771
a(S'in.cpp'
p7772
F0.0
tp7773
a(S'stringfwd.h'
p7774
F0.0
tp7775
a(S'unistd.h'
p7776
F0.0
tp7777
asS'spill'
p7778
(lp7779
(S'filesys.cpp'
p7780
F0.32038834951456313
tp7781
a(S'fs.cpp'
p7782
F0.2972972972972973
tp7783
a(S'time.h'
p7784
F0.0
tp7785
a(S'time.h_1'
p7786
F0.0
tp7787
a(S'ios_base.h'
p7788
F0.0
tp7789
a(S'stdio.h_1'
p7790
F0.0
tp7791
a(S'filesys.h'
p7792
F0.0
tp7793
a(S'iosfwd_1'
p7794
F0.0
tp7795
a(S'pthread.h'
p7796
F0.0
tp7797
a(S'stdio.h'
p7798
F0.0
tp7799
a(S'iostream'
p7800
F0.0
tp7801
a(S'structures.h'
p7802
F0.0
tp7803
a(S'structures.h_1'
p7804
F0.0
tp7805
a(S'string.h'
p7806
F0.0
tp7807
a(S'signal.h'
p7808
F0.0
tp7809
a(S'filesys.h_1'
p7810
F0.0
tp7811
a(S'iosfwd'
p7812
F0.0
tp7813
a(S'test3.cpp'
p7814
F0.0
tp7815
a(S'sb.cpp'
p7816
F0.0
tp7817
a(S'in.cpp'
p7818
F0.0
tp7819
a(S'stringfwd.h'
p7820
F0.0
tp7821
a(S'unistd.h'
p7822
F0.0
tp7823
asS'ext'
p7824
(lp7825
(S'in.cpp'
p7826
F0.6666666666666667
tp7827
a(S'time.h'
p7828
F0.0
tp7829
a(S'time.h_1'
p7830
F0.0
tp7831
a(S'ios_base.h'
p7832
F0.0
tp7833
a(S'fs.cpp'
p7834
F0.0
tp7835
a(S'stdio.h_1'
p7836
F0.0
tp7837
a(S'filesys.h'
p7838
F0.0
tp7839
a(S'filesys.cpp'
p7840
F0.0
tp7841
a(S'iosfwd_1'
p7842
F0.0
tp7843
a(S'pthread.h'
p7844
F0.0
tp7845
a(S'stdio.h'
p7846
F0.0
tp7847
a(S'iostream'
p7848
F0.0
tp7849
a(S'structures.h'
p7850
F0.0
tp7851
a(S'structures.h_1'
p7852
F0.0
tp7853
a(S'string.h'
p7854
F0.0
tp7855
a(S'signal.h'
p7856
F0.0
tp7857
a(S'filesys.h_1'
p7858
F0.0
tp7859
a(S'iosfwd'
p7860
F0.0
tp7861
a(S'test3.cpp'
p7862
F0.0
tp7863
a(S'sb.cpp'
p7864
F0.0
tp7865
a(S'stringfwd.h'
p7866
F0.0
tp7867
a(S'unistd.h'
p7868
F0.0
tp7869
asS'u'
p7870
(lp7871
(S'in.cpp'
p7872
F0.33333333333333337
tp7873
a(S'fs.cpp'
p7874
F0.14864864864864866
tp7875
a(S'time.h'
p7876
F0.0
tp7877
a(S'time.h_1'
p7878
F0.0
tp7879
a(S'ios_base.h'
p7880
F0.0
tp7881
a(S'stdio.h_1'
p7882
F0.0
tp7883
a(S'filesys.h'
p7884
F0.0
tp7885
a(S'filesys.cpp'
p7886
F0.0
tp7887
a(S'iosfwd_1'
p7888
F0.0
tp7889
a(S'pthread.h'
p7890
F0.0
tp7891
a(S'stdio.h'
p7892
F0.0
tp7893
a(S'iostream'
p7894
F0.0
tp7895
a(S'structures.h'
p7896
F0.0
tp7897
a(S'structures.h_1'
p7898
F0.0
tp7899
a(S'string.h'
p7900
F0.0
tp7901
a(S'signal.h'
p7902
F0.0
tp7903
a(S'filesys.h_1'
p7904
F0.0
tp7905
a(S'iosfwd'
p7906
F0.0
tp7907
a(S'test3.cpp'
p7908
F0.0
tp7909
a(S'sb.cpp'
p7910
F0.0
tp7911
a(S'stringfwd.h'
p7912
F0.0
tp7913
a(S'unistd.h'
p7914
F0.0
tp7915
asS'nbytes'
p7916
(lp7917
(S'filesys.cpp'
p7918
F0.42718446601941745
tp7919
a(S'time.h'
p7920
F0.0
tp7921
a(S'time.h_1'
p7922
F0.0
tp7923
a(S'ios_base.h'
p7924
F0.0
tp7925
a(S'fs.cpp'
p7926
F0.0
tp7927
a(S'stdio.h_1'
p7928
F0.0
tp7929
a(S'filesys.h'
p7930
F0.0
tp7931
a(S'iosfwd_1'
p7932
F0.0
tp7933
a(S'pthread.h'
p7934
F0.0
tp7935
a(S'stdio.h'
p7936
F0.0
tp7937
a(S'iostream'
p7938
F0.0
tp7939
a(S'structures.h'
p7940
F0.0
tp7941
a(S'structures.h_1'
p7942
F0.0
tp7943
a(S'string.h'
p7944
F0.0
tp7945
a(S'signal.h'
p7946
F0.0
tp7947
a(S'filesys.h_1'
p7948
F0.0
tp7949
a(S'iosfwd'
p7950
F0.0
tp7951
a(S'test3.cpp'
p7952
F0.0
tp7953
a(S'sb.cpp'
p7954
F0.0
tp7955
a(S'in.cpp'
p7956
F0.0
tp7957
a(S'stringfwd.h'
p7958
F0.0
tp7959
a(S'unistd.h'
p7960
F0.0
tp7961
asS'time'
p7962
(lp7963
(S'time.h_1'
p7964
F2.75
tp7965
a(S'in.cpp'
p7966
F0.16666666666666669
tp7967
a(S'fs.cpp'
p7968
F0.07432432432432433
tp7969
a(S'filesys.cpp'
p7970
F0.05339805825242718
tp7971
a(S'time.h'
p7972
F0.0
tp7973
a(S'ios_base.h'
p7974
F0.0
tp7975
a(S'stdio.h_1'
p7976
F0.0
tp7977
a(S'filesys.h'
p7978
F0.0
tp7979
a(S'iosfwd_1'
p7980
F0.0
tp7981
a(S'pthread.h'
p7982
F0.0
tp7983
a(S'stdio.h'
p7984
F0.0
tp7985
a(S'iostream'
p7986
F0.0
tp7987
a(S'structures.h'
p7988
F0.0
tp7989
a(S'structures.h_1'
p7990
F0.0
tp7991
a(S'string.h'
p7992
F0.0
tp7993
a(S'signal.h'
p7994
F0.0
tp7995
a(S'filesys.h_1'
p7996
F0.0
tp7997
a(S'iosfwd'
p7998
F0.0
tp7999
a(S'test3.cpp'
p8000
F0.0
tp8001
a(S'sb.cpp'
p8002
F0.0
tp8003
a(S'stringfwd.h'
p8004
F0.0
tp8005
a(S'unistd.h'
p8006
F0.0
tp8007
asS'sb'
p8008
(lp8009
(S'structures.h_1'
p8010
F0.5116279069767442
tp8011
a(S'sb.cpp'
p8012
F0.4074074074074074
tp8013
a(S'structures.h'
p8014
F0.2037037037037037
tp8015
a(S'fs.cpp'
p8016
F0.14864864864864866
tp8017
a(S'time.h'
p8018
F0.0
tp8019
a(S'time.h_1'
p8020
F0.0
tp8021
a(S'ios_base.h'
p8022
F0.0
tp8023
a(S'stdio.h_1'
p8024
F0.0
tp8025
a(S'filesys.h'
p8026
F0.0
tp8027
a(S'filesys.cpp'
p8028
F0.0
tp8029
a(S'iosfwd_1'
p8030
F0.0
tp8031
a(S'pthread.h'
p8032
F0.0
tp8033
a(S'stdio.h'
p8034
F0.0
tp8035
a(S'iostream'
p8036
F0.0
tp8037
a(S'string.h'
p8038
F0.0
tp8039
a(S'signal.h'
p8040
F0.0
tp8041
a(S'filesys.h_1'
p8042
F0.0
tp8043
a(S'iosfwd'
p8044
F0.0
tp8045
a(S'test3.cpp'
p8046
F0.0
tp8047
a(S'in.cpp'
p8048
F0.0
tp8049
a(S'stringfwd.h'
p8050
F0.0
tp8051
a(S'unistd.h'
p8052
F0.0
tp8053
asS'fail'
p8054
(lp8055
(S'time.h'
p8056
I0
tp8057
a(S'time.h_1'
p8058
I0
tp8059
a(S'ios_base.h'
p8060
I0
tp8061
a(S'fs.cpp'
p8062
I0
tp8063
a(S'stdio.h_1'
p8064
I0
tp8065
a(S'filesys.h'
p8066
I0
tp8067
a(S'filesys.cpp'
p8068
I0
tp8069
a(S'iosfwd_1'
p8070
I0
tp8071
a(S'pthread.h'
p8072
I0
tp8073
a(S'stdio.h'
p8074
I0
tp8075
a(S'iostream'
p8076
I0
tp8077
a(S'structures.h'
p8078
I0
tp8079
a(S'structures.h_1'
p8080
I0
tp8081
a(S'string.h'
p8082
I0
tp8083
a(S'signal.h'
p8084
I0
tp8085
a(S'filesys.h_1'
p8086
I0
tp8087
a(S'iosfwd'
p8088
I0
tp8089
a(S'test3.cpp'
p8090
I0
tp8091
a(S'sb.cpp'
p8092
I0
tp8093
a(S'in.cpp'
p8094
I0
tp8095
a(S'stringfwd.h'
p8096
I0
tp8097
a(S'unistd.h'
p8098
I0
tp8099
asS'create_myfs'
p8100
(lp8101
(S'filesys.h_1'
p8102
F0.34375
tp8103
a(S'filesys.h'
p8104
F0.3055555555555555
tp8105
a(S'test3.cpp'
p8106
F0.18333333333333332
tp8107
a(S'filesys.cpp'
p8108
F0.05339805825242718
tp8109
a(S'time.h'
p8110
F0.0
tp8111
a(S'time.h_1'
p8112
F0.0
tp8113
a(S'ios_base.h'
p8114
F0.0
tp8115
a(S'fs.cpp'
p8116
F0.0
tp8117
a(S'stdio.h_1'
p8118
F0.0
tp8119
a(S'iosfwd_1'
p8120
F0.0
tp8121
a(S'pthread.h'
p8122
F0.0
tp8123
a(S'stdio.h'
p8124
F0.0
tp8125
a(S'iostream'
p8126
F0.0
tp8127
a(S'structures.h'
p8128
F0.0
tp8129
a(S'structures.h_1'
p8130
F0.0
tp8131
a(S'string.h'
p8132
F0.0
tp8133
a(S'signal.h'
p8134
F0.0
tp8135
a(S'iosfwd'
p8136
F0.0
tp8137
a(S'sb.cpp'
p8138
F0.0
tp8139
a(S'in.cpp'
p8140
F0.0
tp8141
a(S'stringfwd.h'
p8142
F0.0
tp8143
a(S'unistd.h'
p8144
F0.0
tp8145
asS'getblock'
p8146
(lp8147
(S'sb.cpp'
p8148
F0.2716049382716049
tp8149
a(S'structures.h'
p8150
F0.13580246913580246
tp8151
a(S'fs.cpp'
p8152
F0.0990990990990991
tp8153
a(S'time.h'
p8154
F0.0
tp8155
a(S'time.h_1'
p8156
F0.0
tp8157
a(S'ios_base.h'
p8158
F0.0
tp8159
a(S'stdio.h_1'
p8160
F0.0
tp8161
a(S'filesys.h'
p8162
F0.0
tp8163
a(S'filesys.cpp'
p8164
F0.0
tp8165
a(S'iosfwd_1'
p8166
F0.0
tp8167
a(S'pthread.h'
p8168
F0.0
tp8169
a(S'stdio.h'
p8170
F0.0
tp8171
a(S'iostream'
p8172
F0.0
tp8173
a(S'structures.h_1'
p8174
F0.0
tp8175
a(S'string.h'
p8176
F0.0
tp8177
a(S'signal.h'
p8178
F0.0
tp8179
a(S'filesys.h_1'
p8180
F0.0
tp8181
a(S'iosfwd'
p8182
F0.0
tp8183
a(S'test3.cpp'
p8184
F0.0
tp8185
a(S'in.cpp'
p8186
F0.0
tp8187
a(S'stringfwd.h'
p8188
F0.0
tp8189
a(S'unistd.h'
p8190
F0.0
tp8191
as.