(dp0
S''
p1
(dp2
sS'status_myfs'
p3
(dp4
crdflib.term
Literal
p5
(Vfilesys.cpp
p6
NNtp7
Rp8
g5
(V1
p9
Ncrdflib.term
URIRef
p10
(Vhttp://www.w3.org/2001/XMLSchema#integer
p11
tp12
Rp13
tp14
Rp15
sg5
(Vfilesys.h
p16
NNtp17
Rp18
g5
(g9
Ng13
tp19
Rp20
ssS'cout'
p21
(dp22
g8
g5
(g9
Ng13
tp23
Rp24
sg5
(Vin.cpp
p25
NNtp26
Rp27
g5
(g9
Ng13
tp28
Rp29
sg5
(Viostream
p30
NNtp31
Rp32
g5
(g9
Ng13
tp33
Rp34
sg5
(Vfs.cpp
p35
NNtp36
Rp37
g5
(g9
Ng13
tp38
Rp39
sg5
(Vsb.cpp
p40
NNtp41
Rp42
g5
(g9
Ng13
tp43
Rp44
ssS'restore'
p45
(dp46
g8
g5
(V2
p47
Ng13
tp48
Rp49
sg5
(Vstructures.h_1
p50
NNtp51
Rp52
g5
(g47
Ng13
tp53
Rp54
sg5
(Vstructures.h
p55
NNtp56
Rp57
g5
(g47
Ng13
tp58
Rp59
sg27
g5
(g9
Ng13
tp60
Rp61
sg42
g5
(g9
Ng13
tp62
Rp63
ssS'dbbmap'
p64
(dp65
g52
g5
(g9
Ng13
tp66
Rp67
sg42
g5
(g9
Ng13
tp68
Rp69
sg57
g5
(g9
Ng13
tp70
Rp71
ssS'operator<<'
p72
(dp73
sS'is_open'
p74
(dp75
sS'ffi'
p76
(dp77
g8
g5
(g9
Ng13
tp78
Rp79
ssS'fsys'
p80
(dp81
g8
g5
(g47
Ng13
tp82
Rp83
sg52
g5
(V5
p84
Ng13
tp85
Rp86
sg37
g5
(g47
Ng13
tp87
Rp88
sg57
g5
(g47
Ng13
tp89
Rp90
ssS'gcount'
p91
(dp92
sS'inbmap'
p93
(dp94
g52
g5
(g9
Ng13
tp95
Rp96
sg42
g5
(g9
Ng13
tp97
Rp98
sg57
g5
(g9
Ng13
tp99
Rp100
ssS'pointer'
p101
(dp102
g8
g5
(g9
Ng13
tp103
Rp104
sg52
g5
(g9
Ng13
tp105
Rp106
sg57
g5
(g9
Ng13
tp107
Rp108
ssS'find'
p109
(dp110
g37
g5
(g47
Ng13
tp111
Rp112
ssS'rmdir_myfs'
p113
(dp114
g8
g5
(g9
Ng13
tp115
Rp116
sg18
g5
(g9
Ng13
tp117
Rp118
sg5
(Vfilesys.h_1
p119
NNtp120
Rp121
g5
(g9
Ng13
tp122
Rp123
ssS'progress_bar'
p124
(dp125
g8
g5
(g9
Ng13
tp126
Rp127
sg52
g5
(g9
Ng13
tp128
Rp129
sg37
g5
(g9
Ng13
tp130
Rp131
sg57
g5
(g9
Ng13
tp132
Rp133
ssS'show'
p134
(dp135
g8
g5
(g9
Ng13
tp136
Rp137
ssS'enno'
p138
(dp139
g8
g5
(g9
Ng13
tp140
Rp141
sg37
g5
(g9
Ng13
tp142
Rp143
ssS'init'
p144
(dp145
g8
g5
(g47
Ng13
tp146
Rp147
ssS'ftype'
p148
(dp149
g8
g5
(g9
Ng13
tp150
Rp151
sg27
g5
(g9
Ng13
tp152
Rp153
sg37
g5
(g9
Ng13
tp154
Rp155
sg52
g5
(g9
Ng13
tp156
Rp157
sg57
g5
(g9
Ng13
tp158
Rp159
ssS'bno'
p160
(dp161
g8
g5
(g9
Ng13
tp162
Rp163
sg37
g5
(V4
p164
Ng13
tp165
Rp166
ssS'getpid'
p167
(dp168
g5
(Vunistd.h
p169
NNtp170
Rp171
g5
(g9
Ng13
tp172
Rp173
sg37
g5
(g9
Ng13
tp174
Rp175
ssS'main'
p176
(dp177
g5
(Vtest3.cpp
p178
NNtp179
Rp180
g5
(g9
Ng13
tp181
Rp182
ssS'sem2'
p183
(dp184
g42
g5
(g9
Ng13
tp185
Rp186
ssS'sem1'
p187
(dp188
g42
g5
(g9
Ng13
tp189
Rp190
ssS'mydocs'
p191
(dp192
g180
g5
(g9
Ng13
tp193
Rp194
ssS'int2char'
p195
(dp196
g52
g5
(g9
Ng13
tp197
Rp198
sg37
g5
(g9
Ng13
tp199
Rp200
sg57
g5
(g9
Ng13
tp201
Rp202
ssS'inused'
p203
(dp204
g52
g5
(g9
Ng13
tp205
Rp206
sg42
g5
(g9
Ng13
tp207
Rp208
sg57
g5
(g9
Ng13
tp209
Rp210
ssS'restore_myfs'
p211
(dp212
g8
g5
(g9
Ng13
tp213
Rp214
sg18
g5
(g9
Ng13
tp215
Rp216
sg121
g5
(g9
Ng13
tp217
Rp218
ssS'md'
p219
(dp220
g8
g5
(g9
Ng13
tp221
Rp222
ssS'read'
p223
(dp224
sS'getppid'
p225
(dp226
g171
g5
(g9
Ng13
tp227
Rp228
sg37
g5
(g9
Ng13
tp229
Rp230
ssS'pos'
p231
(dp232
g37
g5
(g9
Ng13
tp233
Rp234
ssS'superbl'
p235
(dp236
g8
g5
(g9
Ng13
tp237
Rp238
sg52
g5
(g47
Ng13
tp239
Rp240
sg37
g5
(g9
Ng13
tp241
Rp242
sg57
g5
(g9
Ng13
tp243
Rp244
ssS'curinno'
p245
(dp246
g8
g5
(g9
Ng13
tp247
Rp248
ssS'progress'
p249
(dp250
g37
g5
(g9
Ng13
tp251
Rp252
ssS'ls_myfs'
p253
(dp254
g8
g5
(g9
Ng13
tp255
Rp256
sg18
g5
(g9
Ng13
tp257
Rp258
sg180
g5
(g9
Ng13
tp259
Rp260
ssS'memcpy'
p261
(dp262
g8
g5
(g9
Ng13
tp263
Rp264
sg5
(Vstring.h
p265
NNtp266
Rp267
g5
(g9
Ng13
tp268
Rp269
ssS'd'
p270
(dp271
g37
g5
(g47
Ng13
tp272
Rp273
ssS'chdir_myfs'
p274
(dp275
g8
g5
(g9
Ng13
tp276
Rp277
sg18
g5
(g9
Ng13
tp278
Rp279
sg121
g5
(g9
Ng13
tp280
Rp281
sg180
g5
(g9
Ng13
tp282
Rp283
ssS'mutex1'
p284
(dp285
g180
g5
(g9
Ng13
tp286
Rp287
ssS'name'
p288
(dp289
g8
g5
(g9
Ng13
tp290
Rp291
sg27
g5
(g9
Ng13
tp292
Rp293
sg37
g5
(g9
Ng13
tp294
Rp295
ssS'freeinode'
p296
(dp297
g8
g5
(g9
Ng13
tp298
Rp299
sg52
g5
(g9
Ng13
tp300
Rp301
sg57
g5
(g9
Ng13
tp302
Rp303
sg42
g5
(g9
Ng13
tp304
Rp305
ssS'dname'
p306
(dp307
g8
g5
(V3
p308
Ng13
tp309
Rp310
ssS'chpwd'
p311
(dp312
g8
g5
(g9
Ng13
tp313
Rp314
sg52
g5
(g9
Ng13
tp315
Rp316
sg37
g5
(g9
Ng13
tp317
Rp318
sg57
g5
(g9
Ng13
tp319
Rp320
ssS'l'
p321
(dp322
g8
g5
(g9
Ng13
tp323
Rp324
ssS'spused'
p325
(dp326
g37
g5
(g9
Ng13
tp327
Rp328
ssS'mode'
p329
(dp330
g8
g5
(g47
Ng13
tp331
Rp332
sg52
g5
(g9
Ng13
tp333
Rp334
sg57
g5
(g9
Ng13
tp335
Rp336
ssS'kill'
p337
(dp338
g5
(Vsignal.h
p339
NNtp340
Rp341
g5
(g9
Ng13
tp342
Rp343
sg37
g5
(g9
Ng13
tp344
Rp345
ssS'strcmp'
p346
(dp347
g8
g5
(g9
Ng13
tp348
Rp349
sg267
g5
(g9
Ng13
tp350
Rp351
sg37
g5
(g9
Ng13
tp352
Rp353
ssS'force'
p354
(dp355
g37
g5
(g9
Ng13
tp356
Rp357
ssS'snprintf'
p358
(dp359
g8
g5
(g9
Ng13
tp360
Rp361
sg5
(Vstdio.h
p362
NNtp363
Rp364
g5
(g9
Ng13
tp365
Rp366
sg37
g5
(g9
Ng13
tp367
Rp368
ssS'maxin'
p369
(dp370
g52
g5
(g9
Ng13
tp371
Rp372
sg42
g5
(g9
Ng13
tp373
Rp374
sg57
g5
(g9
Ng13
tp375
Rp376
ssS'lno'
p377
(dp378
g8
g5
(g9
Ng13
tp379
Rp380
sg37
g5
(g9
Ng13
tp381
Rp382
ssS'inibno'
p383
(dp384
g8
g5
(g47
Ng13
tp385
Rp386
ssS'lastrd'
p387
(dp388
g8
g5
(g9
Ng13
tp389
Rp390
sg27
g5
(g9
Ng13
tp391
Rp392
sg37
g5
(g9
Ng13
tp393
Rp394
sg52
g5
(g47
Ng13
tp395
Rp396
sg57
g5
(g9
Ng13
tp397
Rp398
ssS'flush'
p399
(dp400
sS'inno'
p401
(dp402
g8
g5
(g47
Ng13
tp403
Rp404
sg52
g5
(g9
Ng13
tp405
Rp406
sg37
g5
(g308
Ng13
tp407
Rp408
sg57
g5
(g9
Ng13
tp409
Rp410
ssS'close'
p411
(dp412
sS'out'
p413
(dp414
sS'tmp'
p415
(dp416
sS'opened'
p417
(dp418
g8
g5
(g9
Ng13
tp419
Rp420
ssS'seekg'
p421
(dp422
sS'rx'
p423
(dp424
g8
g5
(g9
Ng13
tp425
Rp426
sg37
g5
(g47
Ng13
tp427
Rp428
ssS'dblist'
p429
(dp430
g8
g5
(g9
Ng13
tp431
Rp432
sg52
g5
(g9
Ng13
tp433
Rp434
sg37
g5
(g9
Ng13
tp435
Rp436
sg57
g5
(g9
Ng13
tp437
Rp438
ssS'sprintf'
p439
(dp440
g27
g5
(g9
Ng13
tp441
Rp442
sg5
(Vstdio.h_1
p443
NNtp444
Rp445
g5
(g9
Ng13
tp446
Rp447
ssS'print'
p448
(dp449
g8
g5
(g9
Ng13
tp450
Rp451
sg57
g5
(g9
Ng13
tp452
Rp453
sg42
g5
(g9
Ng13
tp454
Rp455
ssS'rm'
p456
(dp457
g8
g5
(g47
Ng13
tp458
Rp459
ssS'curfs'
p460
(dp461
g8
g5
(g9
Ng13
tp462
Rp463
ssS'locate'
p464
(dp465
g8
g5
(g9
Ng13
tp466
Rp467
sg52
g5
(g9
Ng13
tp468
Rp469
sg37
g5
(g9
Ng13
tp470
Rp471
sg57
g5
(g9
Ng13
tp472
Rp473
ssS'fpar'
p474
(dp475
g37
g5
(g9
Ng13
tp476
Rp477
ssS'parpw'
p478
(dp479
g37
g5
(g9
Ng13
tp480
Rp481
ssS'here'
p482
(dp483
g8
g5
(g164
Ng13
tp484
Rp485
ssS'read_myfs'
p486
(dp487
g8
g5
(g9
Ng13
tp488
Rp489
sg18
g5
(g9
Ng13
tp490
Rp491
sg121
g5
(g9
Ng13
tp492
Rp493
ssS'showfile_myfs'
p494
(dp495
g8
g5
(g9
Ng13
tp496
Rp497
sg18
g5
(g9
Ng13
tp498
Rp499
sg121
g5
(g9
Ng13
tp500
Rp501
sg180
g5
(g9
Ng13
tp502
Rp503
ssS'basic_ifstream'
p504
(dp505
sS'createdir'
p506
(dp507
g37
g5
(g9
Ng13
tp508
Rp509
sg57
g5
(g9
Ng13
tp510
Rp511
ssS'src'
p512
(dp513
g8
g5
(g47
Ng13
tp514
Rp515
ssS'c_str'
p516
(dp517
sS'newpwd'
p518
(dp519
g37
g5
(g9
Ng13
tp520
Rp521
ssS'g'
p522
(dp523
g27
g5
(g9
Ng13
tp524
Rp525
ssS'mypapers'
p526
(dp527
g180
g5
(g9
Ng13
tp528
Rp529
ssS'k'
p530
(dp531
g27
g5
(g9
Ng13
tp532
Rp533
ssS'ty'
p534
(dp535
g37
g5
(g9
Ng13
tp536
Rp537
ssS'to_string'
p538
(dp539
sS's'
p540
(dp541
g37
g5
(g9
Ng13
tp542
Rp543
sg42
g5
(g9
Ng13
tp544
Rp545
ssS'basic_ofstream'
p546
(dp547
sS'inlist'
p548
(dp549
g8
g5
(g9
Ng13
tp550
Rp551
sg52
g5
(g9
Ng13
tp552
Rp553
sg37
g5
(g9
Ng13
tp554
Rp555
sg57
g5
(g9
Ng13
tp556
Rp557
ssS'rand'
p558
(dp559
sS'sindbl'
p560
(dp561
g27
g5
(g9
Ng13
tp562
Rp563
sg37
g5
(g9
Ng13
tp564
Rp565
sg52
g5
(g9
Ng13
tp566
Rp567
sg57
g5
(g9
Ng13
tp568
Rp569
ssS'operator='
p570
(dp571
sS'dump_myfs'
p572
(dp573
g8
g5
(g9
Ng13
tp574
Rp575
sg18
g5
(g9
Ng13
tp576
Rp577
sg121
g5
(g9
Ng13
tp578
Rp579
ssS'getinode'
p580
(dp581
g57
g5
(g9
Ng13
tp582
Rp583
sg37
g5
(g9
Ng13
tp584
Rp585
sg42
g5
(g9
Ng13
tp586
Rp587
ssS'getinblock'
p588
(dp589
g8
g5
(g9
Ng13
tp590
Rp591
sg52
g5
(g9
Ng13
tp592
Rp593
sg37
g5
(g9
Ng13
tp594
Rp595
sg57
g5
(g9
Ng13
tp596
Rp597
ssS'operator+'
p598
(dp599
sS'operator-'
p600
(dp601
sS'open_myfs'
p602
(dp603
g8
g5
(g9
Ng13
tp604
Rp605
sg18
g5
(g9
Ng13
tp606
Rp607
sg121
g5
(g9
Ng13
tp608
Rp609
sg180
g5
(g9
Ng13
tp610
Rp611
ssS'operator!'
p612
(dp613
sS'accp'
p614
(dp615
g8
g5
(g9
Ng13
tp616
Rp617
sg27
g5
(g9
Ng13
tp618
Rp619
sg37
g5
(g9
Ng13
tp620
Rp621
sg52
g5
(g9
Ng13
tp622
Rp623
sg57
g5
(g9
Ng13
tp624
Rp625
ssS'size'
p626
(dp627
g8
g5
(g9
Ng13
tp628
Rp629
sg52
g5
(g9
Ng13
tp630
Rp631
sg42
g5
(g9
Ng13
tp632
Rp633
sg57
g5
(g9
Ng13
tp634
Rp635
ssS'freeblock'
p636
(dp637
g8
g5
(g9
Ng13
tp638
Rp639
sg52
g5
(g9
Ng13
tp640
Rp641
sg57
g5
(g9
Ng13
tp642
Rp643
sg37
g5
(g9
Ng13
tp644
Rp645
sg42
g5
(g9
Ng13
tp646
Rp647
ssS'loc'
p648
(dp649
g8
g5
(g9
Ng13
tp650
Rp651
sg37
g5
(g47
Ng13
tp652
Rp653
ssS'dump'
p654
(dp655
g8
g5
(g47
Ng13
tp656
Rp657
sg52
g5
(g47
Ng13
tp658
Rp659
sg57
g5
(g47
Ng13
tp660
Rp661
sg27
g5
(g9
Ng13
tp662
Rp663
sg42
g5
(g9
Ng13
tp664
Rp665
ssS'basic_string'
p666
(dp667
sS'write_myfs'
p668
(dp669
g8
g5
(g9
Ng13
tp670
Rp671
sg18
g5
(g9
Ng13
tp672
Rp673
sg121
g5
(g9
Ng13
tp674
Rp675
sg180
g5
(g9
Ng13
tp676
Rp677
ssS'rm_myfs'
p678
(dp679
g8
g5
(g9
Ng13
tp680
Rp681
sg18
g5
(g9
Ng13
tp682
Rp683
sg121
g5
(g9
Ng13
tp684
Rp685
ssS'fd2'
p686
(dp687
sS'addentry'
p688
(dp689
g8
g5
(g9
Ng13
tp690
Rp691
sg52
g5
(g9
Ng13
tp692
Rp693
sg37
g5
(g9
Ng13
tp694
Rp695
sg57
g5
(g9
Ng13
tp696
Rp697
ssS'copied'
p698
(dp699
g8
g5
(g308
Ng13
tp700
Rp701
ssS'lastmod'
p702
(dp703
g8
g5
(g9
Ng13
tp704
Rp705
sg27
g5
(g9
Ng13
tp706
Rp707
sg37
g5
(g9
Ng13
tp708
Rp709
sg52
g5
(g47
Ng13
tp710
Rp711
sg57
g5
(g9
Ng13
tp712
Rp713
ssS'operator|'
p714
(dp715
g8
g5
(g9
Ng13
tp716
Rp717
sg5
(Vios_base.h
p718
NNtp719
Rp720
g5
(g9
Ng13
tp721
Rp722
ssS'dumpfile'
p723
(dp724
g8
g5
(g47
Ng13
tp725
Rp726
ssS'ptable'
p727
(dp728
g8
g5
(g9
Ng13
tp729
Rp730
sg52
g5
(g9
Ng13
tp731
Rp732
sg37
g5
(g9
Ng13
tp733
Rp734
sg57
g5
(g9
Ng13
tp735
Rp736
ssS'fpos'
p737
(dp738
sS'search'
p739
(dp740
g8
g5
(g9
Ng13
tp741
Rp742
sg37
g5
(g9
Ng13
tp743
Rp744
ssS'N'
p745
(dp746
sS'copy'
p747
(dp748
g8
g5
(g47
Ng13
tp749
Rp750
ssS'maxfs'
p751
(dp752
g8
g5
(g9
Ng13
tp753
Rp754
ssS'mkdir_myfs'
p755
(dp756
g8
g5
(g9
Ng13
tp757
Rp758
sg18
g5
(g9
Ng13
tp759
Rp760
sg121
g5
(g9
Ng13
tp761
Rp762
sg180
g5
(g9
Ng13
tp763
Rp764
ssS'replacer'
p765
(dp766
g37
g5
(g9
Ng13
tp767
Rp768
ssS'dbno'
p769
(dp770
g37
g5
(g47
Ng13
tp771
Rp772
ssS'newmd'
p773
(dp774
g8
g5
(g9
Ng13
tp775
Rp776
ssS'fdentry'
p777
(dp778
g52
g5
(V8
p779
Ng13
tp780
Rp781
sg57
g5
(g47
Ng13
tp782
Rp783
ssS'j'
p784
(dp785
g8
g5
(g9
Ng13
tp786
Rp787
sg27
g5
(g9
Ng13
tp788
Rp789
sg37
g5
(g47
Ng13
tp790
Rp791
ssS'up'
p792
(dp793
g8
g5
(g9
Ng13
tp794
Rp795
sg37
g5
(g47
Ng13
tp796
Rp797
ssS'r'
p798
(dp799
g8
g5
(V10
p800
Ng13
tp801
Rp802
sg37
g5
(g308
Ng13
tp803
Rp804
ssS'del'
p805
(dp806
g37
g5
(g9
Ng13
tp807
Rp808
ssS'ctime_r'
p809
(dp810
g27
g5
(g9
Ng13
tp811
Rp812
sg5
(Vtime.h_1
p813
NNtp814
Rp815
g5
(g9
Ng13
tp816
Rp817
ssS'display'
p818
(dp819
g8
g5
(g9
Ng13
tp820
Rp821
sg27
g5
(g9
Ng13
tp822
Rp823
sg57
g5
(g9
Ng13
tp824
Rp825
ssS'copy_pc2myfs'
p826
(dp827
g8
g5
(g9
Ng13
tp828
Rp829
sg18
g5
(g9
Ng13
tp830
Rp831
sg121
g5
(g9
Ng13
tp832
Rp833
sg180
g5
(g9
Ng13
tp834
Rp835
ssS'ad'
p836
(dp837
g42
g5
(g47
Ng13
tp838
Rp839
ssS'__assert_fail'
p840
(dp841
sS'tellg'
p842
(dp843
sS'chmod_myfs'
p844
(dp845
g8
g5
(g9
Ng13
tp846
Rp847
sg18
g5
(g9
Ng13
tp848
Rp849
sg121
g5
(g9
Ng13
tp850
Rp851
ssS'ap'
p852
(dp853
g37
g5
(g9
Ng13
tp854
Rp855
ssS'us2char'
p856
(dp857
g52
g5
(g9
Ng13
tp858
Rp859
sg37
g5
(g9
Ng13
tp860
Rp861
sg57
g5
(g9
Ng13
tp862
Rp863
ssS'in'
p864
(dp865
g8
g5
(g9
Ng13
tp866
Rp867
sg27
g5
(g47
Ng13
tp868
Rp869
sg37
g5
(g9
Ng13
tp870
Rp871
sg52
g5
(g84
Ng13
tp872
Rp873
sg57
g5
(g47
Ng13
tp874
Rp875
ssS'strlen'
p876
(dp877
sS'binary'
p878
(dp879
sS'myfs'
p880
(dp881
g8
g5
(g9
Ng13
tp882
Rp883
ssS'end'
p884
(dp885
sS'fdtable'
p886
(dp887
g8
g5
(g9
Ng13
tp888
Rp889
sg52
g5
(g9
Ng13
tp890
Rp891
sg57
g5
(g9
Ng13
tp892
Rp893
ssS'close_myfs'
p894
(dp895
g8
g5
(g9
Ng13
tp896
Rp897
sg18
g5
(g9
Ng13
tp898
Rp899
sg121
g5
(g9
Ng13
tp900
Rp901
ssS'fsize'
p902
(dp903
g8
g5
(g9
Ng13
tp904
Rp905
sg27
g5
(g9
Ng13
tp906
Rp907
sg37
g5
(g9
Ng13
tp908
Rp909
sg52
g5
(g9
Ng13
tp910
Rp911
sg57
g5
(g9
Ng13
tp912
Rp913
ssS'barWidth'
p914
(dp915
g37
g5
(g9
Ng13
tp916
Rp917
ssS'dbused'
p918
(dp919
g52
g5
(g9
Ng13
tp920
Rp921
sg42
g5
(g9
Ng13
tp922
Rp923
sg57
g5
(g9
Ng13
tp924
Rp925
ssS'write'
p926
(dp927
sS'dest'
p928
(dp929
g8
g5
(g47
Ng13
tp930
Rp931
ssS'ent'
p932
(dp933
g8
g5
(g84
Ng13
tp934
Rp935
sg37
g5
(g9
Ng13
tp936
Rp937
ssS'fname'
p938
(dp939
g8
g5
(g164
Ng13
tp940
Rp941
ssS'test'
p942
(dp943
g180
g5
(g9
Ng13
tp944
Rp945
ssS'mycode'
p946
(dp947
g180
g5
(g9
Ng13
tp948
Rp949
ssS'copy_myfs2pc'
p950
(dp951
g8
g5
(g9
Ng13
tp952
Rp953
sg18
g5
(g9
Ng13
tp954
Rp955
sg121
g5
(g9
Ng13
tp956
Rp957
ssS'buff'
p958
(dp959
g8
g5
(g47
Ng13
tp960
Rp961
ssS'fp'
p962
(dp963
g8
g5
(g164
Ng13
tp964
Rp965
sg27
g5
(g47
Ng13
tp966
Rp967
sg42
g5
(g47
Ng13
tp968
Rp969
ssS'fs'
p970
(dp971
g8
g5
(g47
Ng13
tp972
Rp973
ssS'maxdb'
p974
(dp975
g8
g5
(g9
Ng13
tp976
Rp977
sg52
g5
(g9
Ng13
tp978
Rp979
sg42
g5
(g9
Ng13
tp980
Rp981
sg37
g5
(g9
Ng13
tp982
Rp983
sg57
g5
(g9
Ng13
tp984
Rp985
ssS'dindbl'
p986
(dp987
g27
g5
(g9
Ng13
tp988
Rp989
sg37
g5
(g9
Ng13
tp990
Rp991
sg52
g5
(g9
Ng13
tp992
Rp993
sg57
g5
(g9
Ng13
tp994
Rp995
ssS'mytext'
p996
(dp997
g180
g5
(g9
Ng13
tp998
Rp999
ssS'fd'
p1000
(dp1001
g8
g5
(g164
Ng13
tp1002
Rp1003
sg180
g5
(g9
Ng13
tp1004
Rp1005
ssS'dirbl'
p1006
(dp1007
g27
g5
(g9
Ng13
tp1008
Rp1009
sg37
g5
(g9
Ng13
tp1010
Rp1011
sg52
g5
(g9
Ng13
tp1012
Rp1013
sg57
g5
(g9
Ng13
tp1014
Rp1015
ssS'addblock'
p1016
(dp1017
g8
g5
(g9
Ng13
tp1018
Rp1019
sg52
g5
(g9
Ng13
tp1020
Rp1021
sg37
g5
(g9
Ng13
tp1022
Rp1023
sg57
g5
(g9
Ng13
tp1024
Rp1025
ssS'fn'
p1026
(dp1027
g180
g5
(g9
Ng13
tp1028
Rp1029
sg37
g5
(g9
Ng13
tp1030
Rp1031
ssS'nm'
p1032
(dp1033
g37
g5
(g9
Ng13
tp1034
Rp1035
ssS'newman'
p1036
(dp1037
g37
g5
(g9
Ng13
tp1038
Rp1039
ssS'eof_myfs'
p1040
(dp1041
g8
g5
(g9
Ng13
tp1042
Rp1043
sg18
g5
(g9
Ng13
tp1044
Rp1045
sg121
g5
(g9
Ng13
tp1046
Rp1047
ssS'e'
p1048
(dp1049
g8
g5
(g308
Ng13
tp1050
Rp1051
ssS'i'
p1052
(dp1053
g8
g5
(V12
p1054
Ng13
tp1055
Rp1056
sg27
g5
(g308
Ng13
tp1057
Rp1058
sg37
g5
(V7
p1059
Ng13
tp1060
Rp1061
sg42
g5
(g164
Ng13
tp1062
Rp1063
ssS'clear'
p1064
(dp1065
g8
g5
(g9
Ng13
tp1066
Rp1067
sg27
g5
(g9
Ng13
tp1068
Rp1069
sg37
g5
(g9
Ng13
tp1070
Rp1071
sg52
g5
(g164
Ng13
tp1072
Rp1073
sg57
g5
(g47
Ng13
tp1074
Rp1075
ssS'getpwd'
p1076
(dp1077
g8
g5
(g9
Ng13
tp1078
Rp1079
sg37
g5
(g9
Ng13
tp1080
Rp1081
sg57
g5
(g9
Ng13
tp1082
Rp1083
ssS'spill'
p1084
(dp1085
g8
g5
(g308
Ng13
tp1086
Rp1087
sg37
g5
(g47
Ng13
tp1088
Rp1089
ssS'ext'
p1090
(dp1091
g27
g5
(g9
Ng13
tp1092
Rp1093
ssS'u'
p1094
(dp1095
g27
g5
(g9
Ng13
tp1096
Rp1097
sg37
g5
(g9
Ng13
tp1098
Rp1099
ssS'nbytes'
p1100
(dp1101
g8
g5
(g47
Ng13
tp1102
Rp1103
ssS'time'
p1104
(dp1105
g8
g5
(g9
Ng13
tp1106
Rp1107
sg27
g5
(g9
Ng13
tp1108
Rp1109
sg37
g5
(g9
Ng13
tp1110
Rp1111
sg815
g5
(g9
Ng13
tp1112
Rp1113
ssS'sb'
p1114
(dp1115
g52
g5
(g164
Ng13
tp1116
Rp1117
sg42
g5
(g47
Ng13
tp1118
Rp1119
sg37
g5
(g47
Ng13
tp1120
Rp1121
sg57
g5
(g47
Ng13
tp1122
Rp1123
ssS'fail'
p1124
(dp1125
sS'create_myfs'
p1126
(dp1127
g8
g5
(g9
Ng13
tp1128
Rp1129
sg18
g5
(g9
Ng13
tp1130
Rp1131
sg121
g5
(g9
Ng13
tp1132
Rp1133
sg180
g5
(g9
Ng13
tp1134
Rp1135
ssS'getblock'
p1136
(dp1137
g57
g5
(g9
Ng13
tp1138
Rp1139
sg37
g5
(g9
Ng13
tp1140
Rp1141
sg42
g5
(g9
Ng13
tp1142
Rp1143
ss.