(dp0
crdflib.term
Literal
p1
(Vpnginfo.h
p2
NNtp3
Rp4
g1
(V1079
p5
Ncrdflib.term
URIRef
p6
(Vhttp://www.w3.org/2001/XMLSchema#integer
p7
tp8
Rp9
tp10
Rp11
sg1
(Vpngset.c
p12
NNtp13
Rp14
g1
(V1303
p15
Ng9
tp16
Rp17
sg1
(Vtime.h
p18
NNtp19
Rp20
g1
(V12
p21
Ng9
tp22
Rp23
sg1
(Vintel_init.c
p24
NNtp25
Rp26
g1
(V25
p27
Ng9
tp28
Rp29
sg1
(Vpngtest.c
p30
NNtp31
Rp32
g1
(V1266
p33
Ng9
tp34
Rp35
sg1
(Vpngpriv.h
p36
NNtp37
Rp38
g1
(V1367
p39
Ng9
tp40
Rp41
sg1
(Vpngget.c
p42
NNtp43
Rp44
g1
(V1240
p45
Ng9
tp46
Rp47
sg1
(Vpngconf.h_1
p48
NNtp49
Rp50
g1
(V1038
p51
Ng9
tp52
Rp53
sg1
(Vpngrio.c
p54
NNtp55
Rp56
g1
(V1008
p57
Ng9
tp58
Rp59
sg1
(Vzlib.h_1
p60
NNtp61
Rp62
g1
(V9
p63
Ng9
tp64
Rp65
sg1
(Vpnginfo.h_1
p66
NNtp67
Rp68
g1
(V1079
p69
Ng9
tp70
Rp71
sg1
(Vpngpriv.h_1
p72
NNtp73
Rp74
g1
(V1367
p75
Ng9
tp76
Rp77
sg1
(Vpngmem.c
p78
NNtp79
Rp80
g1
(V1038
p81
Ng9
tp82
Rp83
sg1
(Vpng.h_1
p84
NNtp85
Rp86
g1
(V1602
p87
Ng9
tp88
Rp89
sg1
(Vpngwutil.c
p90
NNtp91
Rp92
g1
(V1326
p93
Ng9
tp94
Rp95
sg1
(Vpngrtran.c
p96
NNtp97
Rp98
g1
(V1282
p99
Ng9
tp100
Rp101
sg1
(Vfilter_sse2_intrinsics.c
p102
NNtp103
Rp104
g1
(V1035
p105
Ng9
tp106
Rp107
sg1
(Vzlib.h
p108
NNtp109
Rp110
g1
(V7
p111
Ng9
tp112
Rp113
sg1
(Vpng.h
p114
NNtp115
Rp116
g1
(V1602
p117
Ng9
tp118
Rp119
sg1
(Vpngread.c
p120
NNtp121
Rp122
g1
(V1355
p123
Ng9
tp124
Rp125
sg1
(Vpng.c
p126
NNtp127
Rp128
g1
(V1421
p129
Ng9
tp130
Rp131
sg1
(Vpngpread.c
p132
NNtp133
Rp134
g1
(V1151
p135
Ng9
tp136
Rp137
sg1
(Vpngconf.h
p138
NNtp139
Rp140
g1
(V1038
p141
Ng9
tp142
Rp143
sg1
(Vpngerror.c
p144
NNtp145
Rp146
g1
(V1098
p147
Ng9
tp148
Rp149
sg1
(Vpngstruct.h_1
p150
NNtp151
Rp152
g1
(V1213
p153
Ng9
tp154
Rp155
sg1
(Vpngrutil.c
p156
NNtp157
Rp158
g1
(V1378
p159
Ng9
tp160
Rp161
sg1
(Vpngwtran.c
p162
NNtp163
Rp164
g1
(V1044
p165
Ng9
tp166
Rp167
sg1
(Vpngtrans.c
p168
NNtp169
Rp170
g1
(V1071
p171
Ng9
tp172
Rp173
sg1
(Vpngwrite.c
p174
NNtp175
Rp176
g1
(V1379
p177
Ng9
tp178
Rp179
sg1
(Vpngwio.c
p180
NNtp181
Rp182
g1
(V1016
p183
Ng9
tp184
Rp185
sg1
(Vpngstruct.h
p186
NNtp187
Rp188
g1
(V1213
p189
Ng9
tp190
Rp191
s.