(dp0
S'Living'
p1
(lp2
(S'live'
p3
S'1'
p4
tp5
a(S'lives'
p6
S'0.7473310232162476'
p7
tp8
a(S'live'
p9
g7
tp10
a(S'life'
p11
S'0.6567333936691284'
p12
tp13
a(S'born'
p14
S'0.6348272562026978'
p15
tp16
a(S'house'
p17
S'0.6293855905532837'
p18
tp19
a(S'hous'
p20
g18
tp21
a(S'humanity'
p22
S'0.6150085926055908'
p23
tp24
a(S'human'
p25
g23
tp26
a(S'inhabitants'
p27
S'0.6147304773330688'
p28
tp29
a(S'inhabit'
p30
g28
tp31
a(S'young'
p32
S'0.6144918203353882'
p33
tp34
a(S'village'
p35
S'0.608386754989624'
p36
tp37
a(S'villag'
p38
g36
tp39
a(S'creatures'
p40
S'0.6049103140830994'
p41
tp42
a(S'creatur'
p43
g41
tp44
a(S'land'
p45
S'0.603541374206543'
p46
tp47
as.