(dp0
S''
p1
(dp2
sS'alBuffer3i'
p3
(dp4
crdflib.term
Literal
p5
(Val.h
p6
NNtp7
Rp8
g5
(V1
p9
Ncrdflib.term
URIRef
p10
(Vhttp://www.w3.org/2001/XMLSchema#integer
p11
tp12
Rp13
tp14
Rp15
ssS'alGetFloatv'
p16
(dp17
g8
g5
(g9
Ng13
tp18
Rp19
ssS'loadFromFile'
p20
(dp21
sS'Time'
p22
(dp23
g5
(VSoundBuffer.hpp
p24
NNtp25
Rp26
g5
(g9
Ng13
tp27
Rp28
sg5
(VTime.hpp
p29
NNtp30
Rp31
g5
(g9
Ng13
tp32
Rp33
sg5
(VSound.hpp
p34
NNtp35
Rp36
g5
(g9
Ng13
tp37
Rp38
sg5
(VSound.cpp
p39
NNtp40
Rp41
g5
(g9
Ng13
tp42
Rp43
ssS'alBuffer3f'
p44
(dp45
g8
g5
(g9
Ng13
tp46
Rp47
ssS'getChannelCount'
p48
(dp49
sS'alDisable'
p50
(dp51
g8
g5
(g9
Ng13
tp52
Rp53
ssS'sources'
p54
(dp55
g8
g5
(V12
p56
Ng13
tp57
Rp58
ssS'm_duration'
p59
(dp60
g26
g5
(g9
Ng13
tp61
Rp62
ssS'operator<='
p63
(dp64
sS'alcCaptureCloseDevice'
p65
(dp66
g5
(Valc.h
p67
NNtp68
Rp69
g5
(g9
Ng13
tp70
Rp71
ssS'timeOffset'
p72
(dp73
g36
g5
(g9
Ng13
tp74
Rp75
sg41
g5
(g9
Ng13
tp76
Rp77
ssS'm_sounds'
p78
(dp79
g26
g5
(g9
Ng13
tp80
Rp81
ssS'getPitch'
p82
(dp83
sS'alGetBufferf'
p84
(dp85
g8
g5
(g9
Ng13
tp86
Rp87
ssS'devicename'
p88
(dp89
g69
g5
(V4
p90
Ng13
tp91
Rp92
ssS'pause'
p93
(dp94
g36
g5
(g9
Ng13
tp95
Rp96
sg41
g5
(g9
Ng13
tp97
Rp98
ssS'operator+='
p99
(dp100
g5
(VVector3.inl
p101
NNtp102
Rp103
g5
(g9
Ng13
tp104
Rp105
sg5
(VVector3.hpp
p106
NNtp107
Rp108
g5
(g9
Ng13
tp109
Rp110
ssS'attachSound'
p111
(dp112
sS'setPlayingOffset'
p113
(dp114
g36
g5
(g9
Ng13
tp115
Rp116
sg41
g5
(g9
Ng13
tp117
Rp118
ssS'param'
p119
(dp120
g8
g5
(V90
p121
Ng13
tp122
Rp123
sg69
g5
(g90
Ng13
tp124
Rp125
ssS'setLoop'
p126
(dp127
g36
g5
(g9
Ng13
tp128
Rp129
sg41
g5
(g9
Ng13
tp130
Rp131
ssS'source'
p132
(dp133
g8
g5
(V38
p134
Ng13
tp135
Rp136
ssS'alcCaptureOpenDevice'
p137
(dp138
g69
g5
(g9
Ng13
tp139
Rp140
ssS'alGetBuffer3i'
p141
(dp142
g8
g5
(g9
Ng13
tp143
Rp144
ssS'alGetBuffer3f'
p145
(dp146
g8
g5
(g9
Ng13
tp147
Rp148
ssS'alSourcePausev'
p149
(dp150
g8
g5
(g9
Ng13
tp151
Rp152
ssS'alGetProcAddress'
p153
(dp154
g8
g5
(g9
Ng13
tp155
Rp156
ssS'Sound'
p157
(dp158
g26
g5
(g9
Ng13
tp159
Rp160
sg36
g5
(g90
Ng13
tp161
Rp162
sg41
g5
(g90
Ng13
tp163
Rp164
ssS'channelCount'
p165
(dp166
g26
g5
(V2
p167
Ng13
tp168
Rp169
ssS'alcGetString'
p170
(dp171
g69
g5
(g9
Ng13
tp172
Rp173
ssS'operator%='
p174
(dp175
sS'alIsExtensionPresent'
p176
(dp177
g8
g5
(g9
Ng13
tp178
Rp179
ssS'alEnable'
p180
(dp181
g8
g5
(g9
Ng13
tp182
Rp183
ssS'alGetListeneriv'
p184
(dp185
g8
g5
(g9
Ng13
tp186
Rp187
ssS'stop'
p188
(dp189
g36
g5
(g9
Ng13
tp190
Rp191
sg41
g5
(g9
Ng13
tp192
Rp193
ssS'operator=='
p194
(dp195
g103
g5
(g9
Ng13
tp196
Rp197
sg108
g5
(g9
Ng13
tp198
Rp199
ssS'alSourceQueueBuffers'
p200
(dp201
g8
g5
(g9
Ng13
tp202
Rp203
ssS'alcCaptureStart'
p204
(dp205
g69
g5
(g9
Ng13
tp206
Rp207
ssS'AlResource'
p208
(dp209
g5
(VAlResource.hpp
p210
NNtp211
Rp212
g5
(g9
Ng13
tp213
Rp214
sg26
g5
(g9
Ng13
tp215
Rp216
sg5
(VSoundSource.hpp
p217
NNtp218
Rp219
g5
(g9
Ng13
tp220
Rp221
ssS'alcGetCurrentContext'
p222
(dp223
g69
g5
(g9
Ng13
tp224
Rp225
ssS'alcGetIntegerv'
p226
(dp227
g69
g5
(g9
Ng13
tp228
Rp229
ssS'X'
p230
(dp231
g103
g5
(g9
Ng13
tp232
Rp233
sg108
g5
(g9
Ng13
tp234
Rp235
ssS'alSourcef'
p236
(dp237
g8
g5
(g9
Ng13
tp238
Rp239
sg41
g5
(g9
Ng13
tp240
Rp241
ssS'alGetBufferi'
p242
(dp243
g8
g5
(g9
Ng13
tp244
Rp245
ssS'alCheckError'
p246
(dp247
sS'm_microseconds'
p248
(dp249
g31
g5
(g9
Ng13
tp250
Rp251
ssS'alSourceRewind'
p252
(dp253
g8
g5
(g9
Ng13
tp254
Rp255
ssS'capability'
p256
(dp257
g8
g5
(V6
p258
Ng13
tp259
Rp260
ssS'alGetEnumValue'
p261
(dp262
g8
g5
(g9
Ng13
tp263
Rp264
ssS'alListenerf'
p265
(dp266
g8
g5
(g9
Ng13
tp267
Rp268
ssS'alcGetProcAddress'
p269
(dp270
g69
g5
(g9
Ng13
tp271
Rp272
ssS'alSourceStop'
p273
(dp274
g8
g5
(g9
Ng13
tp275
Rp276
sg41
g5
(g9
Ng13
tp277
Rp278
ssS'alListeneri'
p279
(dp280
g8
g5
(g9
Ng13
tp281
Rp282
ssS'alBufferf'
p283
(dp284
g8
g5
(g9
Ng13
tp285
Rp286
ssS'alGetError'
p287
(dp288
g8
g5
(g9
Ng13
tp289
Rp290
ssS'alGetListenerfv'
p291
(dp292
g8
g5
(g9
Ng13
tp293
Rp294
ssS'right'
p295
(dp296
g103
g5
(V11
p297
Ng13
tp298
Rp299
sg26
g5
(g9
Ng13
tp300
Rp301
sg108
g5
(V11
p302
Ng13
tp303
Rp304
sg219
g5
(g9
Ng13
tp305
Rp306
sg36
g5
(g9
Ng13
tp307
Rp308
sg41
g5
(g9
Ng13
tp309
Rp310
sg31
g5
(V24
p311
Ng13
tp312
Rp313
ssS'Y'
p314
(dp315
g103
g5
(g9
Ng13
tp316
Rp317
sg108
g5
(g9
Ng13
tp318
Rp319
ssS'alcCloseDevice'
p320
(dp321
g69
g5
(g9
Ng13
tp322
Rp323
ssS'pitch'
p324
(dp325
g219
g5
(g9
Ng13
tp326
Rp327
ssS'copy'
p328
(dp329
g26
g5
(g9
Ng13
tp330
Rp331
sg219
g5
(g9
Ng13
tp332
Rp333
sg36
g5
(g9
Ng13
tp334
Rp335
sg41
g5
(g9
Ng13
tp336
Rp337
ssS'm_buffer'
p338
(dp339
g26
g5
(g9
Ng13
tp340
Rp341
sg36
g5
(g9
Ng13
tp342
Rp343
sg41
g5
(g167
Ng13
tp344
Rp345
ssS'Status'
p346
(dp347
g219
g5
(g9
Ng13
tp348
Rp349
sg36
g5
(g9
Ng13
tp350
Rp351
sg41
g5
(g9
Ng13
tp352
Rp353
ssS'alDeleteBuffers'
p354
(dp355
g8
g5
(g9
Ng13
tp356
Rp357
ssS'alcMakeContextCurrent'
p358
(dp359
g69
g5
(g9
Ng13
tp360
Rp361
ssS'loadFromSamples'
p362
(dp363
sS'alGetBoolean'
p364
(dp365
g8
g5
(g9
Ng13
tp366
Rp367
ssS'alListener3f'
p368
(dp369
g8
g5
(g9
Ng13
tp370
Rp371
ssS'getAttenuation'
p372
(dp373
sS'alListener3i'
p374
(dp375
g8
g5
(g9
Ng13
tp376
Rp377
ssS'operator>='
p378
(dp379
sS'buffers'
p380
(dp381
g8
g5
(V8
p382
Ng13
tp383
Rp384
ssS'alGetSourcefv'
p385
(dp386
g8
g5
(g9
Ng13
tp387
Rp388
ssS'operator-='
p389
(dp390
g103
g5
(g9
Ng13
tp391
Rp392
sg108
g5
(g9
Ng13
tp393
Rp394
ssS'alSource3f'
p395
(dp396
g8
g5
(g9
Ng13
tp397
Rp398
ssS'setAttenuation'
p399
(dp400
sS'position'
p401
(dp402
g219
g5
(g9
Ng13
tp403
Rp404
ssS'alSource3i'
p405
(dp406
g8
g5
(g9
Ng13
tp407
Rp408
ssS'getStatus'
p409
(dp410
g36
g5
(g9
Ng13
tp411
Rp412
sg41
g5
(g9
Ng13
tp413
Rp414
ssS'filename'
p415
(dp416
g26
g5
(g167
Ng13
tp417
Rp418
ssS'sampleCount'
p419
(dp420
g26
g5
(g9
Ng13
tp421
Rp422
ssS'alBufferi'
p423
(dp424
g8
g5
(g9
Ng13
tp425
Rp426
ssS'alGetSourceiv'
p427
(dp428
g8
g5
(g9
Ng13
tp429
Rp430
ssS'alSourcePlay'
p431
(dp432
g8
g5
(g9
Ng13
tp433
Rp434
sg41
g5
(g9
Ng13
tp435
Rp436
ssS'alGetDouble'
p437
(dp438
g8
g5
(g9
Ng13
tp439
Rp440
ssS'alSpeedOfSound'
p441
(dp442
g8
g5
(g9
Ng13
tp443
Rp444
ssS'detachSound'
p445
(dp446
sS'seconds'
p447
(dp448
sS'alIsBuffer'
p449
(dp450
g8
g5
(g9
Ng13
tp451
Rp452
ssS'enumname'
p453
(dp454
g69
g5
(g167
Ng13
tp455
Rp456
ssS'loadFromMemory'
p457
(dp458
sS'getDuration'
p459
(dp460
sS'initialize'
p461
(dp462
sS'setPosition'
p463
(dp464
sS'Vector3<T>'
p465
(dp466
g103
g5
(V3
p467
Ng13
tp468
Rp469
sg108
g5
(g467
Ng13
tp470
Rp471
ssS'alBufferfv'
p472
(dp473
g8
g5
(g9
Ng13
tp474
Rp475
ssS'alGetListenerf'
p476
(dp477
g8
g5
(g9
Ng13
tp478
Rp479
ssS'alGetListeneri'
p480
(dp481
g8
g5
(g9
Ng13
tp482
Rp483
ssS'alcDestroyContext'
p484
(dp485
g69
g5
(g9
Ng13
tp486
Rp487
ssS'amount'
p488
(dp489
g31
g5
(g467
Ng13
tp490
Rp491
ssS'getSamples'
p492
(dp493
sS'context'
p494
(dp495
g69
g5
(V10
p496
Ng13
tp497
Rp498
ssS'alcCaptureSamples'
p499
(dp500
g69
g5
(g9
Ng13
tp501
Rp502
ssS'buffersize'
p503
(dp504
g69
g5
(g167
Ng13
tp505
Rp506
ssS'expression'
p507
(dp508
g5
(VALCheck.hpp
p509
NNtp510
Rp511
g5
(g9
Ng13
tp512
Rp513
ssS'alListeneriv'
p514
(dp515
g8
g5
(g9
Ng13
tp516
Rp517
ssS'alSourcefv'
p518
(dp519
g8
g5
(g9
Ng13
tp520
Rp521
ssS'operator='
p522
(dp523
g36
g5
(g9
Ng13
tp524
Rp525
sg41
g5
(g9
Ng13
tp526
Rp527
ssS'operator<'
p528
(dp529
sS'getSampleCount'
p530
(dp531
sS'operator>'
p532
(dp533
sS'm_source'
p534
(dp535
g219
g5
(g9
Ng13
tp536
Rp537
sg41
g5
(g9
Ng13
tp538
Rp539
ssS'SoundBuffer'
p540
(dp541
g26
g5
(g9
Ng13
tp542
Rp543
sg36
g5
(g9
Ng13
tp544
Rp545
sg41
g5
(g9
Ng13
tp546
Rp547
ssS'alGetBufferfv'
p548
(dp549
g8
g5
(g9
Ng13
tp550
Rp551
ssS'InputStream'
p552
(dp553
sS'ALCcontext_struct'
p554
(dp555
sS'operator+'
p556
(dp557
g103
g5
(g9
Ng13
tp558
Rp559
sg108
g5
(g9
Ng13
tp560
Rp561
ssS'operator*'
p562
(dp563
g103
g5
(g167
Ng13
tp564
Rp565
sg108
g5
(g167
Ng13
tp566
Rp567
ssS'operator-'
p568
(dp569
g103
g5
(g167
Ng13
tp570
Rp571
sg108
g5
(g167
Ng13
tp572
Rp573
ssS'operator/'
p574
(dp575
g103
g5
(g9
Ng13
tp576
Rp577
sg108
g5
(g9
Ng13
tp578
Rp579
ssS'alIsEnabled'
p580
(dp581
g8
g5
(g9
Ng13
tp582
Rp583
ssS'alcCreateContext'
p584
(dp585
g69
g5
(g9
Ng13
tp586
Rp587
ssS'alSourceRewindv'
p588
(dp589
g8
g5
(g9
Ng13
tp590
Rp591
ssS'operator%'
p592
(dp593
sS'freq'
p594
(dp595
g8
g5
(g167
Ng13
tp596
Rp597
ssS'size'
p598
(dp599
g8
g5
(g167
Ng13
tp600
Rp601
sg69
g5
(g167
Ng13
tp602
Rp603
ssS'sizeInBytes'
p604
(dp605
g26
g5
(g9
Ng13
tp606
Rp607
ssS'alcOpenDevice'
p608
(dp609
g69
g5
(g9
Ng13
tp610
Rp611
ssS'getBuffer'
p612
(dp613
g36
g5
(g9
Ng13
tp614
Rp615
sg41
g5
(g9
Ng13
tp616
Rp617
ssS'operator/='
p618
(dp619
g103
g5
(g9
Ng13
tp620
Rp621
sg108
g5
(g9
Ng13
tp622
Rp623
ssS'setMinDistance'
p624
(dp625
sS'alGetBufferiv'
p626
(dp627
g8
g5
(g9
Ng13
tp628
Rp629
ssS'getSampleRate'
p630
(dp631
sS'alDistanceModel'
p632
(dp633
g8
g5
(g9
Ng13
tp634
Rp635
ssS'alSourceStopv'
p636
(dp637
g8
g5
(g9
Ng13
tp638
Rp639
ssS'ALCdevice_struct'
p640
(dp641
sS'value2'
p642
(dp643
g8
g5
(V24
p644
Ng13
tp645
Rp646
ssS'value1'
p647
(dp648
g8
g5
(V24
p649
Ng13
tp650
Rp651
ssS'alSourceiv'
p652
(dp653
g8
g5
(g9
Ng13
tp654
Rp655
ssS'value3'
p656
(dp657
g8
g5
(V24
p658
Ng13
tp659
Rp660
ssS'alcIsExtensionPresent'
p661
(dp662
g69
g5
(g9
Ng13
tp663
Rp664
ssS'funcname'
p665
(dp666
g69
g5
(g167
Ng13
tp667
Rp668
ssS'milliseconds'
p669
(dp670
sS'setVolume'
p671
(dp672
sS'alGetSourcef'
p673
(dp674
g8
g5
(g9
Ng13
tp675
Rp676
sg41
g5
(g9
Ng13
tp677
Rp678
ssS'operator!='
p679
(dp680
g103
g5
(g9
Ng13
tp681
Rp682
sg108
g5
(g9
Ng13
tp683
Rp684
ssS'samples'
p685
(dp686
g26
g5
(g9
Ng13
tp687
Rp688
sg69
g5
(g167
Ng13
tp689
Rp690
ssS'alListenerfv'
p691
(dp692
g8
g5
(g9
Ng13
tp693
Rp694
ssS'alGetSourcei'
p695
(dp696
g8
g5
(g9
Ng13
tp697
Rp698
sg41
g5
(g9
Ng13
tp699
Rp700
ssS'volume'
p701
(dp702
g219
g5
(g9
Ng13
tp703
Rp704
ssS'getLoop'
p705
(dp706
g36
g5
(g9
Ng13
tp707
Rp708
sg41
g5
(g9
Ng13
tp709
Rp710
ssS'alGetListener3i'
p711
(dp712
g8
g5
(g9
Ng13
tp713
Rp714
ssS'alGetString'
p715
(dp716
g8
g5
(g9
Ng13
tp717
Rp718
ssS'asSeconds'
p719
(dp720
sS'getMinDistance'
p721
(dp722
sS'line'
p723
(dp724
g511
g5
(g9
Ng13
tp725
Rp726
ssS'Z'
p727
(dp728
g103
g5
(g9
Ng13
tp729
Rp730
sg108
g5
(g9
Ng13
tp731
Rp732
ssS'alcGetContextsDevice'
p733
(dp734
g69
g5
(g9
Ng13
tp735
Rp736
ssS'alGetListener3f'
p737
(dp738
g8
g5
(g9
Ng13
tp739
Rp740
ssS'getPosition'
p741
(dp742
sS'alGenSources'
p743
(dp744
g8
g5
(g9
Ng13
tp745
Rp746
ssS'sound'
p747
(dp748
g26
g5
(g167
Ng13
tp749
Rp750
ssS'relative'
p751
(dp752
g219
g5
(g9
Ng13
tp753
Rp754
ssS'alGetFloat'
p755
(dp756
g8
g5
(g9
Ng13
tp757
Rp758
ssS'resetBuffer'
p759
(dp760
g36
g5
(g9
Ng13
tp761
Rp762
sg41
g5
(g9
Ng13
tp763
Rp764
ssS'value'
p765
(dp766
g8
g5
(V30
p767
Ng13
tp768
Rp769
ssS'n'
p770
(dp771
g8
g5
(V16
p772
Ng13
tp773
Rp774
ssS'frequency'
p775
(dp776
g69
g5
(g167
Ng13
tp777
Rp778
ssS'values'
p779
(dp780
g8
g5
(V32
p781
Ng13
tp782
Rp783
sg69
g5
(g167
Ng13
tp784
Rp785
ssS'alGetIntegerv'
p786
(dp787
g8
g5
(g9
Ng13
tp788
Rp789
ssS'setPitch'
p790
(dp791
sS'z'
p792
(dp793
g103
g5
(g9
Ng13
tp794
Rp795
sg108
g5
(g9
Ng13
tp796
Rp797
sg219
g5
(g9
Ng13
tp798
Rp799
ssS'loop'
p800
(dp801
g36
g5
(g9
Ng13
tp802
Rp803
sg41
g5
(g167
Ng13
tp804
Rp805
ssS'distance'
p806
(dp807
g219
g5
(g9
Ng13
tp808
Rp809
ssS'ename'
p810
(dp811
g8
g5
(g167
Ng13
tp812
Rp813
ssS'extname'
p814
(dp815
g8
g5
(g167
Ng13
tp816
Rp817
sg69
g5
(g167
Ng13
tp818
Rp819
ssS'asMicroseconds'
p820
(dp821
sS'stream'
p822
(dp823
g26
g5
(g9
Ng13
tp824
Rp825
ssS'alDopplerFactor'
p826
(dp827
g8
g5
(g9
Ng13
tp828
Rp829
ssS'getVolume'
p830
(dp831
sS'alBufferiv'
p832
(dp833
g8
g5
(g9
Ng13
tp834
Rp835
ssS'alDeleteSources'
p836
(dp837
g8
g5
(g9
Ng13
tp838
Rp839
ssS'alIsSource'
p840
(dp841
g8
g5
(g9
Ng13
tp842
Rp843
ssS'file'
p844
(dp845
g26
g5
(g9
Ng13
tp846
Rp847
sg511
g5
(g9
Ng13
tp848
Rp849
ssS'saveToFile'
p850
(dp851
sS'alSourcePause'
p852
(dp853
g8
g5
(g9
Ng13
tp854
Rp855
sg41
g5
(g9
Ng13
tp856
Rp857
ssS'alGenBuffers'
p858
(dp859
g8
g5
(g9
Ng13
tp860
Rp861
ssS'distanceModel'
p862
(dp863
g8
g5
(g167
Ng13
tp864
Rp865
ssS'alcProcessContext'
p866
(dp867
g69
g5
(g9
Ng13
tp868
Rp869
ssS'alBufferData'
p870
(dp871
g8
g5
(g9
Ng13
tp872
Rp873
ssS'setBuffer'
p874
(dp875
g36
g5
(g9
Ng13
tp876
Rp877
sg41
g5
(g9
Ng13
tp878
Rp879
ssS'nb'
p880
(dp881
g8
g5
(g90
Ng13
tp882
Rp883
ssS'format'
p884
(dp885
g8
g5
(g167
Ng13
tp886
Rp887
sg69
g5
(g167
Ng13
tp888
Rp889
ssS'Zero'
p890
(dp891
sS'alcCaptureStop'
p892
(dp893
g69
g5
(g9
Ng13
tp894
Rp895
ssS'InputSoundFile'
p896
(dp897
sS'm_samples'
p898
(dp899
g26
g5
(g9
Ng13
tp900
Rp901
ssS'alDopplerVelocity'
p902
(dp903
g8
g5
(g9
Ng13
tp904
Rp905
ssS'fname'
p906
(dp907
g8
g5
(g167
Ng13
tp908
Rp909
ssS'isRelativeToListener'
p910
(dp911
sS'alSourceUnqueueBuffers'
p912
(dp913
g8
g5
(g9
Ng13
tp914
Rp915
ssS'getPlayingOffset'
p916
(dp917
g36
g5
(g9
Ng13
tp918
Rp919
sg41
g5
(g9
Ng13
tp920
Rp921
ssS'attrlist'
p922
(dp923
g69
g5
(g167
Ng13
tp924
Rp925
ssS'play'
p926
(dp927
g36
g5
(g9
Ng13
tp928
Rp929
sg41
g5
(g9
Ng13
tp930
Rp931
ssS'attenuation'
p932
(dp933
g219
g5
(g9
Ng13
tp934
Rp935
ssS'buffer'
p936
(dp937
g69
g5
(g167
Ng13
tp938
Rp939
sg8
g5
(V28
p940
Ng13
tp941
Rp942
sg36
g5
(g167
Ng13
tp943
Rp944
sg41
g5
(g167
Ng13
tp945
Rp946
ssS'update'
p947
(dp948
sS'setRelativeToListener'
p949
(dp950
sS'x'
p951
(dp952
g103
g5
(g9
Ng13
tp953
Rp954
sg108
g5
(g9
Ng13
tp955
Rp956
sg219
g5
(g9
Ng13
tp957
Rp958
ssS'device'
p959
(dp960
g69
g5
(V24
p961
Ng13
tp962
Rp963
ssS'alSourcePlayv'
p964
(dp965
g8
g5
(g9
Ng13
tp966
Rp967
ssS'alcGetError'
p968
(dp969
g69
g5
(g9
Ng13
tp970
Rp971
ssS'data'
p972
(dp973
g26
g5
(g9
Ng13
tp974
Rp975
sg8
g5
(g167
Ng13
tp976
Rp977
ssS'sampleRate'
p978
(dp979
g26
g5
(g167
Ng13
tp980
Rp981
ssS'SoundSource'
p982
(dp983
g219
g5
(g9
Ng13
tp984
Rp985
sg36
g5
(g9
Ng13
tp986
Rp987
sg41
g5
(g9
Ng13
tp988
Rp989
ssS'alGetSource3f'
p990
(dp991
g8
g5
(g9
Ng13
tp992
Rp993
ssS'alSourcei'
p994
(dp995
g8
g5
(g9
Ng13
tp996
Rp997
sg41
g5
(g9
Ng13
tp998
Rp999
ssS'alGetDoublev'
p1000
(dp1001
g8
g5
(g9
Ng13
tp1002
Rp1003
ssS'alGetBooleanv'
p1004
(dp1005
g8
g5
(g9
Ng13
tp1006
Rp1007
ssS'alGetInteger'
p1008
(dp1009
g8
g5
(g9
Ng13
tp1010
Rp1011
ssS'alcSuspendContext'
p1012
(dp1013
g69
g5
(g9
Ng13
tp1014
Rp1015
ssS'alcGetEnumValue'
p1016
(dp1017
g69
g5
(g9
Ng13
tp1018
Rp1019
ssS'asMilliseconds'
p1020
(dp1021
sS'vector'
p1022
(dp1023
g26
g5
(g9
Ng13
tp1024
Rp1025
sg108
g5
(g9
Ng13
tp1026
Rp1027
sg5
(Vstl_vector.h
p1028
NNtp1029
Rp1030
g5
(g9
Ng13
tp1031
Rp1032
sg103
g5
(g9
Ng13
tp1033
Rp1034
ssS'alGetSource3i'
p1035
(dp1036
g8
g5
(g9
Ng13
tp1037
Rp1038
ssS'secs'
p1039
(dp1040
g41
g5
(g9
Ng13
tp1041
Rp1042
ssS'microseconds'
p1043
(dp1044
g31
g5
(g9
Ng13
tp1045
Rp1046
ssS'y'
p1047
(dp1048
g103
g5
(g9
Ng13
tp1049
Rp1050
sg108
g5
(g9
Ng13
tp1051
Rp1052
sg219
g5
(g9
Ng13
tp1053
Rp1054
ssS'operator*='
p1055
(dp1056
g103
g5
(g9
Ng13
tp1057
Rp1058
sg108
g5
(g9
Ng13
tp1059
Rp1060
ssS'loadFromStream'
p1061
(dp1062
sS'left'
p1063
(dp1064
g103
g5
(V12
p1065
Ng13
tp1066
Rp1067
sg31
g5
(V23
p1068
Ng13
tp1069
Rp1070
sg108
g5
(V12
p1071
Ng13
tp1072
Rp1073
ss.