(dp0
S'problem_domain'
p1
ccollections
defaultdict
p2
(c__builtin__
set
p3
tp4
Rp5
sS'symbol'
p6
g2
(g3
tp7
Rp8
S''
p9
g3
((lp10
VParmDecl
p11
atp12
Rp13
sS'alBuffer3i'
p14
g3
((lp15
VFunctionDecl
p16
atp17
Rp18
sS'alGetFloatv'
p19
g3
((lp20
g16
atp21
Rp22
sS'loadFromFile'
p23
g3
((lp24
VCXXMethod
p25
atp26
Rp27
sS'Time'
p28
g3
((lp29
VClassDecl
p30
aVCXXConstructor
p31
atp32
Rp33
sS'alBuffer3f'
p34
g3
((lp35
g16
atp36
Rp37
sS'getChannelCount'
p38
g3
((lp39
g25
atp40
Rp41
sS'alDisable'
p42
g3
((lp43
g16
atp44
Rp45
sS'sources'
p46
g3
((lp47
g11
atp48
Rp49
sS'm_duration'
p50
g3
((lp51
VFieldDecl
p52
atp53
Rp54
sS'operator<='
p55
g3
((lp56
g16
atp57
Rp58
sS'frequency'
p59
g3
((lp60
g11
atp61
Rp62
sS'alcCaptureCloseDevice'
p63
g3
((lp64
g16
atp65
Rp66
sS'timeOffset'
p67
g3
((lp68
g11
atp69
Rp70
sS'Zero'
p71
g3
((lp72
VVarDecl
p73
atp74
Rp75
sS'm_sounds'
p76
g3
((lp77
g52
atp78
Rp79
sS'getPitch'
p80
g3
((lp81
g25
atp82
Rp83
sS'alGetBufferf'
p84
g3
((lp85
g16
atp86
Rp87
sS'devicename'
p88
g3
((lp89
g11
atp90
Rp91
sS'pause'
p92
g3
((lp93
g25
atp94
Rp95
sS'operator+='
p96
g3
((lp97
g16
atp98
Rp99
sS'attachSound'
p100
g3
((lp101
g25
atp102
Rp103
sS'setPlayingOffset'
p104
g3
((lp105
g25
atp106
Rp107
sS'param'
p108
g3
((lp109
g11
atp110
Rp111
sS'setLoop'
p112
g3
((lp113
g25
atp114
Rp115
sS'source'
p116
g3
((lp117
g11
atp118
Rp119
sS'n'
p120
g3
((lp121
g11
atp122
Rp123
sS'alcCaptureOpenDevice'
p124
g3
((lp125
g16
atp126
Rp127
sS'alGetBuffer3i'
p128
g3
((lp129
g16
atp130
Rp131
sS'ALCdevice_struct'
p132
g3
((lp133
VStructDecl
p134
atp135
Rp136
sS'alGetBuffer3f'
p137
g3
((lp138
g16
atp139
Rp140
sS'alSourcePausev'
p141
g3
((lp142
g16
atp143
Rp144
sS'alGetProcAddress'
p145
g3
((lp146
g16
atp147
Rp148
sS'Sound'
p149
g3
((lp150
g30
ag31
atp151
Rp152
sS'channelCount'
p153
g3
((lp154
g11
atp155
Rp156
sS'alcGetString'
p157
g3
((lp158
g16
atp159
Rp160
sS'operator%='
p161
g3
((lp162
g16
atp163
Rp164
sS'alEnable'
p165
g3
((lp166
g16
atp167
Rp168
sS'alGetListeneriv'
p169
g3
((lp170
g16
atp171
Rp172
sS'stop'
p173
g3
((lp174
g25
atp175
Rp176
sS'operator=='
p177
g3
((lp178
g16
atp179
Rp180
sS'alSourceQueueBuffers'
p181
g3
((lp182
g16
atp183
Rp184
sS'alcCaptureStart'
p185
g3
((lp186
g16
atp187
Rp188
sS'AlResource'
p189
g3
((lp190
g30
ag31
atp191
Rp192
sS'alcGetCurrentContext'
p193
g3
((lp194
g16
atp195
Rp196
sS'alcGetIntegerv'
p197
g3
((lp198
g16
atp199
Rp200
sS'getSampleCount'
p201
g3
((lp202
g25
atp203
Rp204
sS'alSourcef'
p205
g3
((lp206
g16
atp207
Rp208
sS'alGetBufferi'
p209
g3
((lp210
g16
atp211
Rp212
sS'alCheckError'
p213
g3
((lp214
g16
atp215
Rp216
sS'm_microseconds'
p217
g3
((lp218
g52
atp219
Rp220
sS'alSourceRewind'
p221
g3
((lp222
g16
atp223
Rp224
sS'capability'
p225
g3
((lp226
g11
atp227
Rp228
sS'alGetEnumValue'
p229
g3
((lp230
g16
atp231
Rp232
sS'alListenerf'
p233
g3
((lp234
g16
atp235
Rp236
sS'alcGetProcAddress'
p237
g3
((lp238
g16
atp239
Rp240
sS'alSourceStop'
p241
g3
((lp242
g16
atp243
Rp244
sS'alListeneri'
p245
g3
((lp246
g16
atp247
Rp248
sS'alBufferf'
p249
g3
((lp250
g16
atp251
Rp252
sS'alGetError'
p253
g3
((lp254
g16
atp255
Rp256
sS'alGetListenerfv'
p257
g3
((lp258
g16
atp259
Rp260
sS'right'
p261
g3
((lp262
g11
atp263
Rp264
sS'alcCloseDevice'
p265
g3
((lp266
g16
atp267
Rp268
sS'pitch'
p269
g3
((lp270
g11
atp271
Rp272
sS'copy'
p273
g3
((lp274
g11
atp275
Rp276
sS'm_buffer'
p277
g3
((lp278
g52
atp279
Rp280
sS'Status'
p281
g3
((lp282
VEnumDecl
p283
atp284
Rp285
sS'alDeleteBuffers'
p286
g3
((lp287
g16
atp288
Rp289
sS'alcMakeContextCurrent'
p290
g3
((lp291
g16
atp292
Rp293
sS'loadFromSamples'
p294
g3
((lp295
g25
atp296
Rp297
sS'alGetBoolean'
p298
g3
((lp299
g16
atp300
Rp301
sS'alListener3f'
p302
g3
((lp303
g16
atp304
Rp305
sS'X'
p306
g3
((lp307
g11
atp308
Rp309
sS'getAttenuation'
p310
g3
((lp311
g25
atp312
Rp313
sS'alListener3i'
p314
g3
((lp315
g16
atp316
Rp317
sS'operator>='
p318
g3
((lp319
g16
atp320
Rp321
sS'buffers'
p322
g3
((lp323
g11
atp324
Rp325
sS'alGetSourcefv'
p326
g3
((lp327
g16
atp328
Rp329
sS'operator-='
p330
g3
((lp331
g16
atp332
Rp333
sS'alSource3f'
p334
g3
((lp335
g16
atp336
Rp337
sS'setAttenuation'
p338
g3
((lp339
g25
atp340
Rp341
sS'position'
p342
g3
((lp343
g11
atp344
Rp345
sS'alSource3i'
p346
g3
((lp347
g16
atp348
Rp349
sS'getStatus'
p350
g3
((lp351
g25
atp352
Rp353
sS'filename'
p354
g3
((lp355
g11
atp356
Rp357
sS'sampleCount'
p358
g3
((lp359
g11
atp360
Rp361
sS'alBufferi'
p362
g3
((lp363
g16
atp364
Rp365
sS'alSourcePlay'
p366
g3
((lp367
g16
atp368
Rp369
sS'alGetDouble'
p370
g3
((lp371
g16
atp372
Rp373
sS'alSpeedOfSound'
p374
g3
((lp375
g16
atp376
Rp377
sS'detachSound'
p378
g3
((lp379
g25
atp380
Rp381
sS'seconds'
p382
g3
((lp383
g16
atp384
Rp385
sS'alIsBuffer'
p386
g3
((lp387
g16
atp388
Rp389
sS'enumname'
p390
g3
((lp391
g11
atp392
Rp393
sS'loadFromMemory'
p394
g3
((lp395
g25
atp396
Rp397
sS'getDuration'
p398
g3
((lp399
g25
atp400
Rp401
sS'initialize'
p402
g3
((lp403
g25
atp404
Rp405
sS'setPosition'
p406
g3
((lp407
g25
atp408
Rp409
sS'Vector3<T>'
p410
g3
((lp411
g31
atp412
Rp413
sS'alBufferfv'
p414
g3
((lp415
g16
atp416
Rp417
sS'alGetListenerf'
p418
g3
((lp419
g16
atp420
Rp421
sS'alGetListeneri'
p422
g3
((lp423
g16
atp424
Rp425
sS'alcDestroyContext'
p426
g3
((lp427
g16
atp428
Rp429
sS'alGetSourceiv'
p430
g3
((lp431
g16
atp432
Rp433
sS'getSamples'
p434
g3
((lp435
g25
atp436
Rp437
sS'context'
p438
g3
((lp439
g11
atp440
Rp441
sS'alcCaptureSamples'
p442
g3
((lp443
g16
atp444
Rp445
sS'buffersize'
p446
g3
((lp447
g11
atp448
Rp449
sS'expression'
p450
g3
((lp451
g11
atp452
Rp453
sS'alListeneriv'
p454
g3
((lp455
g16
atp456
Rp457
sS'alSourcefv'
p458
g3
((lp459
g16
atp460
Rp461
sS'operator='
p462
g3
((lp463
g25
atp464
Rp465
sS'operator<'
p466
g3
((lp467
g16
atp468
Rp469
sS'operator>'
p470
g3
((lp471
g16
atp472
Rp473
sS'format'
p474
g3
((lp475
g11
atp476
Rp477
sS'm_source'
p478
g3
((lp479
g52
atp480
Rp481
sS'SoundBuffer'
p482
g3
((lp483
g30
ag31
atp484
Rp485
sS'alGetBufferfv'
p486
g3
((lp487
g16
atp488
Rp489
sS'InputStream'
p490
g3
((lp491
g30
atp492
Rp493
sS'Y'
p494
g3
((lp495
g11
atp496
Rp497
sS'operator+'
p498
g3
((lp499
g16
atp500
Rp501
sS'operator*'
p502
g3
((lp503
g16
atp504
Rp505
sS'operator-'
p506
g3
((lp507
g16
atp508
Rp509
sS'operator/'
p510
g3
((lp511
g16
atp512
Rp513
sS'alIsEnabled'
p514
g3
((lp515
g16
atp516
Rp517
sS'alcCreateContext'
p518
g3
((lp519
g16
atp520
Rp521
sS'alSourceRewindv'
p522
g3
((lp523
g16
atp524
Rp525
sS'operator%'
p526
g3
((lp527
g16
atp528
Rp529
sS'freq'
p530
g3
((lp531
g11
atp532
Rp533
sS'size'
p534
g3
((lp535
g11
atp536
Rp537
sS'sizeInBytes'
p538
g3
((lp539
g11
atp540
Rp541
sS'alcOpenDevice'
p542
g3
((lp543
g16
atp544
Rp545
sS'getBuffer'
p546
g3
((lp547
g25
atp548
Rp549
sS'operator/='
p550
g3
((lp551
g16
atp552
Rp553
sS'alGetBufferiv'
p554
g3
((lp555
g16
atp556
Rp557
sS'getSampleRate'
p558
g3
((lp559
g25
atp560
Rp561
sS'alDistanceModel'
p562
g3
((lp563
g16
atp564
Rp565
sS'alSourceStopv'
p566
g3
((lp567
g16
atp568
Rp569
sS'value3'
p570
g3
((lp571
g11
atp572
Rp573
sS'value2'
p574
g3
((lp575
g11
atp576
Rp577
sS'value1'
p578
g3
((lp579
g11
atp580
Rp581
sS'alSourceiv'
p582
g3
((lp583
g16
atp584
Rp585
sS'alSourceUnqueueBuffers'
p586
g3
((lp587
g16
atp588
Rp589
sS'alcIsExtensionPresent'
p590
g3
((lp591
g16
atp592
Rp593
sS'funcname'
p594
g3
((lp595
g11
atp596
Rp597
sS'milliseconds'
p598
g3
((lp599
g16
atp600
Rp601
sS'setVolume'
p602
g3
((lp603
g25
atp604
Rp605
sS'alGetSourcef'
p606
g3
((lp607
g16
atp608
Rp609
sS'operator!='
p610
g3
((lp611
g16
atp612
Rp613
sS'samples'
p614
g3
((lp615
g11
atp616
Rp617
sS'alListenerfv'
p618
g3
((lp619
g16
atp620
Rp621
sS'alGetSourcei'
p622
g3
((lp623
g16
atp624
Rp625
sS'volume'
p626
g3
((lp627
g11
atp628
Rp629
sS'getLoop'
p630
g3
((lp631
g25
atp632
Rp633
sS'alGetListener3i'
p634
g3
((lp635
g16
atp636
Rp637
sS'alGetString'
p638
g3
((lp639
g16
atp640
Rp641
sS'asSeconds'
p642
g3
((lp643
g25
atp644
Rp645
sS'getMinDistance'
p646
g3
((lp647
g25
atp648
Rp649
sS'line'
p650
g3
((lp651
g11
atp652
Rp653
sS'Z'
p654
g3
((lp655
g11
atp656
Rp657
sS'alcGetContextsDevice'
p658
g3
((lp659
g16
atp660
Rp661
sS'alGetListener3f'
p662
g3
((lp663
g16
atp664
Rp665
sS'getPosition'
p666
g3
((lp667
g25
atp668
Rp669
sS'alGenSources'
p670
g3
((lp671
g16
atp672
Rp673
sS'sound'
p674
g3
((lp675
g11
atp676
Rp677
sS'relative'
p678
g3
((lp679
g11
atp680
Rp681
sS'alGetFloat'
p682
g3
((lp683
g16
atp684
Rp685
sS'ALCcontext_struct'
p686
g3
((lp687
g134
atp688
Rp689
sS'device'
p690
g3
((lp691
g11
atp692
Rp693
sS'resetBuffer'
p694
g3
((lp695
g25
atp696
Rp697
sS'value'
p698
g3
((lp699
g11
atp700
Rp701
sS'extname'
p702
g3
((lp703
g11
atp704
Rp705
sS'setMinDistance'
p706
g3
((lp707
g25
atp708
Rp709
sS'values'
p710
g3
((lp711
g11
atp712
Rp713
sS'alGetIntegerv'
p714
g3
((lp715
g16
atp716
Rp717
sS'setPitch'
p718
g3
((lp719
g25
atp720
Rp721
sS'z'
p722
g3
((lp723
g52
ag11
atp724
Rp725
sS'loop'
p726
g3
((lp727
g73
ag11
atp728
Rp729
sS'distance'
p730
g3
((lp731
g11
atp732
Rp733
sS'ename'
p734
g3
((lp735
g11
atp736
Rp737
sS'vector'
p738
g3
((lp739
g11
atp740
Rp741
sS'asMicroseconds'
p742
g3
((lp743
g25
atp744
Rp745
sS'stream'
p746
g3
((lp747
g11
atp748
Rp749
sS'alDopplerFactor'
p750
g3
((lp751
g16
atp752
Rp753
sS'getVolume'
p754
g3
((lp755
g25
atp756
Rp757
sS'alBufferiv'
p758
g3
((lp759
g16
atp760
Rp761
sS'alDeleteSources'
p762
g3
((lp763
g16
atp764
Rp765
sS'file'
p766
g3
((lp767
g11
atp768
Rp769
sS'saveToFile'
p770
g3
((lp771
g25
atp772
Rp773
sS'alSourcePause'
p774
g3
((lp775
g16
atp776
Rp777
sS'alGenBuffers'
p778
g3
((lp779
g16
atp780
Rp781
sS'distanceModel'
p782
g3
((lp783
g11
atp784
Rp785
sS'alcProcessContext'
p786
g3
((lp787
g16
atp788
Rp789
sS'alBufferData'
p790
g3
((lp791
g16
atp792
Rp793
sS'setBuffer'
p794
g3
((lp795
g25
atp796
Rp797
sS'nb'
p798
g3
((lp799
g11
atp800
Rp801
sS'alIsExtensionPresent'
p802
g3
((lp803
g16
atp804
Rp805
sS'amount'
p806
g3
((lp807
g11
atp808
Rp809
sS'alcCaptureStop'
p810
g3
((lp811
g16
atp812
Rp813
sS'InputSoundFile'
p814
g3
((lp815
g30
atp816
Rp817
sS'm_samples'
p818
g3
((lp819
g52
atp820
Rp821
sS'alDopplerVelocity'
p822
g3
((lp823
g16
atp824
Rp825
sS'fname'
p826
g3
((lp827
g11
atp828
Rp829
sS'isRelativeToListener'
p830
g3
((lp831
g25
atp832
Rp833
sS'alIsSource'
p834
g3
((lp835
g16
atp836
Rp837
sS'getPlayingOffset'
p838
g3
((lp839
g25
atp840
Rp841
sS'attrlist'
p842
g3
((lp843
g11
atp844
Rp845
sS'play'
p846
g3
((lp847
g25
atp848
Rp849
sS'attenuation'
p850
g3
((lp851
g11
atp852
Rp853
sS'buffer'
p854
g3
((lp855
g11
atp856
Rp857
sS'update'
p858
g3
((lp859
g25
atp860
Rp861
sS'setRelativeToListener'
p862
g3
((lp863
g25
atp864
Rp865
sS'x'
p866
g3
((lp867
g52
ag11
atp868
Rp869
sS'alGetDoublev'
p870
g3
((lp871
g16
atp872
Rp873
sS'alSourcePlayv'
p874
g3
((lp875
g16
atp876
Rp877
sS'alcGetError'
p878
g3
((lp879
g16
atp880
Rp881
sS'data'
p882
g3
((lp883
g11
atp884
Rp885
sS'sampleRate'
p886
g3
((lp887
g11
atp888
Rp889
sS'SoundSource'
p890
g3
((lp891
g30
ag31
atp892
Rp893
sS'alGetSource3f'
p894
g3
((lp895
g16
atp896
Rp897
sS'alSourcei'
p898
g3
((lp899
g16
atp900
Rp901
sS'alGetBooleanv'
p902
g3
((lp903
g16
atp904
Rp905
sS'alGetInteger'
p906
g3
((lp907
g16
atp908
Rp909
sS'alcSuspendContext'
p910
g3
((lp911
g16
atp912
Rp913
sS'alcGetEnumValue'
p914
g3
((lp915
g16
atp916
Rp917
sS'asMilliseconds'
p918
g3
((lp919
g25
atp920
Rp921
sS'alGetSource3i'
p922
g3
((lp923
g16
atp924
Rp925
sS'secs'
p926
g3
((lp927
g73
atp928
Rp929
sS'microseconds'
p930
g3
((lp931
g16
ag11
atp932
Rp933
sS'y'
p934
g3
((lp935
g52
ag11
atp936
Rp937
sS'operator*='
p938
g3
((lp939
g16
atp940
Rp941
sS'loadFromStream'
p942
g3
((lp943
g25
atp944
Rp945
sS'left'
p946
g3
((lp947
g11
atp948
Rp949
ssS'static_attribute'
p950
g2
(g3
tp951
Rp952
S'comment'
p953
g3
((lp954
S'comment_token'
p955
atp956
Rp957
sS'predecessor'
p958
g3
((lp959
S'has_parent'
p960
atp961
Rp962
sS'linkage_kind'
p963
g3
((lp964
S'linkage_kind'
p965
atp966
Rp967
sS'defined'
p968
g3
((lp969
S'is_defined_file'
p970
atp971
Rp972
sS'parameter types'
p973
g3
((lp974
S'param_type'
p975
atp976
Rp977
sS'target application'
p978
g3
((lp979
S'PROBLEM_DOMAIN'
p980
atp981
Rp982
sS'defined in'
p983
g3
((lp984
g970
atp985
Rp986
sS'primitive data type'
p987
g3
((lp988
S'type'
p989
atp990
Rp991
sS'used'
p992
g3
((lp993
S'is_called_file'
p994
atp995
Rp996
sS'comments'
p997
g3
((lp998
g955
atp999
Rp1000
sS'possibly read'
p1001
g3
((lp1002
S'isRead_file_line'
p1003
atp1004
Rp1005
sS'return'
p1006
g3
((lp1007
S'return_type'
p1008
atp1009
Rp1010
sS'may be written'
p1011
g3
((lp1012
S'isWritten_file_line'
p1013
atp1014
Rp1015
sS'pointer'
p1016
g3
((lp1017
S'is_pointer'
p1018
atp1019
Rp1020
sS'id'
p1021
g3
((lp1022
S'id'
p1023
atp1024
Rp1025
sS'defined file'
p1026
g3
((lp1027
g970
atp1028
Rp1029
sS'child class'
p1030
g3
((lp1031
S'is_subclass_of'
p1032
atp1033
Rp1034
sS'application specific'
p1035
g3
((lp1036
g980
atp1037
Rp1038
sS'invoked'
p1039
g3
((lp1040
g994
atp1041
Rp1042
sS'display_name'
p1043
g3
((lp1044
S'display_name'
p1045
atp1046
Rp1047
sS'belongs to'
p1048
g3
((lp1049
g970
atp1050
Rp1051
sS'parent function'
p1052
g3
((lp1053
g960
atp1054
Rp1055
sS'called in'
p1056
g3
((lp1057
g994
atp1058
Rp1059
sS'task specific'
p1060
g3
((lp1061
g980
atp1062
Rp1063
sS'subclass'
p1064
g3
((lp1065
g1032
atp1066
Rp1067
sS'access_specifier'
p1068
g3
((lp1069
S'access_specifier'
p1070
atp1071
Rp1072
sS'start line'
p1073
g3
((lp1074
S'isDef_file_line'
p1075
atp1076
Rp1077
sS'call'
p1078
g3
((lp1079
g994
atp1080
Rp1081
sS'usr'
p1082
g3
((lp1083
S'usr'
p1084
atp1085
Rp1086
sS'call expression'
p1087
g3
((lp1088
g994
atp1089
Rp1090
sS'scope'
p1091
g3
((lp1092
S'storage_class'
p1093
atp1094
Rp1095
sS'isDecl'
p1096
g3
((lp1097
S'isDecl'
p1098
atp1099
Rp1100
sS'descendant'
p1101
g3
((lp1102
S'has_child'
p1103
atp1104
Rp1105
sS'type'
p1106
g3
((lp1107
S'type'
p1108
atp1109
Rp1110
sS'funcargs'
p1111
g3
((lp1112
S'funcargs'
p1113
atp1114
Rp1115
sS'return value'
p1116
g3
((lp1117
g1008
atp1118
Rp1119
sS'call location'
p1120
g3
((lp1121
S'isCall_file_line'
p1122
atp1123
Rp1124
sS'may be read'
p1125
g3
((lp1126
g1003
atp1127
Rp1128
sS'size array'
p1129
g3
((lp1130
S'array_size'
p1131
atp1132
Rp1133
sS'lex_parent_id'
p1134
g3
((lp1135
S'lex_parent_id'
p1136
atp1137
Rp1138
sS'isCXXVirtual'
p1139
g3
((lp1140
S'isCXXVirtual'
p1141
atp1142
Rp1143
sS'parent'
p1144
g3
((lp1145
g960
atp1146
Rp1147
sS'primitive type'
p1148
g3
((lp1149
g989
atp1150
Rp1151
sS'application domain'
p1152
g3
((lp1153
g980
atp1154
Rp1155
sS'friend class'
p1156
g3
((lp1157
S'is_friend_of'
p1158
atp1159
Rp1160
sS'friend of'
p1161
g3
((lp1162
g1158
atp1163
Rp1164
sS'range.end'
p1165
g3
((lp1166
S'range.end'
p1167
atp1168
Rp1169
sS'line'
p1170
g3
((lp1171
S'line'
p1172
atp1173
Rp1174
sS'pointers'
p1175
g3
((lp1176
g1018
atp1177
Rp1178
sS'visibility'
p1179
g3
((lp1180
g1093
atp1181
Rp1182
sS'linkage_name'
p1183
g3
((lp1184
S'linkage_name'
p1185
atp1186
Rp1187
sS'multiple inheritance'
p1188
g3
((lp1189
S'multiple_inheritance'
p1190
atp1191
Rp1192
sS'isCXXPureVirtual'
p1193
g3
((lp1194
S'isCXXPureVirtual'
p1195
atp1196
Rp1197
sS'child'
p1198
g3
((lp1199
g1103
atp1200
Rp1201
sS'data type'
p1202
g3
((lp1203
g989
atp1204
Rp1205
sS'return_type'
p1206
g3
((lp1207
S'return_type'
p1208
atp1209
Rp1210
sS'multidimensional arrays'
p1211
g3
((lp1212
S'is_multi_dimensional_array'
p1213
atp1214
Rp1215
sS'present'
p1216
g3
((lp1217
g970
atp1218
Rp1219
sS'successor'
p1220
g3
((lp1221
g1103
atp1222
Rp1223
sS'spelling'
p1224
g3
((lp1225
S'spelling'
p1226
atp1227
Rp1228
sS'sem_parent_id'
p1229
g3
((lp1230
S'sem_parent_id'
p1231
atp1232
Rp1233
sS'name'
p1234
g3
((lp1235
S'spelling'
p1236
atp1237
Rp1238
sS'def_id'
p1239
g3
((lp1240
S'def_id'
p1241
atp1242
Rp1243
sS'datatype'
p1244
g3
((lp1245
g989
atp1246
Rp1247
sS'range.start'
p1248
g3
((lp1249
S'range.start'
p1250
atp1251
Rp1252
sS'return type'
p1253
g3
((lp1254
g1008
atp1255
Rp1256
sS'array'
p1257
g3
((lp1258
S'is_array'
p1259
atp1260
Rp1261
sS'called'
p1262
g3
((lp1263
g994
atp1264
Rp1265
sS'isDef'
p1266
g3
((lp1267
S'isDef'
p1268
atp1269
Rp1270
sS'arrays'
p1271
g3
((lp1272
g1259
atp1273
Rp1274
sS'storage_class'
p1275
g3
((lp1276
S'storage_class'
p1277
atp1278
Rp1279
sS'storage class'
p1280
g3
((lp1281
g1093
atp1282
Rp1283
sS'possible read-write'
p1284
g3
((lp1285
g1013
ag1003
atp1286
Rp1287
sS'signature'
p1288
g3
((lp1289
g989
atp1290
Rp1291
sS'friend function'
p1292
g3
((lp1293
g1158
atp1294
Rp1295
sS'accessed'
p1296
g3
((lp1297
g994
atp1298
Rp1299
sS'abstract type'
p1300
g3
((lp1301
g989
atp1302
Rp1303
sS'possibly written'
p1304
g3
((lp1305
g1013
atp1306
Rp1307
sS'col'
p1308
g3
((lp1309
S'col'
p1310
atp1311
Rp1312
sS'application task'
p1313
g3
((lp1314
g980
atp1315
Rp1316
ssS'dynamic_attribute'
p1317
g2
(g3
tp1318
Rp1319
S'CALLERNAME'
p1320
g3
((lp1321
g1320
atp1322
Rp1323
sS'synchronous'
p1324
g3
((lp1325
S'sync'
p1326
atp1327
Rp1328
sS'write count'
p1329
g3
((lp1330
S'WRITECOUNT'
p1331
atp1332
Rp1333
sS'call sequence'
p1334
g3
((lp1335
S'callee_name'
p1336
atp1337
Rp1338
sS'asynchronous'
p1339
g3
((lp1340
g1326
atp1341
Rp1342
sS'thread id'
p1343
g3
((lp1344
S'thread_id'
p1345
atp1346
Rp1347
sS'synchronised'
p1348
g3
((lp1349
g1326
atp1350
Rp1351
sg1039
g3
((lp1352
g1336
atp1353
Rp1354
sS'thread number'
p1355
g3
((lp1356
g1345
atp1357
Rp1358
sS'unsynchronized'
p1359
g3
((lp1360
g1326
atp1361
Rp1362
sS'asynchronised'
p1363
g3
((lp1364
g1326
atp1365
Rp1366
sS'invocation graph'
p1367
g3
((lp1368
g1336
atp1369
Rp1370
sS'write'
p1371
g3
((lp1372
S'NONLOCALWRITE'
p1373
aS'write_count'
p1374
atp1375
Rp1376
sS'written'
p1377
g3
((lp1378
g1373
ag1374
atp1379
Rp1380
sS'mutex'
p1381
g3
((lp1382
S'posix_lock'
p1383
atp1384
Rp1385
sS'invoker'
p1386
g3
((lp1387
S'caller_name'
p1388
atp1389
Rp1390
sS'call graph'
p1391
g3
((lp1392
g1336
atp1393
Rp1394
sS'invocation sequence'
p1395
g3
((lp1396
g1336
atp1397
Rp1398
sS'thread access'
p1399
g3
((lp1400
g1345
atp1401
Rp1402
sS'updated'
p1403
g3
((lp1404
g1373
ag1374
atp1405
Rp1406
sS'CALLEENAME'
p1407
g3
((lp1408
g1407
atp1409
Rp1410
sS'synchronized'
p1411
g3
((lp1412
g1326
atp1413
Rp1414
sS'thread-id'
p1415
g3
((lp1416
S'THREADID'
p1417
atp1418
Rp1419
sS'read'
p1420
g3
((lp1421
S'NONLOCALREAD'
p1422
aS'read_count'
p1423
atp1424
Rp1425
sS'child function'
p1426
g3
((lp1427
g1336
atp1428
Rp1429
sS'update'
p1430
g3
((lp1431
g1373
ag1374
atp1432
Rp1433
sS'read-write'
p1434
g3
((lp1435
g1422
ag1373
ag1423
ag1374
atp1436
Rp1437
sS'read write'
p1438
g3
((lp1439
g1422
ag1373
ag1423
ag1374
atp1440
Rp1441
sS'threads'
p1442
g3
((lp1443
g1345
atp1444
Rp1445
sS'function call graph'
p1446
g3
((lp1447
g1336
atp1448
Rp1449
sS'asynchronized'
p1450
g3
((lp1451
g1326
atp1452
Rp1453
sS'unsynchronous'
p1454
g3
((lp1455
g1326
atp1456
Rp1457
sS'thread'
p1458
g3
((lp1459
g1345
atp1460
Rp1461
sS'caller'
p1462
g3
((lp1463
g1388
atp1464
Rp1465
sS'return value'
p1466
g3
((lp1467
S'RETVAL'
p1468
atp1469
Rp1470
sS'unsynchronised'
p1471
g3
((lp1472
g1326
atp1473
Rp1474
sS'read count'
p1475
g3
((lp1476
S'READCOUNT'
p1477
atp1478
Rp1479
sS'callee'
p1480
g3
((lp1481
g1336
atp1482
Rp1483
sg1262
g3
((lp1484
g1336
atp1485
Rp1486
ssS'values'
p1487
g2
(g3
tp1488
Rp1489
S'void (ALuint)'
p1490
g3
((lp1491
S'type'
p1492
atp1493
Rp1494
sS'sf::Time'
p1495
g3
((lp1496
S'return_type'
p1497
aS'type'
p1498
atp1499
Rp1500
sS'void (ALuint, ALenum, ALfloat *, ALfloat *, ALfloat *)'
p1501
g3
((lp1502
S'type'
p1503
atp1504
Rp1505
sS'void (sf::Sound *) const'
p1506
g3
((lp1507
S'type'
p1508
atp1509
Rp1510
sS'void (ALuint, ALenum, ALfloat)'
p1511
g3
((lp1512
S'type'
p1513
atp1514
Rp1515
sS'float () const'
p1516
g3
((lp1517
S'type'
p1518
atp1519
Rp1520
sS'ALuint'
p1521
g3
((lp1522
S'type'
p1523
atp1524
Rp1525
sS'ALint'
p1526
g3
((lp1527
S'return_type'
p1528
aS'type'
p1529
atp1530
Rp1531
sS'ALfloat *'
p1532
g3
((lp1533
S'type'
p1534
atp1535
Rp1536
sS'Public'
p1537
g3
((lp1538
S'access_specifier'
p1539
atp1540
Rp1541
sS'sf::Time &(sf::Time &, sf::Time)'
p1542
g3
((lp1543
S'type'
p1544
atp1545
Rp1546
sS'void (ALuint, ALenum, ALint)'
p1547
g3
((lp1548
S'type'
p1549
atp1550
Rp1551
sS'void (sf::Int64)'
p1552
g3
((lp1553
S'type'
p1554
atp1555
Rp1556
sS'sf::Time (sf::Int64)'
p1557
g3
((lp1558
S'type'
p1559
atp1560
Rp1561
sS'ALenum'
p1562
g3
((lp1563
S'return_type'
p1564
aS'type'
p1565
atp1566
Rp1567
sS'sf::Time &(sf::Time &, sf::Int64)'
p1568
g3
((lp1569
S'type'
p1570
atp1571
Rp1572
sS'const char *'
p1573
g3
((lp1574
S'type'
p1575
atp1576
Rp1577
sS'ALCdevice_struct'
p1578
g3
((lp1579
S'type'
p1580
atp1581
Rp1582
sS'sf::Time (sf::Time)'
p1583
g3
((lp1584
S'type'
p1585
atp1586
Rp1587
sS'void (ALfloat)'
p1588
g3
((lp1589
S'type'
p1590
atp1591
Rp1592
sS'sf::Time () const'
p1593
g3
((lp1594
S'type'
p1595
atp1596
Rp1597
sS'const ALchar *'
p1598
g3
((lp1599
S'return_type'
p1600
aS'type'
p1601
atp1602
Rp1603
sS'void'
p1604
g3
((lp1605
S'return_type'
p1606
atp1607
Rp1608
sS'void (ALenum, ALdouble *)'
p1609
g3
((lp1610
S'type'
p1611
atp1612
Rp1613
sS'float (sf::Time, sf::Time)'
p1614
g3
((lp1615
S'type'
p1616
atp1617
Rp1618
sS'Protected'
p1619
g3
((lp1620
S'access_specifier'
p1621
atp1622
Rp1623
sS'T'
p1624
g3
((lp1625
S'type'
p1626
atp1627
Rp1628
sS'void (ALuint, ALenum, const ALint *)'
p1629
g3
((lp1630
S'type'
p1631
atp1632
Rp1633
sS'sf::Time (sf::Time, sf::Time)'
p1634
g3
((lp1635
S'type'
p1636
atp1637
Rp1638
sS'sf::InputSoundFile &'
p1639
g3
((lp1640
S'type'
p1641
atp1642
Rp1643
sS'bool (const void *, std::size_t)'
p1644
g3
((lp1645
S'type'
p1646
atp1647
Rp1648
sS'Sound::Status () const'
p1649
g3
((lp1650
S'type'
p1651
atp1652
Rp1653
sS'sf::SoundSource &(const sf::SoundSource &)'
p1654
g3
((lp1655
S'type'
p1656
atp1657
Rp1658
sS'bool (const std::string &)'
p1659
g3
((lp1660
S'type'
p1661
atp1662
Rp1663
sS'sf::Int64'
p1664
g3
((lp1665
S'return_type'
p1666
aS'type'
p1667
atp1668
Rp1669
sS'void (ALenum, ALfloat, ALfloat, ALfloat)'
p1670
g3
((lp1671
S'type'
p1672
atp1673
Rp1674
sS'sf::Uint64'
p1675
g3
((lp1676
S'return_type'
p1677
aS'type'
p1678
atp1679
Rp1680
sS'bool (unsigned int, unsigned int)'
p1681
g3
((lp1682
S'type'
p1683
atp1684
Rp1685
sS'sf::Sound *'
p1686
g3
((lp1687
S'type'
p1688
atp1689
Rp1690
sS'void (ALCdevice *, ALCenum, ALCsizei, ALCint *)'
p1691
g3
((lp1692
S'type'
p1693
atp1694
Rp1695
sS'ALCcontext *'
p1696
g3
((lp1697
S'return_type'
p1698
aS'type'
p1699
atp1700
Rp1701
sS'void (ALenum, ALint, ALint, ALint)'
p1702
g3
((lp1703
S'type'
p1704
atp1705
Rp1706
sS'void (bool)'
p1707
g3
((lp1708
S'type'
p1709
atp1710
Rp1711
sS'ALCuint'
p1712
g3
((lp1713
S'type'
p1714
atp1715
Rp1716
sS'ALCcontext *(ALCdevice *, const ALCint *)'
p1717
g3
((lp1718
S'type'
p1719
atp1720
Rp1721
sS'sf::SoundBuffer::SoundList'
p1722
g3
((lp1723
S'type'
p1724
atp1725
Rp1726
sS'void (ALenum, ALint *, ALint *, ALint *)'
p1727
g3
((lp1728
S'type'
p1729
atp1730
Rp1731
sS'void (ALenum, ALboolean *)'
p1732
g3
((lp1733
S'type'
p1734
atp1735
Rp1736
sS'ALCcontext_struct'
p1737
g3
((lp1738
S'type'
p1739
atp1740
Rp1741
sS'void (ALenum, const ALint *)'
p1742
g3
((lp1743
S'type'
p1744
atp1745
Rp1746
sS'static'
p1747
g3
((lp1748
S'storage_class'
p1749
atp1750
Rp1751
sS'void *(ALCdevice *, const ALCchar *)'
p1752
g3
((lp1753
S'type'
p1754
atp1755
Rp1756
sS'ALCvoid *'
p1757
g3
((lp1758
S'type'
p1759
atp1760
Rp1761
sS'const ALvoid *'
p1762
g3
((lp1763
S'type'
p1764
atp1765
Rp1766
sS'sf::Time (float)'
p1767
g3
((lp1768
S'type'
p1769
atp1770
Rp1771
sS'sf::Uint64 () const'
p1772
g3
((lp1773
S'type'
p1774
atp1775
Rp1776
sS'void (ALuint, ALenum, const ALfloat *)'
p1777
g3
((lp1778
S'type'
p1779
atp1780
Rp1781
sS'sf::Time &'
p1782
g3
((lp1783
S'return_type'
p1784
aS'type'
p1785
atp1786
Rp1787
sS'ALCboolean'
p1788
g3
((lp1789
S'return_type'
p1790
atp1791
Rp1792
sS'void *(const ALchar *)'
p1793
g3
((lp1794
S'type'
p1795
atp1796
Rp1797
sS'sf::Sound'
p1798
g3
((lp1799
S'type'
p1800
atp1801
Rp1802
sS'bool (sf::Time, sf::Time)'
p1803
g3
((lp1804
S'type'
p1805
atp1806
Rp1807
sS'bool () const'
p1808
g3
((lp1809
S'type'
p1810
atp1811
Rp1812
sS'const sf::Vector3f &'
p1813
g3
((lp1814
S'type'
p1815
atp1816
Rp1817
sS'ALboolean (const ALchar *)'
p1818
g3
((lp1819
S'type'
p1820
atp1821
Rp1822
sS'sf::InputSoundFile'
p1823
g3
((lp1824
S'type'
p1825
atp1826
Rp1827
sS'const sf::SoundBuffer &'
p1828
g3
((lp1829
S'type'
p1830
atp1831
Rp1832
sS'sf::SoundBuffer &(const sf::SoundBuffer &)'
p1833
g3
((lp1834
S'type'
p1835
atp1836
Rp1837
sS'bool (const sf::Int16 *, sf::Uint64, unsigned int, unsigned int)'
p1838
g3
((lp1839
S'type'
p1840
atp1841
Rp1842
sS'void (sf::Time)'
p1843
g3
((lp1844
S'type'
p1845
atp1846
Rp1847
sS'void ()'
p1848
g3
((lp1849
S'type'
p1850
atp1851
Rp1852
sS'const ALCchar *'
p1853
g3
((lp1854
S'return_type'
p1855
aS'type'
p1856
atp1857
Rp1858
sS'sf::Sound &(const sf::Sound &)'
p1859
g3
((lp1860
S'type'
p1861
atp1862
Rp1863
sS'const sf::SoundBuffer *'
p1864
g3
((lp1865
S'return_type'
p1866
aS'type'
p1867
atp1868
Rp1869
sS'void (ALuint, ALenum, ALfloat, ALfloat, ALfloat)'
p1870
g3
((lp1871
S'type'
p1872
atp1873
Rp1874
sS'sf::Vector3f () const'
p1875
g3
((lp1876
S'type'
p1877
atp1878
Rp1879
sS'ALboolean *'
p1880
g3
((lp1881
S'type'
p1882
atp1883
Rp1884
sS'const Vector3<U> &'
p1885
g3
((lp1886
S'type'
p1887
atp1888
Rp1889
sS'sf::Sound &'
p1890
g3
((lp1891
S'return_type'
p1892
atp1893
Rp1894
sS'ALCboolean (ALCdevice *, const ALCchar *)'
p1895
g3
((lp1896
S'type'
p1897
atp1898
Rp1899
sS'unsigned int'
p1900
g3
((lp1901
S'return_type'
p1902
aS'type'
p1903
atp1904
Rp1905
sS'void (ALuint, ALsizei, ALuint *)'
p1906
g3
((lp1907
S'type'
p1908
atp1909
Rp1910
sS'void (ALenum)'
p1911
g3
((lp1912
S'type'
p1913
atp1914
Rp1915
sS'sf::Time (sf::Int32)'
p1916
g3
((lp1917
S'type'
p1918
atp1919
Rp1920
sS'void (ALenum, ALfloat *)'
p1921
g3
((lp1922
S'type'
p1923
atp1924
Rp1925
sS'ALuint *'
p1926
g3
((lp1927
S'type'
p1928
atp1929
Rp1930
sS'sf::AlResource'
p1931
g3
((lp1932
S'type'
p1933
atp1934
Rp1935
sS'sf::SoundSource &'
p1936
g3
((lp1937
S'return_type'
p1938
atp1939
Rp1940
sS'Vector3<T> &'
p1941
g3
((lp1942
S'type'
p1943
atp1944
Rp1945
sS'void (ALuint, ALenum, ALint *)'
p1946
g3
((lp1947
S'type'
p1948
atp1949
Rp1950
sS'const ALCchar *(ALCdevice *, ALCenum)'
p1951
g3
((lp1952
S'type'
p1953
atp1954
Rp1955
sS'ALCboolean (ALCcontext *)'
p1956
g3
((lp1957
S'type'
p1958
atp1959
Rp1960
sS'const Vector3<T> &'
p1961
g3
((lp1962
S'type'
p1963
atp1964
Rp1965
sS'void (ALuint, ALenum, ALfloat *)'
p1966
g3
((lp1967
S'type'
p1968
atp1969
Rp1970
sS'const sf::SoundBuffer *() const'
p1971
g3
((lp1972
S'type'
p1973
atp1974
Rp1975
sS'const void *'
p1976
g3
((lp1977
S'type'
p1978
atp1979
Rp1980
sS'float'
p1981
g3
((lp1982
S'return_type'
p1983
aS'type'
p1984
atp1985
Rp1986
sS'ALCdevice *(const ALCchar *)'
p1987
g3
((lp1988
S'type'
p1989
atp1990
Rp1991
sS'sf::Time (sf::Time, float)'
p1992
g3
((lp1993
S'type'
p1994
atp1995
Rp1996
sS'default_auto'
p1997
g3
((lp1998
S'storage_class'
p1999
atp2000
Rp2001
sS'extern'
p2002
g3
((lp2003
S'storage_class'
p2004
atp2005
Rp2006
sS'void (ALuint, ALenum, const ALvoid *, ALsizei, ALsizei)'
p2007
g3
((lp2008
S'type'
p2009
atp2010
Rp2011
sS'void (const sf::Vector3f &)'
p2012
g3
((lp2013
S'type'
p2014
atp2015
Rp2016
sS'sf::Int64 () const'
p2017
g3
((lp2018
S'type'
p2019
atp2020
Rp2021
sS'void (const sf::SoundBuffer &)'
p2022
g3
((lp2023
S'type'
p2024
atp2025
Rp2026
sS'sf::SoundSource::Status'
p2027
g3
((lp2028
S'return_type'
p2029
aS'type'
p2030
atp2031
Rp2032
sS'void (T, T, T)'
p2033
g3
((lp2034
S'type'
p2035
atp2036
Rp2037
sS'void (ALenum, ALint)'
p2038
g3
((lp2039
S'type'
p2040
atp2041
Rp2042
sS'const ALfloat *'
p2043
g3
((lp2044
S'type'
p2045
atp2046
Rp2047
sS'ALboolean (ALenum)'
p2048
g3
((lp2049
S'type'
p2050
atp2051
Rp2052
sS'ALCenum (ALCdevice *, const ALCchar *)'
p2053
g3
((lp2054
S'type'
p2055
atp2056
Rp2057
sS'ALsizei'
p2058
g3
((lp2059
S'type'
p2060
atp2061
Rp2062
sS'void (ALenum, ALint *)'
p2063
g3
((lp2064
S'type'
p2065
atp2066
Rp2067
sS'ALint (ALenum)'
p2068
g3
((lp2069
S'type'
p2070
atp2071
Rp2072
sS'ALenum ()'
p2073
g3
((lp2074
S'type'
p2075
atp2076
Rp2077
sS'void (const sf::Sound &)'
p2078
g3
((lp2079
S'type'
p2080
atp2081
Rp2082
sS'const std::string &'
p2083
g3
((lp2084
S'type'
p2085
atp2086
Rp2087
sS'sf::InputStream'
p2088
g3
((lp2089
S'type'
p2090
atp2091
Rp2092
sS'unsigned int () const'
p2093
g3
((lp2094
S'type'
p2095
atp2096
Rp2097
sS'std::vector<Int16>'
p2098
g3
((lp2099
S'type'
p2100
atp2101
Rp2102
sS'void (ALCdevice *)'
p2103
g3
((lp2104
S'type'
p2105
atp2106
Rp2107
sS'sf::Time (sf::Int64, sf::Time)'
p2108
g3
((lp2109
S'type'
p2110
atp2111
Rp2112
sS'bool (sf::InputSoundFile &)'
p2113
g3
((lp2114
S'type'
p2115
atp2116
Rp2117
sS'ALenum (const ALchar *)'
p2118
g3
((lp2119
S'type'
p2120
atp2121
Rp2122
sS'void (const sf::SoundSource &)'
p2123
g3
((lp2124
S'type'
p2125
atp2126
Rp2127
sS'sf::SoundSource::Status () const'
p2128
g3
((lp2129
S'type'
p2130
atp2131
Rp2132
sS'bool (sf::InputStream &)'
p2133
g3
((lp2134
S'type'
p2135
atp2136
Rp2137
sS'ALfloat (ALenum)'
p2138
g3
((lp2139
S'type'
p2140
atp2141
Rp2142
sS'Sound::Status'
p2143
g3
((lp2144
S'return_type'
p2145
atp2146
Rp2147
sS'ALint *'
p2148
g3
((lp2149
S'type'
p2150
atp2151
Rp2152
sS'void *'
p2153
g3
((lp2154
S'return_type'
p2155
atp2156
Rp2157
sS'sf::Vector3f'
p2158
g3
((lp2159
S'return_type'
p2160
atp2161
Rp2162
sS'ALCdevice *'
p2163
g3
((lp2164
S'return_type'
p2165
aS'type'
p2166
atp2167
Rp2168
sS'std::size_t'
p2169
g3
((lp2170
S'type'
p2171
atp2172
Rp2173
sS'void (ALuint, ALenum, ALint *, ALint *, ALint *)'
p2174
g3
((lp2175
S'type'
p2176
atp2177
Rp2178
sS'ALCdevice *(ALCcontext *)'
p2179
g3
((lp2180
S'type'
p2181
atp2182
Rp2183
sS'ALCsizei'
p2184
g3
((lp2185
S'type'
p2186
atp2187
Rp2188
sS'void (float)'
p2189
g3
((lp2190
S'type'
p2191
atp2192
Rp2193
sS'void (ALuint, ALsizei, const ALuint *)'
p2194
g3
((lp2195
S'type'
p2196
atp2197
Rp2198
sS'ALfloat'
p2199
g3
((lp2200
S'return_type'
p2201
aS'type'
p2202
atp2203
Rp2204
sS'const sf::SoundSource &'
p2205
g3
((lp2206
S'type'
p2207
atp2208
Rp2209
sS'bool (const std::string &) const'
p2210
g3
((lp2211
S'type'
p2212
atp2213
Rp2214
sS'ALboolean'
p2215
g3
((lp2216
S'return_type'
p2217
atp2218
Rp2219
sS'sf::SoundBuffer &'
p2220
g3
((lp2221
S'return_type'
p2222
atp2223
Rp2224
sS'const sf::Time'
p2225
g3
((lp2226
S'type'
p2227
atp2228
Rp2229
sS'ALCint *'
p2230
g3
((lp2231
S'type'
p2232
atp2233
Rp2234
sS'sf::SoundSource'
p2235
g3
((lp2236
S'type'
p2237
atp2238
Rp2239
sS'bool'
p2240
g3
((lp2241
S'return_type'
p2242
aS'type'
p2243
atp2244
Rp2245
sS'sf::Time (float, sf::Time)'
p2246
g3
((lp2247
S'type'
p2248
atp2249
Rp2250
sS'const ALint *'
p2251
g3
((lp2252
S'type'
p2253
atp2254
Rp2255
sS'sf::Int32'
p2256
g3
((lp2257
S'return_type'
p2258
aS'type'
p2259
atp2260
Rp2261
sS'void (const char *, unsigned int, const char *)'
p2262
g3
((lp2263
S'type'
p2264
atp2265
Rp2266
sS'sf::Time &(sf::Time &, float)'
p2267
g3
((lp2268
S'type'
p2269
atp2270
Rp2271
sS'sf::Time (sf::Time, sf::Int64)'
p2272
g3
((lp2273
S'type'
p2274
atp2275
Rp2276
sS'const ALchar *(ALenum)'
p2277
g3
((lp2278
S'type'
p2279
atp2280
Rp2281
sS'ALCcontext *()'
p2282
g3
((lp2283
S'type'
p2284
atp2285
Rp2286
sS'ALCenum (ALCdevice *)'
p2287
g3
((lp2288
S'type'
p2289
atp2290
Rp2291
sS'sf::Int32 () const'
p2292
g3
((lp2293
S'type'
p2294
atp2295
Rp2296
sS'const sf::Int16 *() const'
p2297
g3
((lp2298
S'type'
p2299
atp2300
Rp2301
sS'void (ALsizei, const ALuint *)'
p2302
g3
((lp2303
S'type'
p2304
atp2305
Rp2306
sS'ALdouble *'
p2307
g3
((lp2308
S'type'
p2309
atp2310
Rp2311
sS'void (ALsizei, ALuint *)'
p2312
g3
((lp2313
S'type'
p2314
atp2315
Rp2316
sS'sf::InputStream &'
p2317
g3
((lp2318
S'type'
p2319
atp2320
Rp2321
sS'const ALCint *'
p2322
g3
((lp2323
S'type'
p2324
atp2325
Rp2326
sS'ALdouble'
p2327
g3
((lp2328
S'return_type'
p2329
atp2330
Rp2331
sS'const sf::Int16 *'
p2332
g3
((lp2333
S'return_type'
p2334
aS'type'
p2335
atp2336
Rp2337
sS'ALboolean (ALuint)'
p2338
g3
((lp2339
S'type'
p2340
atp2341
Rp2342
sS'ALCdevice *(const ALCchar *, ALCuint, ALCenum, ALCsizei)'
p2343
g3
((lp2344
S'type'
p2345
atp2346
Rp2347
sS'void (ALenum, const ALfloat *)'
p2348
g3
((lp2349
S'type'
p2350
atp2351
Rp2352
sS'void (ALCcontext *)'
p2353
g3
((lp2354
S'type'
p2355
atp2356
Rp2357
sS'void (ALenum, ALfloat *, ALfloat *, ALfloat *)'
p2358
g3
((lp2359
S'type'
p2360
atp2361
Rp2362
sS'void (ALenum, ALfloat)'
p2363
g3
((lp2364
S'type'
p2365
atp2366
Rp2367
sS'sf::SoundBuffer'
p2368
g3
((lp2369
S'type'
p2370
atp2371
Rp2372
sS'Private'
p2373
g3
((lp2374
S'access_specifier'
p2375
atp2376
Rp2377
sS'ALdouble (ALenum)'
p2378
g3
((lp2379
S'type'
p2380
atp2381
Rp2382
sS'void (float, float, float)'
p2383
g3
((lp2384
S'type'
p2385
atp2386
Rp2387
sS'const sf::Sound &'
p2388
g3
((lp2389
S'type'
p2390
atp2391
Rp2392
sS'const ALuint *'
p2393
g3
((lp2394
S'type'
p2395
atp2396
Rp2397
sS'ALCboolean (ALCdevice *)'
p2398
g3
((lp2399
S'type'
p2400
atp2401
Rp2402
sS'void (ALCdevice *, ALCvoid *, ALCsizei)'
p2403
g3
((lp2404
S'type'
p2405
atp2406
Rp2407
sS'void (ALuint, ALenum, ALint, ALint, ALint)'
p2408
g3
((lp2409
S'type'
p2410
atp2411
Rp2412
sS'ALCenum'
p2413
g3
((lp2414
S'return_type'
p2415
aS'type'
p2416
atp2417
Rp2418
ssS'common_word'
p2419
g2
(g3
tp2420
Rp2421
S'member variables'
p2422
g3
((lp2423
S'StructDecl'
p2424
aS'VarDecl'
p2425
aS'ParmDecl'
p2426
aS'EnumDecl'
p2427
aS'UnionDecl'
p2428
aS'FieldDecl'
p2429
atp2430
Rp2431
sS'Functions'
p2432
g3
((lp2433
S'FunctionDecl'
p2434
aS'CXXMethod'
p2435
aS'CXXConstructor'
p2436
atp2437
Rp2438
sS'methods'
p2439
g3
((lp2440
g2434
ag2435
ag2436
atp2441
Rp2442
sS'global variables'
p2443
g3
((lp2444
g2428
ag2424
ag2425
ag2427
atp2445
Rp2446
sS'variables'
p2447
g3
((lp2448
g2424
ag2425
ag2426
ag2427
ag2428
ag2429
atp2449
Rp2450
sS'constructors'
p2451
g3
((lp2452
g2434
ag2435
ag2436
atp2453
Rp2454
sS'Field'
p2455
g3
((lp2456
g2424
ag2425
ag2426
ag2427
ag2428
ag2429
atp2457
Rp2458
sS'initialiser'
p2459
g3
((lp2460
g2434
ag2435
ag2436
atp2461
Rp2462
sS'Function'
p2463
g3
((lp2464
g2434
ag2435
ag2436
atp2465
Rp2466
sS'functions'
p2467
g3
((lp2468
g2434
ag2435
ag2436
atp2469
Rp2470
sS'parameters'
p2471
g3
((lp2472
g2426
atp2473
Rp2474
sS'instance'
p2475
g3
((lp2476
g2424
ag2425
ag2426
ag2427
ag2428
ag2429
atp2477
Rp2478
sS'destructor'
p2479
g3
((lp2480
g2434
ag2435
ag2436
atp2481
Rp2482
sS'field'
p2483
g3
((lp2484
g2424
ag2425
ag2426
ag2427
ag2428
ag2429
atp2485
Rp2486
sS'datastructure'
p2487
g3
((lp2488
g2424
ag2425
ag2426
ag2427
ag2428
ag2429
atp2489
Rp2490
sS'routine'
p2491
g3
((lp2492
g2434
ag2435
ag2436
atp2493
Rp2494
sS'var'
p2495
g3
((lp2496
g2424
ag2425
ag2426
ag2427
ag2428
ag2429
atp2497
Rp2498
sS'structures'
p2499
g3
((lp2500
g2424
atp2501
Rp2502
sS'method'
p2503
g3
((lp2504
g2434
ag2435
ag2436
atp2505
Rp2506
sS'friend'
p2507
g3
((lp2508
S'FriendDecl'
p2509
atp2510
Rp2511
sS'function'
p2512
g3
((lp2513
g2434
ag2435
ag2436
atp2514
Rp2515
sS'member method'
p2516
g3
((lp2517
g2434
ag2435
ag2436
atp2518
Rp2519
sS'Fields'
p2520
g3
((lp2521
g2424
ag2425
ag2426
ag2427
ag2428
ag2429
atp2522
Rp2523
sS'Variable'
p2524
g3
((lp2525
g2424
ag2425
ag2426
ag2427
ag2428
ag2429
atp2526
Rp2527
sS'func'
p2528
g3
((lp2529
g2434
ag2435
ag2436
atp2530
Rp2531
sS'variable'
p2532
g3
((lp2533
g2424
ag2425
ag2426
ag2427
ag2428
ag2429
atp2534
Rp2535
sS'parameter'
p2536
g3
((lp2537
g2426
atp2538
Rp2539
sS'class'
p2540
g3
((lp2541
S'ClassDecl'
p2542
atp2543
Rp2544
sS'local variables'
p2545
g3
((lp2546
g2429
ag2426
atp2547
Rp2548
sS'fields'
p2549
g3
((lp2550
g2424
ag2425
ag2426
ag2427
ag2428
ag2429
atp2551
Rp2552
sS'Variables'
p2553
g3
((lp2554
g2424
ag2425
ag2426
ag2427
ag2428
ag2429
atp2555
Rp2556
sS'global variable'
p2557
g3
((lp2558
g2428
ag2424
ag2425
ag2427
atp2559
Rp2560
sS'local variable'
p2561
g3
((lp2562
g2429
ag2426
atp2563
Rp2564
sS'item'
p2565
g3
((lp2566
g2424
ag2425
ag2426
ag2427
ag2428
ag2429
atp2567
Rp2568
sS'classes'
p2569
g3
((lp2570
g2542
atp2571
Rp2572
sS'constructor'
p2573
g3
((lp2574
g2434
ag2435
ag2436
atp2575
Rp2576
sS'composite datastructure'
p2577
g3
((lp2578
g2424
ag2425
ag2426
ag2427
ag2428
ag2429
atp2579
Rp2580
sS'computation unit'
p2581
g3
((lp2582
g2434
ag2435
ag2436
atp2583
Rp2584
ss.