(dp0
crdflib.term
Literal
p1
(VVector3.inl
p2
NNtp3
Rp4
g1
(V23
p5
Ncrdflib.term
URIRef
p6
(Vhttp://www.w3.org/2001/XMLSchema#integer
p7
tp8
Rp9
tp10
Rp11
sg1
(Val.h
p12
NNtp13
Rp14
g1
(V180
p15
Ng9
tp16
Rp17
sg1
(Vc++config.h
p18
NNtp19
Rp20
g1
(V2
p21
Ng9
tp22
Rp23
sg1
(Valc.h
p24
NNtp25
Rp26
g1
(V70
p27
Ng9
tp28
Rp29
sg1
(VSoundBuffer.hpp
p30
NNtp31
Rp32
g1
(V37
p33
Ng9
tp34
Rp35
sg1
(Vstl_set.h
p36
NNtp37
Rp38
g1
(V1
p39
Ng9
tp40
Rp41
sg1
(VSoundSource.hpp
p42
NNtp43
Rp44
g1
(V24
p45
Ng9
tp46
Rp47
sg1
(VSound.hpp
p48
NNtp49
Rp50
g1
(V30
p51
Ng9
tp52
Rp53
sg1
(Vstl_vector.h
p54
NNtp55
Rp56
g1
(g39
Ng9
tp57
Rp58
sg1
(VAlResource.hpp
p59
NNtp60
Rp61
g1
(V3
p62
Ng9
tp63
Rp64
sg1
(Vstringfwd.h
p65
NNtp66
Rp67
g1
(g21
Ng9
tp68
Rp69
sg1
(VSound.cpp
p70
NNtp71
Rp72
g1
(V42
p73
Ng9
tp74
Rp75
sg1
(VConfig.hpp
p76
NNtp77
Rp78
g1
(V13
p79
Ng9
tp80
Rp81
sg1
(VTime.hpp
p82
NNtp83
Rp84
g1
(V12
p85
Ng9
tp86
Rp87
sg1
(VVector3.hpp
p88
NNtp89
Rp90
g1
(V27
p91
Ng9
tp92
Rp93
sg1
(VALCheck.hpp
p94
NNtp95
Rp96
g1
(V5
p97
Ng9
tp98
Rp99
s.