ccollections
defaultdict
p0
(c__builtin__
list
p1
tp2
Rp3
S''
p4
(lp5
(S'Vector3.inl'
p6
I0
tp7
a(S'al.h'
p8
I0
tp9
a(S'c++config.h'
p10
I0
tp11
a(S'alc.h'
p12
I0
tp13
a(S'SoundBuffer.hpp'
p14
I0
tp15
a(S'stl_set.h'
p16
I0
tp17
a(S'SoundSource.hpp'
p18
I0
tp19
a(S'Sound.hpp'
p20
I0
tp21
a(S'stl_vector.h'
p22
I0
tp23
a(S'AlResource.hpp'
p24
I0
tp25
a(S'stringfwd.h'
p26
I0
tp27
a(S'Sound.cpp'
p28
I0
tp29
a(S'Time.hpp'
p30
I0
tp31
a(S'ALCheck.hpp'
p32
I0
tp33
a(S'Vector3.hpp'
p34
I0
tp35
a(S'Config.hpp'
p36
I0
tp37
asS'alBuffer3i'
p38
(lp39
(S'al.h'
p40
F0.08888888888888889
tp41
a(S'Vector3.inl'
p42
F0.0
tp43
a(S'c++config.h'
p44
F0.0
tp45
a(S'alc.h'
p46
F0.0
tp47
a(S'SoundBuffer.hpp'
p48
F0.0
tp49
a(S'stl_set.h'
p50
F0.0
tp51
a(S'SoundSource.hpp'
p52
F0.0
tp53
a(S'Sound.hpp'
p54
F0.0
tp55
a(S'stl_vector.h'
p56
F0.0
tp57
a(S'AlResource.hpp'
p58
F0.0
tp59
a(S'stringfwd.h'
p60
F0.0
tp61
a(S'Sound.cpp'
p62
F0.0
tp63
a(S'Time.hpp'
p64
F0.0
tp65
a(S'ALCheck.hpp'
p66
F0.0
tp67
a(S'Vector3.hpp'
p68
F0.0
tp69
a(S'Config.hpp'
p70
F0.0
tp71
asS'alGetFloatv'
p72
(lp73
(S'al.h'
p74
F0.08888888888888889
tp75
a(S'Vector3.inl'
p76
F0.0
tp77
a(S'c++config.h'
p78
F0.0
tp79
a(S'alc.h'
p80
F0.0
tp81
a(S'SoundBuffer.hpp'
p82
F0.0
tp83
a(S'stl_set.h'
p84
F0.0
tp85
a(S'SoundSource.hpp'
p86
F0.0
tp87
a(S'Sound.hpp'
p88
F0.0
tp89
a(S'stl_vector.h'
p90
F0.0
tp91
a(S'AlResource.hpp'
p92
F0.0
tp93
a(S'stringfwd.h'
p94
F0.0
tp95
a(S'Sound.cpp'
p96
F0.0
tp97
a(S'Time.hpp'
p98
F0.0
tp99
a(S'ALCheck.hpp'
p100
F0.0
tp101
a(S'Vector3.hpp'
p102
F0.0
tp103
a(S'Config.hpp'
p104
F0.0
tp105
asS'loadFromFile'
p106
(lp107
(S'Vector3.inl'
p108
I0
tp109
a(S'al.h'
p110
I0
tp111
a(S'c++config.h'
p112
I0
tp113
a(S'alc.h'
p114
I0
tp115
a(S'SoundBuffer.hpp'
p116
I0
tp117
a(S'stl_set.h'
p118
I0
tp119
a(S'SoundSource.hpp'
p120
I0
tp121
a(S'Sound.hpp'
p122
I0
tp123
a(S'stl_vector.h'
p124
I0
tp125
a(S'AlResource.hpp'
p126
I0
tp127
a(S'stringfwd.h'
p128
I0
tp129
a(S'Sound.cpp'
p130
I0
tp131
a(S'Time.hpp'
p132
I0
tp133
a(S'ALCheck.hpp'
p134
I0
tp135
a(S'Vector3.hpp'
p136
I0
tp137
a(S'Config.hpp'
p138
I0
tp139
asS'Time'
p140
(lp141
(S'Time.hpp'
p142
F0.3333333333333333
tp143
a(S'Sound.hpp'
p144
F0.13333333333333333
tp145
a(S'SoundBuffer.hpp'
p146
F0.10810810810810811
tp147
a(S'Sound.cpp'
p148
F0.09523809523809523
tp149
a(S'Vector3.inl'
p150
F0.0
tp151
a(S'al.h'
p152
F0.0
tp153
a(S'c++config.h'
p154
F0.0
tp155
a(S'alc.h'
p156
F0.0
tp157
a(S'stl_set.h'
p158
F0.0
tp159
a(S'SoundSource.hpp'
p160
F0.0
tp161
a(S'stl_vector.h'
p162
F0.0
tp163
a(S'AlResource.hpp'
p164
F0.0
tp165
a(S'stringfwd.h'
p166
F0.0
tp167
a(S'ALCheck.hpp'
p168
F0.0
tp169
a(S'Vector3.hpp'
p170
F0.0
tp171
a(S'Config.hpp'
p172
F0.0
tp173
asS'alBuffer3f'
p174
(lp175
(S'al.h'
p176
F0.08888888888888889
tp177
a(S'Vector3.inl'
p178
F0.0
tp179
a(S'c++config.h'
p180
F0.0
tp181
a(S'alc.h'
p182
F0.0
tp183
a(S'SoundBuffer.hpp'
p184
F0.0
tp185
a(S'stl_set.h'
p186
F0.0
tp187
a(S'SoundSource.hpp'
p188
F0.0
tp189
a(S'Sound.hpp'
p190
F0.0
tp191
a(S'stl_vector.h'
p192
F0.0
tp193
a(S'AlResource.hpp'
p194
F0.0
tp195
a(S'stringfwd.h'
p196
F0.0
tp197
a(S'Sound.cpp'
p198
F0.0
tp199
a(S'Time.hpp'
p200
F0.0
tp201
a(S'ALCheck.hpp'
p202
F0.0
tp203
a(S'Vector3.hpp'
p204
F0.0
tp205
a(S'Config.hpp'
p206
F0.0
tp207
asS'getChannelCount'
p208
(lp209
(S'Vector3.inl'
p210
I0
tp211
a(S'al.h'
p212
I0
tp213
a(S'c++config.h'
p214
I0
tp215
a(S'alc.h'
p216
I0
tp217
a(S'SoundBuffer.hpp'
p218
I0
tp219
a(S'stl_set.h'
p220
I0
tp221
a(S'SoundSource.hpp'
p222
I0
tp223
a(S'Sound.hpp'
p224
I0
tp225
a(S'stl_vector.h'
p226
I0
tp227
a(S'AlResource.hpp'
p228
I0
tp229
a(S'stringfwd.h'
p230
I0
tp231
a(S'Sound.cpp'
p232
I0
tp233
a(S'Time.hpp'
p234
I0
tp235
a(S'ALCheck.hpp'
p236
I0
tp237
a(S'Vector3.hpp'
p238
I0
tp239
a(S'Config.hpp'
p240
I0
tp241
asS'alDisable'
p242
(lp243
(S'al.h'
p244
F0.08888888888888889
tp245
a(S'Vector3.inl'
p246
F0.0
tp247
a(S'c++config.h'
p248
F0.0
tp249
a(S'alc.h'
p250
F0.0
tp251
a(S'SoundBuffer.hpp'
p252
F0.0
tp253
a(S'stl_set.h'
p254
F0.0
tp255
a(S'SoundSource.hpp'
p256
F0.0
tp257
a(S'Sound.hpp'
p258
F0.0
tp259
a(S'stl_vector.h'
p260
F0.0
tp261
a(S'AlResource.hpp'
p262
F0.0
tp263
a(S'stringfwd.h'
p264
F0.0
tp265
a(S'Sound.cpp'
p266
F0.0
tp267
a(S'Time.hpp'
p268
F0.0
tp269
a(S'ALCheck.hpp'
p270
F0.0
tp271
a(S'Vector3.hpp'
p272
F0.0
tp273
a(S'Config.hpp'
p274
F0.0
tp275
asS'sources'
p276
(lp277
(S'al.h'
p278
F1.0666666666666667
tp279
a(S'Vector3.inl'
p280
F0.0
tp281
a(S'c++config.h'
p282
F0.0
tp283
a(S'alc.h'
p284
F0.0
tp285
a(S'SoundBuffer.hpp'
p286
F0.0
tp287
a(S'stl_set.h'
p288
F0.0
tp289
a(S'SoundSource.hpp'
p290
F0.0
tp291
a(S'Sound.hpp'
p292
F0.0
tp293
a(S'stl_vector.h'
p294
F0.0
tp295
a(S'AlResource.hpp'
p296
F0.0
tp297
a(S'stringfwd.h'
p298
F0.0
tp299
a(S'Sound.cpp'
p300
F0.0
tp301
a(S'Time.hpp'
p302
F0.0
tp303
a(S'ALCheck.hpp'
p304
F0.0
tp305
a(S'Vector3.hpp'
p306
F0.0
tp307
a(S'Config.hpp'
p308
F0.0
tp309
asS'm_duration'
p310
(lp311
(S'SoundBuffer.hpp'
p312
F0.43243243243243246
tp313
a(S'Vector3.inl'
p314
F0.0
tp315
a(S'al.h'
p316
F0.0
tp317
a(S'c++config.h'
p318
F0.0
tp319
a(S'alc.h'
p320
F0.0
tp321
a(S'stl_set.h'
p322
F0.0
tp323
a(S'SoundSource.hpp'
p324
F0.0
tp325
a(S'Sound.hpp'
p326
F0.0
tp327
a(S'stl_vector.h'
p328
F0.0
tp329
a(S'AlResource.hpp'
p330
F0.0
tp331
a(S'stringfwd.h'
p332
F0.0
tp333
a(S'Sound.cpp'
p334
F0.0
tp335
a(S'Time.hpp'
p336
F0.0
tp337
a(S'ALCheck.hpp'
p338
F0.0
tp339
a(S'Vector3.hpp'
p340
F0.0
tp341
a(S'Config.hpp'
p342
F0.0
tp343
asS'operator<='
p344
(lp345
(S'Vector3.inl'
p346
I0
tp347
a(S'al.h'
p348
I0
tp349
a(S'c++config.h'
p350
I0
tp351
a(S'alc.h'
p352
I0
tp353
a(S'SoundBuffer.hpp'
p354
I0
tp355
a(S'stl_set.h'
p356
I0
tp357
a(S'SoundSource.hpp'
p358
I0
tp359
a(S'Sound.hpp'
p360
I0
tp361
a(S'stl_vector.h'
p362
I0
tp363
a(S'AlResource.hpp'
p364
I0
tp365
a(S'stringfwd.h'
p366
I0
tp367
a(S'Sound.cpp'
p368
I0
tp369
a(S'Time.hpp'
p370
I0
tp371
a(S'ALCheck.hpp'
p372
I0
tp373
a(S'Vector3.hpp'
p374
I0
tp375
a(S'Config.hpp'
p376
I0
tp377
asS'alcCaptureCloseDevice'
p378
(lp379
(S'alc.h'
p380
F0.22857142857142856
tp381
a(S'Vector3.inl'
p382
F0.0
tp383
a(S'al.h'
p384
F0.0
tp385
a(S'c++config.h'
p386
F0.0
tp387
a(S'SoundBuffer.hpp'
p388
F0.0
tp389
a(S'stl_set.h'
p390
F0.0
tp391
a(S'SoundSource.hpp'
p392
F0.0
tp393
a(S'Sound.hpp'
p394
F0.0
tp395
a(S'stl_vector.h'
p396
F0.0
tp397
a(S'AlResource.hpp'
p398
F0.0
tp399
a(S'stringfwd.h'
p400
F0.0
tp401
a(S'Sound.cpp'
p402
F0.0
tp403
a(S'Time.hpp'
p404
F0.0
tp405
a(S'ALCheck.hpp'
p406
F0.0
tp407
a(S'Vector3.hpp'
p408
F0.0
tp409
a(S'Config.hpp'
p410
F0.0
tp411
asS'timeOffset'
p412
(lp413
(S'Sound.hpp'
p414
F0.26666666666666666
tp415
a(S'Sound.cpp'
p416
F0.19047619047619047
tp417
a(S'Vector3.inl'
p418
F0.0
tp419
a(S'al.h'
p420
F0.0
tp421
a(S'c++config.h'
p422
F0.0
tp423
a(S'alc.h'
p424
F0.0
tp425
a(S'SoundBuffer.hpp'
p426
F0.0
tp427
a(S'stl_set.h'
p428
F0.0
tp429
a(S'SoundSource.hpp'
p430
F0.0
tp431
a(S'stl_vector.h'
p432
F0.0
tp433
a(S'AlResource.hpp'
p434
F0.0
tp435
a(S'stringfwd.h'
p436
F0.0
tp437
a(S'Time.hpp'
p438
F0.0
tp439
a(S'ALCheck.hpp'
p440
F0.0
tp441
a(S'Vector3.hpp'
p442
F0.0
tp443
a(S'Config.hpp'
p444
F0.0
tp445
asS'm_sounds'
p446
(lp447
(S'SoundBuffer.hpp'
p448
F0.43243243243243246
tp449
a(S'Vector3.inl'
p450
F0.0
tp451
a(S'al.h'
p452
F0.0
tp453
a(S'c++config.h'
p454
F0.0
tp455
a(S'alc.h'
p456
F0.0
tp457
a(S'stl_set.h'
p458
F0.0
tp459
a(S'SoundSource.hpp'
p460
F0.0
tp461
a(S'Sound.hpp'
p462
F0.0
tp463
a(S'stl_vector.h'
p464
F0.0
tp465
a(S'AlResource.hpp'
p466
F0.0
tp467
a(S'stringfwd.h'
p468
F0.0
tp469
a(S'Sound.cpp'
p470
F0.0
tp471
a(S'Time.hpp'
p472
F0.0
tp473
a(S'ALCheck.hpp'
p474
F0.0
tp475
a(S'Vector3.hpp'
p476
F0.0
tp477
a(S'Config.hpp'
p478
F0.0
tp479
asS'getPitch'
p480
(lp481
(S'Vector3.inl'
p482
I0
tp483
a(S'al.h'
p484
I0
tp485
a(S'c++config.h'
p486
I0
tp487
a(S'alc.h'
p488
I0
tp489
a(S'SoundBuffer.hpp'
p490
I0
tp491
a(S'stl_set.h'
p492
I0
tp493
a(S'SoundSource.hpp'
p494
I0
tp495
a(S'Sound.hpp'
p496
I0
tp497
a(S'stl_vector.h'
p498
I0
tp499
a(S'AlResource.hpp'
p500
I0
tp501
a(S'stringfwd.h'
p502
I0
tp503
a(S'Sound.cpp'
p504
I0
tp505
a(S'Time.hpp'
p506
I0
tp507
a(S'ALCheck.hpp'
p508
I0
tp509
a(S'Vector3.hpp'
p510
I0
tp511
a(S'Config.hpp'
p512
I0
tp513
asS'alGetBufferf'
p514
(lp515
(S'al.h'
p516
F0.08888888888888889
tp517
a(S'Vector3.inl'
p518
F0.0
tp519
a(S'c++config.h'
p520
F0.0
tp521
a(S'alc.h'
p522
F0.0
tp523
a(S'SoundBuffer.hpp'
p524
F0.0
tp525
a(S'stl_set.h'
p526
F0.0
tp527
a(S'SoundSource.hpp'
p528
F0.0
tp529
a(S'Sound.hpp'
p530
F0.0
tp531
a(S'stl_vector.h'
p532
F0.0
tp533
a(S'AlResource.hpp'
p534
F0.0
tp535
a(S'stringfwd.h'
p536
F0.0
tp537
a(S'Sound.cpp'
p538
F0.0
tp539
a(S'Time.hpp'
p540
F0.0
tp541
a(S'ALCheck.hpp'
p542
F0.0
tp543
a(S'Vector3.hpp'
p544
F0.0
tp545
a(S'Config.hpp'
p546
F0.0
tp547
asS'devicename'
p548
(lp549
(S'alc.h'
p550
F0.9142857142857143
tp551
a(S'Vector3.inl'
p552
F0.0
tp553
a(S'al.h'
p554
F0.0
tp555
a(S'c++config.h'
p556
F0.0
tp557
a(S'SoundBuffer.hpp'
p558
F0.0
tp559
a(S'stl_set.h'
p560
F0.0
tp561
a(S'SoundSource.hpp'
p562
F0.0
tp563
a(S'Sound.hpp'
p564
F0.0
tp565
a(S'stl_vector.h'
p566
F0.0
tp567
a(S'AlResource.hpp'
p568
F0.0
tp569
a(S'stringfwd.h'
p570
F0.0
tp571
a(S'Sound.cpp'
p572
F0.0
tp573
a(S'Time.hpp'
p574
F0.0
tp575
a(S'ALCheck.hpp'
p576
F0.0
tp577
a(S'Vector3.hpp'
p578
F0.0
tp579
a(S'Config.hpp'
p580
F0.0
tp581
asS'pause'
p582
(lp583
(S'Sound.hpp'
p584
F0.26666666666666666
tp585
a(S'Sound.cpp'
p586
F0.19047619047619047
tp587
a(S'Vector3.inl'
p588
F0.0
tp589
a(S'al.h'
p590
F0.0
tp591
a(S'c++config.h'
p592
F0.0
tp593
a(S'alc.h'
p594
F0.0
tp595
a(S'SoundBuffer.hpp'
p596
F0.0
tp597
a(S'stl_set.h'
p598
F0.0
tp599
a(S'SoundSource.hpp'
p600
F0.0
tp601
a(S'stl_vector.h'
p602
F0.0
tp603
a(S'AlResource.hpp'
p604
F0.0
tp605
a(S'stringfwd.h'
p606
F0.0
tp607
a(S'Time.hpp'
p608
F0.0
tp609
a(S'ALCheck.hpp'
p610
F0.0
tp611
a(S'Vector3.hpp'
p612
F0.0
tp613
a(S'Config.hpp'
p614
F0.0
tp615
asS'operator+='
p616
(lp617
(S'Vector3.inl'
p618
F0.34782608695652173
tp619
a(S'Vector3.hpp'
p620
F0.2962962962962963
tp621
a(S'al.h'
p622
F0.0
tp623
a(S'c++config.h'
p624
F0.0
tp625
a(S'alc.h'
p626
F0.0
tp627
a(S'SoundBuffer.hpp'
p628
F0.0
tp629
a(S'stl_set.h'
p630
F0.0
tp631
a(S'SoundSource.hpp'
p632
F0.0
tp633
a(S'Sound.hpp'
p634
F0.0
tp635
a(S'stl_vector.h'
p636
F0.0
tp637
a(S'AlResource.hpp'
p638
F0.0
tp639
a(S'stringfwd.h'
p640
F0.0
tp641
a(S'Sound.cpp'
p642
F0.0
tp643
a(S'Time.hpp'
p644
F0.0
tp645
a(S'ALCheck.hpp'
p646
F0.0
tp647
a(S'Config.hpp'
p648
F0.0
tp649
asS'attachSound'
p650
(lp651
(S'Vector3.inl'
p652
I0
tp653
a(S'al.h'
p654
I0
tp655
a(S'c++config.h'
p656
I0
tp657
a(S'alc.h'
p658
I0
tp659
a(S'SoundBuffer.hpp'
p660
I0
tp661
a(S'stl_set.h'
p662
I0
tp663
a(S'SoundSource.hpp'
p664
I0
tp665
a(S'Sound.hpp'
p666
I0
tp667
a(S'stl_vector.h'
p668
I0
tp669
a(S'AlResource.hpp'
p670
I0
tp671
a(S'stringfwd.h'
p672
I0
tp673
a(S'Sound.cpp'
p674
I0
tp675
a(S'Time.hpp'
p676
I0
tp677
a(S'ALCheck.hpp'
p678
I0
tp679
a(S'Vector3.hpp'
p680
I0
tp681
a(S'Config.hpp'
p682
I0
tp683
asS'setPlayingOffset'
p684
(lp685
(S'Sound.hpp'
p686
F0.26666666666666666
tp687
a(S'Sound.cpp'
p688
F0.19047619047619047
tp689
a(S'Vector3.inl'
p690
F0.0
tp691
a(S'al.h'
p692
F0.0
tp693
a(S'c++config.h'
p694
F0.0
tp695
a(S'alc.h'
p696
F0.0
tp697
a(S'SoundBuffer.hpp'
p698
F0.0
tp699
a(S'stl_set.h'
p700
F0.0
tp701
a(S'SoundSource.hpp'
p702
F0.0
tp703
a(S'stl_vector.h'
p704
F0.0
tp705
a(S'AlResource.hpp'
p706
F0.0
tp707
a(S'stringfwd.h'
p708
F0.0
tp709
a(S'Time.hpp'
p710
F0.0
tp711
a(S'ALCheck.hpp'
p712
F0.0
tp713
a(S'Vector3.hpp'
p714
F0.0
tp715
a(S'Config.hpp'
p716
F0.0
tp717
asS'param'
p718
(lp719
(S'al.h'
p720
F4.0
tp721
a(S'alc.h'
p722
F0.45714285714285713
tp723
a(S'Vector3.inl'
p724
F0.0
tp725
a(S'c++config.h'
p726
F0.0
tp727
a(S'SoundBuffer.hpp'
p728
F0.0
tp729
a(S'stl_set.h'
p730
F0.0
tp731
a(S'SoundSource.hpp'
p732
F0.0
tp733
a(S'Sound.hpp'
p734
F0.0
tp735
a(S'stl_vector.h'
p736
F0.0
tp737
a(S'AlResource.hpp'
p738
F0.0
tp739
a(S'stringfwd.h'
p740
F0.0
tp741
a(S'Sound.cpp'
p742
F0.0
tp743
a(S'Time.hpp'
p744
F0.0
tp745
a(S'ALCheck.hpp'
p746
F0.0
tp747
a(S'Vector3.hpp'
p748
F0.0
tp749
a(S'Config.hpp'
p750
F0.0
tp751
asS'setLoop'
p752
(lp753
(S'Sound.hpp'
p754
F0.26666666666666666
tp755
a(S'Sound.cpp'
p756
F0.19047619047619047
tp757
a(S'Vector3.inl'
p758
F0.0
tp759
a(S'al.h'
p760
F0.0
tp761
a(S'c++config.h'
p762
F0.0
tp763
a(S'alc.h'
p764
F0.0
tp765
a(S'SoundBuffer.hpp'
p766
F0.0
tp767
a(S'stl_set.h'
p768
F0.0
tp769
a(S'SoundSource.hpp'
p770
F0.0
tp771
a(S'stl_vector.h'
p772
F0.0
tp773
a(S'AlResource.hpp'
p774
F0.0
tp775
a(S'stringfwd.h'
p776
F0.0
tp777
a(S'Time.hpp'
p778
F0.0
tp779
a(S'ALCheck.hpp'
p780
F0.0
tp781
a(S'Vector3.hpp'
p782
F0.0
tp783
a(S'Config.hpp'
p784
F0.0
tp785
asS'source'
p786
(lp787
(S'al.h'
p788
F3.3777777777777778
tp789
a(S'Vector3.inl'
p790
F0.0
tp791
a(S'c++config.h'
p792
F0.0
tp793
a(S'alc.h'
p794
F0.0
tp795
a(S'SoundBuffer.hpp'
p796
F0.0
tp797
a(S'stl_set.h'
p798
F0.0
tp799
a(S'SoundSource.hpp'
p800
F0.0
tp801
a(S'Sound.hpp'
p802
F0.0
tp803
a(S'stl_vector.h'
p804
F0.0
tp805
a(S'AlResource.hpp'
p806
F0.0
tp807
a(S'stringfwd.h'
p808
F0.0
tp809
a(S'Sound.cpp'
p810
F0.0
tp811
a(S'Time.hpp'
p812
F0.0
tp813
a(S'ALCheck.hpp'
p814
F0.0
tp815
a(S'Vector3.hpp'
p816
F0.0
tp817
a(S'Config.hpp'
p818
F0.0
tp819
asS'amount'
p820
(lp821
(S'Time.hpp'
p822
F4.0
tp823
a(S'Vector3.inl'
p824
F0.0
tp825
a(S'al.h'
p826
F0.0
tp827
a(S'c++config.h'
p828
F0.0
tp829
a(S'alc.h'
p830
F0.0
tp831
a(S'SoundBuffer.hpp'
p832
F0.0
tp833
a(S'stl_set.h'
p834
F0.0
tp835
a(S'SoundSource.hpp'
p836
F0.0
tp837
a(S'Sound.hpp'
p838
F0.0
tp839
a(S'stl_vector.h'
p840
F0.0
tp841
a(S'AlResource.hpp'
p842
F0.0
tp843
a(S'stringfwd.h'
p844
F0.0
tp845
a(S'Sound.cpp'
p846
F0.0
tp847
a(S'ALCheck.hpp'
p848
F0.0
tp849
a(S'Vector3.hpp'
p850
F0.0
tp851
a(S'Config.hpp'
p852
F0.0
tp853
asS'alcCaptureOpenDevice'
p854
(lp855
(S'alc.h'
p856
F0.22857142857142856
tp857
a(S'Vector3.inl'
p858
F0.0
tp859
a(S'al.h'
p860
F0.0
tp861
a(S'c++config.h'
p862
F0.0
tp863
a(S'SoundBuffer.hpp'
p864
F0.0
tp865
a(S'stl_set.h'
p866
F0.0
tp867
a(S'SoundSource.hpp'
p868
F0.0
tp869
a(S'Sound.hpp'
p870
F0.0
tp871
a(S'stl_vector.h'
p872
F0.0
tp873
a(S'AlResource.hpp'
p874
F0.0
tp875
a(S'stringfwd.h'
p876
F0.0
tp877
a(S'Sound.cpp'
p878
F0.0
tp879
a(S'Time.hpp'
p880
F0.0
tp881
a(S'ALCheck.hpp'
p882
F0.0
tp883
a(S'Vector3.hpp'
p884
F0.0
tp885
a(S'Config.hpp'
p886
F0.0
tp887
asS'alGetBuffer3i'
p888
(lp889
(S'al.h'
p890
F0.08888888888888889
tp891
a(S'Vector3.inl'
p892
F0.0
tp893
a(S'c++config.h'
p894
F0.0
tp895
a(S'alc.h'
p896
F0.0
tp897
a(S'SoundBuffer.hpp'
p898
F0.0
tp899
a(S'stl_set.h'
p900
F0.0
tp901
a(S'SoundSource.hpp'
p902
F0.0
tp903
a(S'Sound.hpp'
p904
F0.0
tp905
a(S'stl_vector.h'
p906
F0.0
tp907
a(S'AlResource.hpp'
p908
F0.0
tp909
a(S'stringfwd.h'
p910
F0.0
tp911
a(S'Sound.cpp'
p912
F0.0
tp913
a(S'Time.hpp'
p914
F0.0
tp915
a(S'ALCheck.hpp'
p916
F0.0
tp917
a(S'Vector3.hpp'
p918
F0.0
tp919
a(S'Config.hpp'
p920
F0.0
tp921
asS'alGetBuffer3f'
p922
(lp923
(S'al.h'
p924
F0.08888888888888889
tp925
a(S'Vector3.inl'
p926
F0.0
tp927
a(S'c++config.h'
p928
F0.0
tp929
a(S'alc.h'
p930
F0.0
tp931
a(S'SoundBuffer.hpp'
p932
F0.0
tp933
a(S'stl_set.h'
p934
F0.0
tp935
a(S'SoundSource.hpp'
p936
F0.0
tp937
a(S'Sound.hpp'
p938
F0.0
tp939
a(S'stl_vector.h'
p940
F0.0
tp941
a(S'AlResource.hpp'
p942
F0.0
tp943
a(S'stringfwd.h'
p944
F0.0
tp945
a(S'Sound.cpp'
p946
F0.0
tp947
a(S'Time.hpp'
p948
F0.0
tp949
a(S'ALCheck.hpp'
p950
F0.0
tp951
a(S'Vector3.hpp'
p952
F0.0
tp953
a(S'Config.hpp'
p954
F0.0
tp955
asS'alSourcePausev'
p956
(lp957
(S'al.h'
p958
F0.08888888888888889
tp959
a(S'Vector3.inl'
p960
F0.0
tp961
a(S'c++config.h'
p962
F0.0
tp963
a(S'alc.h'
p964
F0.0
tp965
a(S'SoundBuffer.hpp'
p966
F0.0
tp967
a(S'stl_set.h'
p968
F0.0
tp969
a(S'SoundSource.hpp'
p970
F0.0
tp971
a(S'Sound.hpp'
p972
F0.0
tp973
a(S'stl_vector.h'
p974
F0.0
tp975
a(S'AlResource.hpp'
p976
F0.0
tp977
a(S'stringfwd.h'
p978
F0.0
tp979
a(S'Sound.cpp'
p980
F0.0
tp981
a(S'Time.hpp'
p982
F0.0
tp983
a(S'ALCheck.hpp'
p984
F0.0
tp985
a(S'Vector3.hpp'
p986
F0.0
tp987
a(S'Config.hpp'
p988
F0.0
tp989
asS'alGetProcAddress'
p990
(lp991
(S'al.h'
p992
F0.08888888888888889
tp993
a(S'Vector3.inl'
p994
F0.0
tp995
a(S'c++config.h'
p996
F0.0
tp997
a(S'alc.h'
p998
F0.0
tp999
a(S'SoundBuffer.hpp'
p1000
F0.0
tp1001
a(S'stl_set.h'
p1002
F0.0
tp1003
a(S'SoundSource.hpp'
p1004
F0.0
tp1005
a(S'Sound.hpp'
p1006
F0.0
tp1007
a(S'stl_vector.h'
p1008
F0.0
tp1009
a(S'AlResource.hpp'
p1010
F0.0
tp1011
a(S'stringfwd.h'
p1012
F0.0
tp1013
a(S'Sound.cpp'
p1014
F0.0
tp1015
a(S'Time.hpp'
p1016
F0.0
tp1017
a(S'ALCheck.hpp'
p1018
F0.0
tp1019
a(S'Vector3.hpp'
p1020
F0.0
tp1021
a(S'Config.hpp'
p1022
F0.0
tp1023
asS'Sound'
p1024
(lp1025
(S'Sound.hpp'
p1026
F0.711111111111111
tp1027
a(S'Sound.cpp'
p1028
F0.5079365079365079
tp1029
a(S'SoundBuffer.hpp'
p1030
F0.14414414414414414
tp1031
a(S'Vector3.inl'
p1032
F0.0
tp1033
a(S'al.h'
p1034
F0.0
tp1035
a(S'c++config.h'
p1036
F0.0
tp1037
a(S'alc.h'
p1038
F0.0
tp1039
a(S'stl_set.h'
p1040
F0.0
tp1041
a(S'SoundSource.hpp'
p1042
F0.0
tp1043
a(S'stl_vector.h'
p1044
F0.0
tp1045
a(S'AlResource.hpp'
p1046
F0.0
tp1047
a(S'stringfwd.h'
p1048
F0.0
tp1049
a(S'Time.hpp'
p1050
F0.0
tp1051
a(S'ALCheck.hpp'
p1052
F0.0
tp1053
a(S'Vector3.hpp'
p1054
F0.0
tp1055
a(S'Config.hpp'
p1056
F0.0
tp1057
asS'channelCount'
p1058
(lp1059
(S'SoundBuffer.hpp'
p1060
F0.8648648648648649
tp1061
a(S'Vector3.inl'
p1062
F0.0
tp1063
a(S'al.h'
p1064
F0.0
tp1065
a(S'c++config.h'
p1066
F0.0
tp1067
a(S'alc.h'
p1068
F0.0
tp1069
a(S'stl_set.h'
p1070
F0.0
tp1071
a(S'SoundSource.hpp'
p1072
F0.0
tp1073
a(S'Sound.hpp'
p1074
F0.0
tp1075
a(S'stl_vector.h'
p1076
F0.0
tp1077
a(S'AlResource.hpp'
p1078
F0.0
tp1079
a(S'stringfwd.h'
p1080
F0.0
tp1081
a(S'Sound.cpp'
p1082
F0.0
tp1083
a(S'Time.hpp'
p1084
F0.0
tp1085
a(S'ALCheck.hpp'
p1086
F0.0
tp1087
a(S'Vector3.hpp'
p1088
F0.0
tp1089
a(S'Config.hpp'
p1090
F0.0
tp1091
asS'alcGetString'
p1092
(lp1093
(S'alc.h'
p1094
F0.22857142857142856
tp1095
a(S'Vector3.inl'
p1096
F0.0
tp1097
a(S'al.h'
p1098
F0.0
tp1099
a(S'c++config.h'
p1100
F0.0
tp1101
a(S'SoundBuffer.hpp'
p1102
F0.0
tp1103
a(S'stl_set.h'
p1104
F0.0
tp1105
a(S'SoundSource.hpp'
p1106
F0.0
tp1107
a(S'Sound.hpp'
p1108
F0.0
tp1109
a(S'stl_vector.h'
p1110
F0.0
tp1111
a(S'AlResource.hpp'
p1112
F0.0
tp1113
a(S'stringfwd.h'
p1114
F0.0
tp1115
a(S'Sound.cpp'
p1116
F0.0
tp1117
a(S'Time.hpp'
p1118
F0.0
tp1119
a(S'ALCheck.hpp'
p1120
F0.0
tp1121
a(S'Vector3.hpp'
p1122
F0.0
tp1123
a(S'Config.hpp'
p1124
F0.0
tp1125
asS'operator%='
p1126
(lp1127
(S'Vector3.inl'
p1128
I0
tp1129
a(S'al.h'
p1130
I0
tp1131
a(S'c++config.h'
p1132
I0
tp1133
a(S'alc.h'
p1134
I0
tp1135
a(S'SoundBuffer.hpp'
p1136
I0
tp1137
a(S'stl_set.h'
p1138
I0
tp1139
a(S'SoundSource.hpp'
p1140
I0
tp1141
a(S'Sound.hpp'
p1142
I0
tp1143
a(S'stl_vector.h'
p1144
I0
tp1145
a(S'AlResource.hpp'
p1146
I0
tp1147
a(S'stringfwd.h'
p1148
I0
tp1149
a(S'Sound.cpp'
p1150
I0
tp1151
a(S'Time.hpp'
p1152
I0
tp1153
a(S'ALCheck.hpp'
p1154
I0
tp1155
a(S'Vector3.hpp'
p1156
I0
tp1157
a(S'Config.hpp'
p1158
I0
tp1159
asS'alEnable'
p1160
(lp1161
(S'al.h'
p1162
F0.08888888888888889
tp1163
a(S'Vector3.inl'
p1164
F0.0
tp1165
a(S'c++config.h'
p1166
F0.0
tp1167
a(S'alc.h'
p1168
F0.0
tp1169
a(S'SoundBuffer.hpp'
p1170
F0.0
tp1171
a(S'stl_set.h'
p1172
F0.0
tp1173
a(S'SoundSource.hpp'
p1174
F0.0
tp1175
a(S'Sound.hpp'
p1176
F0.0
tp1177
a(S'stl_vector.h'
p1178
F0.0
tp1179
a(S'AlResource.hpp'
p1180
F0.0
tp1181
a(S'stringfwd.h'
p1182
F0.0
tp1183
a(S'Sound.cpp'
p1184
F0.0
tp1185
a(S'Time.hpp'
p1186
F0.0
tp1187
a(S'ALCheck.hpp'
p1188
F0.0
tp1189
a(S'Vector3.hpp'
p1190
F0.0
tp1191
a(S'Config.hpp'
p1192
F0.0
tp1193
asS'alGetListeneriv'
p1194
(lp1195
(S'al.h'
p1196
F0.08888888888888889
tp1197
a(S'Vector3.inl'
p1198
F0.0
tp1199
a(S'c++config.h'
p1200
F0.0
tp1201
a(S'alc.h'
p1202
F0.0
tp1203
a(S'SoundBuffer.hpp'
p1204
F0.0
tp1205
a(S'stl_set.h'
p1206
F0.0
tp1207
a(S'SoundSource.hpp'
p1208
F0.0
tp1209
a(S'Sound.hpp'
p1210
F0.0
tp1211
a(S'stl_vector.h'
p1212
F0.0
tp1213
a(S'AlResource.hpp'
p1214
F0.0
tp1215
a(S'stringfwd.h'
p1216
F0.0
tp1217
a(S'Sound.cpp'
p1218
F0.0
tp1219
a(S'Time.hpp'
p1220
F0.0
tp1221
a(S'ALCheck.hpp'
p1222
F0.0
tp1223
a(S'Vector3.hpp'
p1224
F0.0
tp1225
a(S'Config.hpp'
p1226
F0.0
tp1227
asS'stop'
p1228
(lp1229
(S'Sound.hpp'
p1230
F0.26666666666666666
tp1231
a(S'Sound.cpp'
p1232
F0.19047619047619047
tp1233
a(S'Vector3.inl'
p1234
F0.0
tp1235
a(S'al.h'
p1236
F0.0
tp1237
a(S'c++config.h'
p1238
F0.0
tp1239
a(S'alc.h'
p1240
F0.0
tp1241
a(S'SoundBuffer.hpp'
p1242
F0.0
tp1243
a(S'stl_set.h'
p1244
F0.0
tp1245
a(S'SoundSource.hpp'
p1246
F0.0
tp1247
a(S'stl_vector.h'
p1248
F0.0
tp1249
a(S'AlResource.hpp'
p1250
F0.0
tp1251
a(S'stringfwd.h'
p1252
F0.0
tp1253
a(S'Time.hpp'
p1254
F0.0
tp1255
a(S'ALCheck.hpp'
p1256
F0.0
tp1257
a(S'Vector3.hpp'
p1258
F0.0
tp1259
a(S'Config.hpp'
p1260
F0.0
tp1261
asS'operator=='
p1262
(lp1263
(S'Vector3.inl'
p1264
F0.34782608695652173
tp1265
a(S'Vector3.hpp'
p1266
F0.2962962962962963
tp1267
a(S'al.h'
p1268
F0.0
tp1269
a(S'c++config.h'
p1270
F0.0
tp1271
a(S'alc.h'
p1272
F0.0
tp1273
a(S'SoundBuffer.hpp'
p1274
F0.0
tp1275
a(S'stl_set.h'
p1276
F0.0
tp1277
a(S'SoundSource.hpp'
p1278
F0.0
tp1279
a(S'Sound.hpp'
p1280
F0.0
tp1281
a(S'stl_vector.h'
p1282
F0.0
tp1283
a(S'AlResource.hpp'
p1284
F0.0
tp1285
a(S'stringfwd.h'
p1286
F0.0
tp1287
a(S'Sound.cpp'
p1288
F0.0
tp1289
a(S'Time.hpp'
p1290
F0.0
tp1291
a(S'ALCheck.hpp'
p1292
F0.0
tp1293
a(S'Config.hpp'
p1294
F0.0
tp1295
asS'alSourceQueueBuffers'
p1296
(lp1297
(S'al.h'
p1298
F0.08888888888888889
tp1299
a(S'Vector3.inl'
p1300
F0.0
tp1301
a(S'c++config.h'
p1302
F0.0
tp1303
a(S'alc.h'
p1304
F0.0
tp1305
a(S'SoundBuffer.hpp'
p1306
F0.0
tp1307
a(S'stl_set.h'
p1308
F0.0
tp1309
a(S'SoundSource.hpp'
p1310
F0.0
tp1311
a(S'Sound.hpp'
p1312
F0.0
tp1313
a(S'stl_vector.h'
p1314
F0.0
tp1315
a(S'AlResource.hpp'
p1316
F0.0
tp1317
a(S'stringfwd.h'
p1318
F0.0
tp1319
a(S'Sound.cpp'
p1320
F0.0
tp1321
a(S'Time.hpp'
p1322
F0.0
tp1323
a(S'ALCheck.hpp'
p1324
F0.0
tp1325
a(S'Vector3.hpp'
p1326
F0.0
tp1327
a(S'Config.hpp'
p1328
F0.0
tp1329
asS'alcCaptureStart'
p1330
(lp1331
(S'alc.h'
p1332
F0.22857142857142856
tp1333
a(S'Vector3.inl'
p1334
F0.0
tp1335
a(S'al.h'
p1336
F0.0
tp1337
a(S'c++config.h'
p1338
F0.0
tp1339
a(S'SoundBuffer.hpp'
p1340
F0.0
tp1341
a(S'stl_set.h'
p1342
F0.0
tp1343
a(S'SoundSource.hpp'
p1344
F0.0
tp1345
a(S'Sound.hpp'
p1346
F0.0
tp1347
a(S'stl_vector.h'
p1348
F0.0
tp1349
a(S'AlResource.hpp'
p1350
F0.0
tp1351
a(S'stringfwd.h'
p1352
F0.0
tp1353
a(S'Sound.cpp'
p1354
F0.0
tp1355
a(S'Time.hpp'
p1356
F0.0
tp1357
a(S'ALCheck.hpp'
p1358
F0.0
tp1359
a(S'Vector3.hpp'
p1360
F0.0
tp1361
a(S'Config.hpp'
p1362
F0.0
tp1363
asS'AlResource'
p1364
(lp1365
(S'AlResource.hpp'
p1366
F1.7777777777777777
tp1367
a(S'SoundSource.hpp'
p1368
F0.2222222222222222
tp1369
a(S'SoundBuffer.hpp'
p1370
F0.14414414414414414
tp1371
a(S'Vector3.inl'
p1372
F0.0
tp1373
a(S'al.h'
p1374
F0.0
tp1375
a(S'c++config.h'
p1376
F0.0
tp1377
a(S'alc.h'
p1378
F0.0
tp1379
a(S'stl_set.h'
p1380
F0.0
tp1381
a(S'Sound.hpp'
p1382
F0.0
tp1383
a(S'stl_vector.h'
p1384
F0.0
tp1385
a(S'stringfwd.h'
p1386
F0.0
tp1387
a(S'Sound.cpp'
p1388
F0.0
tp1389
a(S'Time.hpp'
p1390
F0.0
tp1391
a(S'ALCheck.hpp'
p1392
F0.0
tp1393
a(S'Vector3.hpp'
p1394
F0.0
tp1395
a(S'Config.hpp'
p1396
F0.0
tp1397
asS'alcGetCurrentContext'
p1398
(lp1399
(S'alc.h'
p1400
F0.22857142857142856
tp1401
a(S'Vector3.inl'
p1402
F0.0
tp1403
a(S'al.h'
p1404
F0.0
tp1405
a(S'c++config.h'
p1406
F0.0
tp1407
a(S'SoundBuffer.hpp'
p1408
F0.0
tp1409
a(S'stl_set.h'
p1410
F0.0
tp1411
a(S'SoundSource.hpp'
p1412
F0.0
tp1413
a(S'Sound.hpp'
p1414
F0.0
tp1415
a(S'stl_vector.h'
p1416
F0.0
tp1417
a(S'AlResource.hpp'
p1418
F0.0
tp1419
a(S'stringfwd.h'
p1420
F0.0
tp1421
a(S'Sound.cpp'
p1422
F0.0
tp1423
a(S'Time.hpp'
p1424
F0.0
tp1425
a(S'ALCheck.hpp'
p1426
F0.0
tp1427
a(S'Vector3.hpp'
p1428
F0.0
tp1429
a(S'Config.hpp'
p1430
F0.0
tp1431
asS'alcGetIntegerv'
p1432
(lp1433
(S'alc.h'
p1434
F0.22857142857142856
tp1435
a(S'Vector3.inl'
p1436
F0.0
tp1437
a(S'al.h'
p1438
F0.0
tp1439
a(S'c++config.h'
p1440
F0.0
tp1441
a(S'SoundBuffer.hpp'
p1442
F0.0
tp1443
a(S'stl_set.h'
p1444
F0.0
tp1445
a(S'SoundSource.hpp'
p1446
F0.0
tp1447
a(S'Sound.hpp'
p1448
F0.0
tp1449
a(S'stl_vector.h'
p1450
F0.0
tp1451
a(S'AlResource.hpp'
p1452
F0.0
tp1453
a(S'stringfwd.h'
p1454
F0.0
tp1455
a(S'Sound.cpp'
p1456
F0.0
tp1457
a(S'Time.hpp'
p1458
F0.0
tp1459
a(S'ALCheck.hpp'
p1460
F0.0
tp1461
a(S'Vector3.hpp'
p1462
F0.0
tp1463
a(S'Config.hpp'
p1464
F0.0
tp1465
asS'X'
p1466
(lp1467
(S'Vector3.inl'
p1468
F0.34782608695652173
tp1469
a(S'Vector3.hpp'
p1470
F0.2962962962962963
tp1471
a(S'al.h'
p1472
F0.0
tp1473
a(S'c++config.h'
p1474
F0.0
tp1475
a(S'alc.h'
p1476
F0.0
tp1477
a(S'SoundBuffer.hpp'
p1478
F0.0
tp1479
a(S'stl_set.h'
p1480
F0.0
tp1481
a(S'SoundSource.hpp'
p1482
F0.0
tp1483
a(S'Sound.hpp'
p1484
F0.0
tp1485
a(S'stl_vector.h'
p1486
F0.0
tp1487
a(S'AlResource.hpp'
p1488
F0.0
tp1489
a(S'stringfwd.h'
p1490
F0.0
tp1491
a(S'Sound.cpp'
p1492
F0.0
tp1493
a(S'Time.hpp'
p1494
F0.0
tp1495
a(S'ALCheck.hpp'
p1496
F0.0
tp1497
a(S'Config.hpp'
p1498
F0.0
tp1499
asS'alSourcef'
p1500
(lp1501
(S'Sound.cpp'
p1502
F0.19047619047619047
tp1503
a(S'al.h'
p1504
F0.044444444444444446
tp1505
a(S'Vector3.inl'
p1506
F0.0
tp1507
a(S'c++config.h'
p1508
F0.0
tp1509
a(S'alc.h'
p1510
F0.0
tp1511
a(S'SoundBuffer.hpp'
p1512
F0.0
tp1513
a(S'stl_set.h'
p1514
F0.0
tp1515
a(S'SoundSource.hpp'
p1516
F0.0
tp1517
a(S'Sound.hpp'
p1518
F0.0
tp1519
a(S'stl_vector.h'
p1520
F0.0
tp1521
a(S'AlResource.hpp'
p1522
F0.0
tp1523
a(S'stringfwd.h'
p1524
F0.0
tp1525
a(S'Time.hpp'
p1526
F0.0
tp1527
a(S'ALCheck.hpp'
p1528
F0.0
tp1529
a(S'Vector3.hpp'
p1530
F0.0
tp1531
a(S'Config.hpp'
p1532
F0.0
tp1533
asS'alGetBufferi'
p1534
(lp1535
(S'al.h'
p1536
F0.08888888888888889
tp1537
a(S'Vector3.inl'
p1538
F0.0
tp1539
a(S'c++config.h'
p1540
F0.0
tp1541
a(S'alc.h'
p1542
F0.0
tp1543
a(S'SoundBuffer.hpp'
p1544
F0.0
tp1545
a(S'stl_set.h'
p1546
F0.0
tp1547
a(S'SoundSource.hpp'
p1548
F0.0
tp1549
a(S'Sound.hpp'
p1550
F0.0
tp1551
a(S'stl_vector.h'
p1552
F0.0
tp1553
a(S'AlResource.hpp'
p1554
F0.0
tp1555
a(S'stringfwd.h'
p1556
F0.0
tp1557
a(S'Sound.cpp'
p1558
F0.0
tp1559
a(S'Time.hpp'
p1560
F0.0
tp1561
a(S'ALCheck.hpp'
p1562
F0.0
tp1563
a(S'Vector3.hpp'
p1564
F0.0
tp1565
a(S'Config.hpp'
p1566
F0.0
tp1567
asS'alCheckError'
p1568
(lp1569
(S'Vector3.inl'
p1570
I0
tp1571
a(S'al.h'
p1572
I0
tp1573
a(S'c++config.h'
p1574
I0
tp1575
a(S'alc.h'
p1576
I0
tp1577
a(S'SoundBuffer.hpp'
p1578
I0
tp1579
a(S'stl_set.h'
p1580
I0
tp1581
a(S'SoundSource.hpp'
p1582
I0
tp1583
a(S'Sound.hpp'
p1584
I0
tp1585
a(S'stl_vector.h'
p1586
I0
tp1587
a(S'AlResource.hpp'
p1588
I0
tp1589
a(S'stringfwd.h'
p1590
I0
tp1591
a(S'Sound.cpp'
p1592
I0
tp1593
a(S'Time.hpp'
p1594
I0
tp1595
a(S'ALCheck.hpp'
p1596
I0
tp1597
a(S'Vector3.hpp'
p1598
I0
tp1599
a(S'Config.hpp'
p1600
I0
tp1601
asS'm_microseconds'
p1602
(lp1603
(S'Time.hpp'
p1604
F1.3333333333333333
tp1605
a(S'Vector3.inl'
p1606
F0.0
tp1607
a(S'al.h'
p1608
F0.0
tp1609
a(S'c++config.h'
p1610
F0.0
tp1611
a(S'alc.h'
p1612
F0.0
tp1613
a(S'SoundBuffer.hpp'
p1614
F0.0
tp1615
a(S'stl_set.h'
p1616
F0.0
tp1617
a(S'SoundSource.hpp'
p1618
F0.0
tp1619
a(S'Sound.hpp'
p1620
F0.0
tp1621
a(S'stl_vector.h'
p1622
F0.0
tp1623
a(S'AlResource.hpp'
p1624
F0.0
tp1625
a(S'stringfwd.h'
p1626
F0.0
tp1627
a(S'Sound.cpp'
p1628
F0.0
tp1629
a(S'ALCheck.hpp'
p1630
F0.0
tp1631
a(S'Vector3.hpp'
p1632
F0.0
tp1633
a(S'Config.hpp'
p1634
F0.0
tp1635
asS'alSourceRewind'
p1636
(lp1637
(S'al.h'
p1638
F0.08888888888888889
tp1639
a(S'Vector3.inl'
p1640
F0.0
tp1641
a(S'c++config.h'
p1642
F0.0
tp1643
a(S'alc.h'
p1644
F0.0
tp1645
a(S'SoundBuffer.hpp'
p1646
F0.0
tp1647
a(S'stl_set.h'
p1648
F0.0
tp1649
a(S'SoundSource.hpp'
p1650
F0.0
tp1651
a(S'Sound.hpp'
p1652
F0.0
tp1653
a(S'stl_vector.h'
p1654
F0.0
tp1655
a(S'AlResource.hpp'
p1656
F0.0
tp1657
a(S'stringfwd.h'
p1658
F0.0
tp1659
a(S'Sound.cpp'
p1660
F0.0
tp1661
a(S'Time.hpp'
p1662
F0.0
tp1663
a(S'ALCheck.hpp'
p1664
F0.0
tp1665
a(S'Vector3.hpp'
p1666
F0.0
tp1667
a(S'Config.hpp'
p1668
F0.0
tp1669
asS'capability'
p1670
(lp1671
(S'al.h'
p1672
F0.5333333333333333
tp1673
a(S'Vector3.inl'
p1674
F0.0
tp1675
a(S'c++config.h'
p1676
F0.0
tp1677
a(S'alc.h'
p1678
F0.0
tp1679
a(S'SoundBuffer.hpp'
p1680
F0.0
tp1681
a(S'stl_set.h'
p1682
F0.0
tp1683
a(S'SoundSource.hpp'
p1684
F0.0
tp1685
a(S'Sound.hpp'
p1686
F0.0
tp1687
a(S'stl_vector.h'
p1688
F0.0
tp1689
a(S'AlResource.hpp'
p1690
F0.0
tp1691
a(S'stringfwd.h'
p1692
F0.0
tp1693
a(S'Sound.cpp'
p1694
F0.0
tp1695
a(S'Time.hpp'
p1696
F0.0
tp1697
a(S'ALCheck.hpp'
p1698
F0.0
tp1699
a(S'Vector3.hpp'
p1700
F0.0
tp1701
a(S'Config.hpp'
p1702
F0.0
tp1703
asS'alGetEnumValue'
p1704
(lp1705
(S'al.h'
p1706
F0.08888888888888889
tp1707
a(S'Vector3.inl'
p1708
F0.0
tp1709
a(S'c++config.h'
p1710
F0.0
tp1711
a(S'alc.h'
p1712
F0.0
tp1713
a(S'SoundBuffer.hpp'
p1714
F0.0
tp1715
a(S'stl_set.h'
p1716
F0.0
tp1717
a(S'SoundSource.hpp'
p1718
F0.0
tp1719
a(S'Sound.hpp'
p1720
F0.0
tp1721
a(S'stl_vector.h'
p1722
F0.0
tp1723
a(S'AlResource.hpp'
p1724
F0.0
tp1725
a(S'stringfwd.h'
p1726
F0.0
tp1727
a(S'Sound.cpp'
p1728
F0.0
tp1729
a(S'Time.hpp'
p1730
F0.0
tp1731
a(S'ALCheck.hpp'
p1732
F0.0
tp1733
a(S'Vector3.hpp'
p1734
F0.0
tp1735
a(S'Config.hpp'
p1736
F0.0
tp1737
asS'alListenerf'
p1738
(lp1739
(S'al.h'
p1740
F0.08888888888888889
tp1741
a(S'Vector3.inl'
p1742
F0.0
tp1743
a(S'c++config.h'
p1744
F0.0
tp1745
a(S'alc.h'
p1746
F0.0
tp1747
a(S'SoundBuffer.hpp'
p1748
F0.0
tp1749
a(S'stl_set.h'
p1750
F0.0
tp1751
a(S'SoundSource.hpp'
p1752
F0.0
tp1753
a(S'Sound.hpp'
p1754
F0.0
tp1755
a(S'stl_vector.h'
p1756
F0.0
tp1757
a(S'AlResource.hpp'
p1758
F0.0
tp1759
a(S'stringfwd.h'
p1760
F0.0
tp1761
a(S'Sound.cpp'
p1762
F0.0
tp1763
a(S'Time.hpp'
p1764
F0.0
tp1765
a(S'ALCheck.hpp'
p1766
F0.0
tp1767
a(S'Vector3.hpp'
p1768
F0.0
tp1769
a(S'Config.hpp'
p1770
F0.0
tp1771
asS'alcGetProcAddress'
p1772
(lp1773
(S'alc.h'
p1774
F0.22857142857142856
tp1775
a(S'Vector3.inl'
p1776
F0.0
tp1777
a(S'al.h'
p1778
F0.0
tp1779
a(S'c++config.h'
p1780
F0.0
tp1781
a(S'SoundBuffer.hpp'
p1782
F0.0
tp1783
a(S'stl_set.h'
p1784
F0.0
tp1785
a(S'SoundSource.hpp'
p1786
F0.0
tp1787
a(S'Sound.hpp'
p1788
F0.0
tp1789
a(S'stl_vector.h'
p1790
F0.0
tp1791
a(S'AlResource.hpp'
p1792
F0.0
tp1793
a(S'stringfwd.h'
p1794
F0.0
tp1795
a(S'Sound.cpp'
p1796
F0.0
tp1797
a(S'Time.hpp'
p1798
F0.0
tp1799
a(S'ALCheck.hpp'
p1800
F0.0
tp1801
a(S'Vector3.hpp'
p1802
F0.0
tp1803
a(S'Config.hpp'
p1804
F0.0
tp1805
asS'alSourceStop'
p1806
(lp1807
(S'Sound.cpp'
p1808
F0.19047619047619047
tp1809
a(S'al.h'
p1810
F0.044444444444444446
tp1811
a(S'Vector3.inl'
p1812
F0.0
tp1813
a(S'c++config.h'
p1814
F0.0
tp1815
a(S'alc.h'
p1816
F0.0
tp1817
a(S'SoundBuffer.hpp'
p1818
F0.0
tp1819
a(S'stl_set.h'
p1820
F0.0
tp1821
a(S'SoundSource.hpp'
p1822
F0.0
tp1823
a(S'Sound.hpp'
p1824
F0.0
tp1825
a(S'stl_vector.h'
p1826
F0.0
tp1827
a(S'AlResource.hpp'
p1828
F0.0
tp1829
a(S'stringfwd.h'
p1830
F0.0
tp1831
a(S'Time.hpp'
p1832
F0.0
tp1833
a(S'ALCheck.hpp'
p1834
F0.0
tp1835
a(S'Vector3.hpp'
p1836
F0.0
tp1837
a(S'Config.hpp'
p1838
F0.0
tp1839
asS'alListeneri'
p1840
(lp1841
(S'al.h'
p1842
F0.08888888888888889
tp1843
a(S'Vector3.inl'
p1844
F0.0
tp1845
a(S'c++config.h'
p1846
F0.0
tp1847
a(S'alc.h'
p1848
F0.0
tp1849
a(S'SoundBuffer.hpp'
p1850
F0.0
tp1851
a(S'stl_set.h'
p1852
F0.0
tp1853
a(S'SoundSource.hpp'
p1854
F0.0
tp1855
a(S'Sound.hpp'
p1856
F0.0
tp1857
a(S'stl_vector.h'
p1858
F0.0
tp1859
a(S'AlResource.hpp'
p1860
F0.0
tp1861
a(S'stringfwd.h'
p1862
F0.0
tp1863
a(S'Sound.cpp'
p1864
F0.0
tp1865
a(S'Time.hpp'
p1866
F0.0
tp1867
a(S'ALCheck.hpp'
p1868
F0.0
tp1869
a(S'Vector3.hpp'
p1870
F0.0
tp1871
a(S'Config.hpp'
p1872
F0.0
tp1873
asS'alBufferf'
p1874
(lp1875
(S'al.h'
p1876
F0.08888888888888889
tp1877
a(S'Vector3.inl'
p1878
F0.0
tp1879
a(S'c++config.h'
p1880
F0.0
tp1881
a(S'alc.h'
p1882
F0.0
tp1883
a(S'SoundBuffer.hpp'
p1884
F0.0
tp1885
a(S'stl_set.h'
p1886
F0.0
tp1887
a(S'SoundSource.hpp'
p1888
F0.0
tp1889
a(S'Sound.hpp'
p1890
F0.0
tp1891
a(S'stl_vector.h'
p1892
F0.0
tp1893
a(S'AlResource.hpp'
p1894
F0.0
tp1895
a(S'stringfwd.h'
p1896
F0.0
tp1897
a(S'Sound.cpp'
p1898
F0.0
tp1899
a(S'Time.hpp'
p1900
F0.0
tp1901
a(S'ALCheck.hpp'
p1902
F0.0
tp1903
a(S'Vector3.hpp'
p1904
F0.0
tp1905
a(S'Config.hpp'
p1906
F0.0
tp1907
asS'alGetError'
p1908
(lp1909
(S'al.h'
p1910
F0.08888888888888889
tp1911
a(S'Vector3.inl'
p1912
F0.0
tp1913
a(S'c++config.h'
p1914
F0.0
tp1915
a(S'alc.h'
p1916
F0.0
tp1917
a(S'SoundBuffer.hpp'
p1918
F0.0
tp1919
a(S'stl_set.h'
p1920
F0.0
tp1921
a(S'SoundSource.hpp'
p1922
F0.0
tp1923
a(S'Sound.hpp'
p1924
F0.0
tp1925
a(S'stl_vector.h'
p1926
F0.0
tp1927
a(S'AlResource.hpp'
p1928
F0.0
tp1929
a(S'stringfwd.h'
p1930
F0.0
tp1931
a(S'Sound.cpp'
p1932
F0.0
tp1933
a(S'Time.hpp'
p1934
F0.0
tp1935
a(S'ALCheck.hpp'
p1936
F0.0
tp1937
a(S'Vector3.hpp'
p1938
F0.0
tp1939
a(S'Config.hpp'
p1940
F0.0
tp1941
asS'alGetListenerfv'
p1942
(lp1943
(S'al.h'
p1944
F0.08888888888888889
tp1945
a(S'Vector3.inl'
p1946
F0.0
tp1947
a(S'c++config.h'
p1948
F0.0
tp1949
a(S'alc.h'
p1950
F0.0
tp1951
a(S'SoundBuffer.hpp'
p1952
F0.0
tp1953
a(S'stl_set.h'
p1954
F0.0
tp1955
a(S'SoundSource.hpp'
p1956
F0.0
tp1957
a(S'Sound.hpp'
p1958
F0.0
tp1959
a(S'stl_vector.h'
p1960
F0.0
tp1961
a(S'AlResource.hpp'
p1962
F0.0
tp1963
a(S'stringfwd.h'
p1964
F0.0
tp1965
a(S'Sound.cpp'
p1966
F0.0
tp1967
a(S'Time.hpp'
p1968
F0.0
tp1969
a(S'ALCheck.hpp'
p1970
F0.0
tp1971
a(S'Vector3.hpp'
p1972
F0.0
tp1973
a(S'Config.hpp'
p1974
F0.0
tp1975
asS'right'
p1976
(lp1977
(S'Time.hpp'
p1978
F4.571428571428571
tp1979
a(S'Vector3.inl'
p1980
F1.093167701863354
tp1981
a(S'Vector3.hpp'
p1982
F0.9312169312169312
tp1983
a(S'SoundSource.hpp'
p1984
F0.09523809523809523
tp1985
a(S'Sound.hpp'
p1986
F0.07619047619047618
tp1987
a(S'SoundBuffer.hpp'
p1988
F0.06177606177606178
tp1989
a(S'Sound.cpp'
p1990
F0.054421768707482984
tp1991
a(S'al.h'
p1992
F0.0
tp1993
a(S'c++config.h'
p1994
F0.0
tp1995
a(S'alc.h'
p1996
F0.0
tp1997
a(S'stl_set.h'
p1998
F0.0
tp1999
a(S'stl_vector.h'
p2000
F0.0
tp2001
a(S'AlResource.hpp'
p2002
F0.0
tp2003
a(S'stringfwd.h'
p2004
F0.0
tp2005
a(S'ALCheck.hpp'
p2006
F0.0
tp2007
a(S'Config.hpp'
p2008
F0.0
tp2009
asS'Y'
p2010
(lp2011
(S'Vector3.inl'
p2012
F0.34782608695652173
tp2013
a(S'Vector3.hpp'
p2014
F0.2962962962962963
tp2015
a(S'al.h'
p2016
F0.0
tp2017
a(S'c++config.h'
p2018
F0.0
tp2019
a(S'alc.h'
p2020
F0.0
tp2021
a(S'SoundBuffer.hpp'
p2022
F0.0
tp2023
a(S'stl_set.h'
p2024
F0.0
tp2025
a(S'SoundSource.hpp'
p2026
F0.0
tp2027
a(S'Sound.hpp'
p2028
F0.0
tp2029
a(S'stl_vector.h'
p2030
F0.0
tp2031
a(S'AlResource.hpp'
p2032
F0.0
tp2033
a(S'stringfwd.h'
p2034
F0.0
tp2035
a(S'Sound.cpp'
p2036
F0.0
tp2037
a(S'Time.hpp'
p2038
F0.0
tp2039
a(S'ALCheck.hpp'
p2040
F0.0
tp2041
a(S'Config.hpp'
p2042
F0.0
tp2043
asS'alcCloseDevice'
p2044
(lp2045
(S'alc.h'
p2046
F0.22857142857142856
tp2047
a(S'Vector3.inl'
p2048
F0.0
tp2049
a(S'al.h'
p2050
F0.0
tp2051
a(S'c++config.h'
p2052
F0.0
tp2053
a(S'SoundBuffer.hpp'
p2054
F0.0
tp2055
a(S'stl_set.h'
p2056
F0.0
tp2057
a(S'SoundSource.hpp'
p2058
F0.0
tp2059
a(S'Sound.hpp'
p2060
F0.0
tp2061
a(S'stl_vector.h'
p2062
F0.0
tp2063
a(S'AlResource.hpp'
p2064
F0.0
tp2065
a(S'stringfwd.h'
p2066
F0.0
tp2067
a(S'Sound.cpp'
p2068
F0.0
tp2069
a(S'Time.hpp'
p2070
F0.0
tp2071
a(S'ALCheck.hpp'
p2072
F0.0
tp2073
a(S'Vector3.hpp'
p2074
F0.0
tp2075
a(S'Config.hpp'
p2076
F0.0
tp2077
asS'pitch'
p2078
(lp2079
(S'SoundSource.hpp'
p2080
F0.6666666666666666
tp2081
a(S'Vector3.inl'
p2082
F0.0
tp2083
a(S'al.h'
p2084
F0.0
tp2085
a(S'c++config.h'
p2086
F0.0
tp2087
a(S'alc.h'
p2088
F0.0
tp2089
a(S'SoundBuffer.hpp'
p2090
F0.0
tp2091
a(S'stl_set.h'
p2092
F0.0
tp2093
a(S'Sound.hpp'
p2094
F0.0
tp2095
a(S'stl_vector.h'
p2096
F0.0
tp2097
a(S'AlResource.hpp'
p2098
F0.0
tp2099
a(S'stringfwd.h'
p2100
F0.0
tp2101
a(S'Sound.cpp'
p2102
F0.0
tp2103
a(S'Time.hpp'
p2104
F0.0
tp2105
a(S'ALCheck.hpp'
p2106
F0.0
tp2107
a(S'Vector3.hpp'
p2108
F0.0
tp2109
a(S'Config.hpp'
p2110
F0.0
tp2111
asS'copy'
p2112
(lp2113
(S'SoundSource.hpp'
p2114
F0.16666666666666666
tp2115
a(S'Sound.hpp'
p2116
F0.13333333333333333
tp2117
a(S'SoundBuffer.hpp'
p2118
F0.10810810810810811
tp2119
a(S'Sound.cpp'
p2120
F0.09523809523809523
tp2121
a(S'Vector3.inl'
p2122
F0.0
tp2123
a(S'al.h'
p2124
F0.0
tp2125
a(S'c++config.h'
p2126
F0.0
tp2127
a(S'alc.h'
p2128
F0.0
tp2129
a(S'stl_set.h'
p2130
F0.0
tp2131
a(S'stl_vector.h'
p2132
F0.0
tp2133
a(S'AlResource.hpp'
p2134
F0.0
tp2135
a(S'stringfwd.h'
p2136
F0.0
tp2137
a(S'Time.hpp'
p2138
F0.0
tp2139
a(S'ALCheck.hpp'
p2140
F0.0
tp2141
a(S'Vector3.hpp'
p2142
F0.0
tp2143
a(S'Config.hpp'
p2144
F0.0
tp2145
asS'm_buffer'
p2146
(lp2147
(S'Sound.cpp'
p2148
F0.25396825396825395
tp2149
a(S'Sound.hpp'
p2150
F0.17777777777777776
tp2151
a(S'SoundBuffer.hpp'
p2152
F0.14414414414414414
tp2153
a(S'Vector3.inl'
p2154
F0.0
tp2155
a(S'al.h'
p2156
F0.0
tp2157
a(S'c++config.h'
p2158
F0.0
tp2159
a(S'alc.h'
p2160
F0.0
tp2161
a(S'stl_set.h'
p2162
F0.0
tp2163
a(S'SoundSource.hpp'
p2164
F0.0
tp2165
a(S'stl_vector.h'
p2166
F0.0
tp2167
a(S'AlResource.hpp'
p2168
F0.0
tp2169
a(S'stringfwd.h'
p2170
F0.0
tp2171
a(S'Time.hpp'
p2172
F0.0
tp2173
a(S'ALCheck.hpp'
p2174
F0.0
tp2175
a(S'Vector3.hpp'
p2176
F0.0
tp2177
a(S'Config.hpp'
p2178
F0.0
tp2179
asS'Status'
p2180
(lp2181
(S'SoundSource.hpp'
p2182
F0.2222222222222222
tp2183
a(S'Sound.hpp'
p2184
F0.17777777777777776
tp2185
a(S'Sound.cpp'
p2186
F0.12698412698412698
tp2187
a(S'Vector3.inl'
p2188
F0.0
tp2189
a(S'al.h'
p2190
F0.0
tp2191
a(S'c++config.h'
p2192
F0.0
tp2193
a(S'alc.h'
p2194
F0.0
tp2195
a(S'SoundBuffer.hpp'
p2196
F0.0
tp2197
a(S'stl_set.h'
p2198
F0.0
tp2199
a(S'stl_vector.h'
p2200
F0.0
tp2201
a(S'AlResource.hpp'
p2202
F0.0
tp2203
a(S'stringfwd.h'
p2204
F0.0
tp2205
a(S'Time.hpp'
p2206
F0.0
tp2207
a(S'ALCheck.hpp'
p2208
F0.0
tp2209
a(S'Vector3.hpp'
p2210
F0.0
tp2211
a(S'Config.hpp'
p2212
F0.0
tp2213
asS'alDeleteBuffers'
p2214
(lp2215
(S'al.h'
p2216
F0.08888888888888889
tp2217
a(S'Vector3.inl'
p2218
F0.0
tp2219
a(S'c++config.h'
p2220
F0.0
tp2221
a(S'alc.h'
p2222
F0.0
tp2223
a(S'SoundBuffer.hpp'
p2224
F0.0
tp2225
a(S'stl_set.h'
p2226
F0.0
tp2227
a(S'SoundSource.hpp'
p2228
F0.0
tp2229
a(S'Sound.hpp'
p2230
F0.0
tp2231
a(S'stl_vector.h'
p2232
F0.0
tp2233
a(S'AlResource.hpp'
p2234
F0.0
tp2235
a(S'stringfwd.h'
p2236
F0.0
tp2237
a(S'Sound.cpp'
p2238
F0.0
tp2239
a(S'Time.hpp'
p2240
F0.0
tp2241
a(S'ALCheck.hpp'
p2242
F0.0
tp2243
a(S'Vector3.hpp'
p2244
F0.0
tp2245
a(S'Config.hpp'
p2246
F0.0
tp2247
asS'alcMakeContextCurrent'
p2248
(lp2249
(S'alc.h'
p2250
F0.22857142857142856
tp2251
a(S'Vector3.inl'
p2252
F0.0
tp2253
a(S'al.h'
p2254
F0.0
tp2255
a(S'c++config.h'
p2256
F0.0
tp2257
a(S'SoundBuffer.hpp'
p2258
F0.0
tp2259
a(S'stl_set.h'
p2260
F0.0
tp2261
a(S'SoundSource.hpp'
p2262
F0.0
tp2263
a(S'Sound.hpp'
p2264
F0.0
tp2265
a(S'stl_vector.h'
p2266
F0.0
tp2267
a(S'AlResource.hpp'
p2268
F0.0
tp2269
a(S'stringfwd.h'
p2270
F0.0
tp2271
a(S'Sound.cpp'
p2272
F0.0
tp2273
a(S'Time.hpp'
p2274
F0.0
tp2275
a(S'ALCheck.hpp'
p2276
F0.0
tp2277
a(S'Vector3.hpp'
p2278
F0.0
tp2279
a(S'Config.hpp'
p2280
F0.0
tp2281
asS'loadFromSamples'
p2282
(lp2283
(S'Vector3.inl'
p2284
I0
tp2285
a(S'al.h'
p2286
I0
tp2287
a(S'c++config.h'
p2288
I0
tp2289
a(S'alc.h'
p2290
I0
tp2291
a(S'SoundBuffer.hpp'
p2292
I0
tp2293
a(S'stl_set.h'
p2294
I0
tp2295
a(S'SoundSource.hpp'
p2296
I0
tp2297
a(S'Sound.hpp'
p2298
I0
tp2299
a(S'stl_vector.h'
p2300
I0
tp2301
a(S'AlResource.hpp'
p2302
I0
tp2303
a(S'stringfwd.h'
p2304
I0
tp2305
a(S'Sound.cpp'
p2306
I0
tp2307
a(S'Time.hpp'
p2308
I0
tp2309
a(S'ALCheck.hpp'
p2310
I0
tp2311
a(S'Vector3.hpp'
p2312
I0
tp2313
a(S'Config.hpp'
p2314
I0
tp2315
asS'alGetBoolean'
p2316
(lp2317
(S'al.h'
p2318
F0.08888888888888889
tp2319
a(S'Vector3.inl'
p2320
F0.0
tp2321
a(S'c++config.h'
p2322
F0.0
tp2323
a(S'alc.h'
p2324
F0.0
tp2325
a(S'SoundBuffer.hpp'
p2326
F0.0
tp2327
a(S'stl_set.h'
p2328
F0.0
tp2329
a(S'SoundSource.hpp'
p2330
F0.0
tp2331
a(S'Sound.hpp'
p2332
F0.0
tp2333
a(S'stl_vector.h'
p2334
F0.0
tp2335
a(S'AlResource.hpp'
p2336
F0.0
tp2337
a(S'stringfwd.h'
p2338
F0.0
tp2339
a(S'Sound.cpp'
p2340
F0.0
tp2341
a(S'Time.hpp'
p2342
F0.0
tp2343
a(S'ALCheck.hpp'
p2344
F0.0
tp2345
a(S'Vector3.hpp'
p2346
F0.0
tp2347
a(S'Config.hpp'
p2348
F0.0
tp2349
asS'alListener3f'
p2350
(lp2351
(S'al.h'
p2352
F0.08888888888888889
tp2353
a(S'Vector3.inl'
p2354
F0.0
tp2355
a(S'c++config.h'
p2356
F0.0
tp2357
a(S'alc.h'
p2358
F0.0
tp2359
a(S'SoundBuffer.hpp'
p2360
F0.0
tp2361
a(S'stl_set.h'
p2362
F0.0
tp2363
a(S'SoundSource.hpp'
p2364
F0.0
tp2365
a(S'Sound.hpp'
p2366
F0.0
tp2367
a(S'stl_vector.h'
p2368
F0.0
tp2369
a(S'AlResource.hpp'
p2370
F0.0
tp2371
a(S'stringfwd.h'
p2372
F0.0
tp2373
a(S'Sound.cpp'
p2374
F0.0
tp2375
a(S'Time.hpp'
p2376
F0.0
tp2377
a(S'ALCheck.hpp'
p2378
F0.0
tp2379
a(S'Vector3.hpp'
p2380
F0.0
tp2381
a(S'Config.hpp'
p2382
F0.0
tp2383
asS'getAttenuation'
p2384
(lp2385
(S'Vector3.inl'
p2386
I0
tp2387
a(S'al.h'
p2388
I0
tp2389
a(S'c++config.h'
p2390
I0
tp2391
a(S'alc.h'
p2392
I0
tp2393
a(S'SoundBuffer.hpp'
p2394
I0
tp2395
a(S'stl_set.h'
p2396
I0
tp2397
a(S'SoundSource.hpp'
p2398
I0
tp2399
a(S'Sound.hpp'
p2400
I0
tp2401
a(S'stl_vector.h'
p2402
I0
tp2403
a(S'AlResource.hpp'
p2404
I0
tp2405
a(S'stringfwd.h'
p2406
I0
tp2407
a(S'Sound.cpp'
p2408
I0
tp2409
a(S'Time.hpp'
p2410
I0
tp2411
a(S'ALCheck.hpp'
p2412
I0
tp2413
a(S'Vector3.hpp'
p2414
I0
tp2415
a(S'Config.hpp'
p2416
I0
tp2417
asS'alListener3i'
p2418
(lp2419
(S'al.h'
p2420
F0.08888888888888889
tp2421
a(S'Vector3.inl'
p2422
F0.0
tp2423
a(S'c++config.h'
p2424
F0.0
tp2425
a(S'alc.h'
p2426
F0.0
tp2427
a(S'SoundBuffer.hpp'
p2428
F0.0
tp2429
a(S'stl_set.h'
p2430
F0.0
tp2431
a(S'SoundSource.hpp'
p2432
F0.0
tp2433
a(S'Sound.hpp'
p2434
F0.0
tp2435
a(S'stl_vector.h'
p2436
F0.0
tp2437
a(S'AlResource.hpp'
p2438
F0.0
tp2439
a(S'stringfwd.h'
p2440
F0.0
tp2441
a(S'Sound.cpp'
p2442
F0.0
tp2443
a(S'Time.hpp'
p2444
F0.0
tp2445
a(S'ALCheck.hpp'
p2446
F0.0
tp2447
a(S'Vector3.hpp'
p2448
F0.0
tp2449
a(S'Config.hpp'
p2450
F0.0
tp2451
asS'operator>='
p2452
(lp2453
(S'Vector3.inl'
p2454
I0
tp2455
a(S'al.h'
p2456
I0
tp2457
a(S'c++config.h'
p2458
I0
tp2459
a(S'alc.h'
p2460
I0
tp2461
a(S'SoundBuffer.hpp'
p2462
I0
tp2463
a(S'stl_set.h'
p2464
I0
tp2465
a(S'SoundSource.hpp'
p2466
I0
tp2467
a(S'Sound.hpp'
p2468
I0
tp2469
a(S'stl_vector.h'
p2470
I0
tp2471
a(S'AlResource.hpp'
p2472
I0
tp2473
a(S'stringfwd.h'
p2474
I0
tp2475
a(S'Sound.cpp'
p2476
I0
tp2477
a(S'Time.hpp'
p2478
I0
tp2479
a(S'ALCheck.hpp'
p2480
I0
tp2481
a(S'Vector3.hpp'
p2482
I0
tp2483
a(S'Config.hpp'
p2484
I0
tp2485
asS'buffers'
p2486
(lp2487
(S'al.h'
p2488
F0.7111111111111111
tp2489
a(S'Vector3.inl'
p2490
F0.0
tp2491
a(S'c++config.h'
p2492
F0.0
tp2493
a(S'alc.h'
p2494
F0.0
tp2495
a(S'SoundBuffer.hpp'
p2496
F0.0
tp2497
a(S'stl_set.h'
p2498
F0.0
tp2499
a(S'SoundSource.hpp'
p2500
F0.0
tp2501
a(S'Sound.hpp'
p2502
F0.0
tp2503
a(S'stl_vector.h'
p2504
F0.0
tp2505
a(S'AlResource.hpp'
p2506
F0.0
tp2507
a(S'stringfwd.h'
p2508
F0.0
tp2509
a(S'Sound.cpp'
p2510
F0.0
tp2511
a(S'Time.hpp'
p2512
F0.0
tp2513
a(S'ALCheck.hpp'
p2514
F0.0
tp2515
a(S'Vector3.hpp'
p2516
F0.0
tp2517
a(S'Config.hpp'
p2518
F0.0
tp2519
asS'alGetSourcefv'
p2520
(lp2521
(S'al.h'
p2522
F0.08888888888888889
tp2523
a(S'Vector3.inl'
p2524
F0.0
tp2525
a(S'c++config.h'
p2526
F0.0
tp2527
a(S'alc.h'
p2528
F0.0
tp2529
a(S'SoundBuffer.hpp'
p2530
F0.0
tp2531
a(S'stl_set.h'
p2532
F0.0
tp2533
a(S'SoundSource.hpp'
p2534
F0.0
tp2535
a(S'Sound.hpp'
p2536
F0.0
tp2537
a(S'stl_vector.h'
p2538
F0.0
tp2539
a(S'AlResource.hpp'
p2540
F0.0
tp2541
a(S'stringfwd.h'
p2542
F0.0
tp2543
a(S'Sound.cpp'
p2544
F0.0
tp2545
a(S'Time.hpp'
p2546
F0.0
tp2547
a(S'ALCheck.hpp'
p2548
F0.0
tp2549
a(S'Vector3.hpp'
p2550
F0.0
tp2551
a(S'Config.hpp'
p2552
F0.0
tp2553
asS'operator-='
p2554
(lp2555
(S'Vector3.inl'
p2556
F0.34782608695652173
tp2557
a(S'Vector3.hpp'
p2558
F0.2962962962962963
tp2559
a(S'al.h'
p2560
F0.0
tp2561
a(S'c++config.h'
p2562
F0.0
tp2563
a(S'alc.h'
p2564
F0.0
tp2565
a(S'SoundBuffer.hpp'
p2566
F0.0
tp2567
a(S'stl_set.h'
p2568
F0.0
tp2569
a(S'SoundSource.hpp'
p2570
F0.0
tp2571
a(S'Sound.hpp'
p2572
F0.0
tp2573
a(S'stl_vector.h'
p2574
F0.0
tp2575
a(S'AlResource.hpp'
p2576
F0.0
tp2577
a(S'stringfwd.h'
p2578
F0.0
tp2579
a(S'Sound.cpp'
p2580
F0.0
tp2581
a(S'Time.hpp'
p2582
F0.0
tp2583
a(S'ALCheck.hpp'
p2584
F0.0
tp2585
a(S'Config.hpp'
p2586
F0.0
tp2587
asS'alSource3f'
p2588
(lp2589
(S'al.h'
p2590
F0.08888888888888889
tp2591
a(S'Vector3.inl'
p2592
F0.0
tp2593
a(S'c++config.h'
p2594
F0.0
tp2595
a(S'alc.h'
p2596
F0.0
tp2597
a(S'SoundBuffer.hpp'
p2598
F0.0
tp2599
a(S'stl_set.h'
p2600
F0.0
tp2601
a(S'SoundSource.hpp'
p2602
F0.0
tp2603
a(S'Sound.hpp'
p2604
F0.0
tp2605
a(S'stl_vector.h'
p2606
F0.0
tp2607
a(S'AlResource.hpp'
p2608
F0.0
tp2609
a(S'stringfwd.h'
p2610
F0.0
tp2611
a(S'Sound.cpp'
p2612
F0.0
tp2613
a(S'Time.hpp'
p2614
F0.0
tp2615
a(S'ALCheck.hpp'
p2616
F0.0
tp2617
a(S'Vector3.hpp'
p2618
F0.0
tp2619
a(S'Config.hpp'
p2620
F0.0
tp2621
asS'setAttenuation'
p2622
(lp2623
(S'Vector3.inl'
p2624
I0
tp2625
a(S'al.h'
p2626
I0
tp2627
a(S'c++config.h'
p2628
I0
tp2629
a(S'alc.h'
p2630
I0
tp2631
a(S'SoundBuffer.hpp'
p2632
I0
tp2633
a(S'stl_set.h'
p2634
I0
tp2635
a(S'SoundSource.hpp'
p2636
I0
tp2637
a(S'Sound.hpp'
p2638
I0
tp2639
a(S'stl_vector.h'
p2640
I0
tp2641
a(S'AlResource.hpp'
p2642
I0
tp2643
a(S'stringfwd.h'
p2644
I0
tp2645
a(S'Sound.cpp'
p2646
I0
tp2647
a(S'Time.hpp'
p2648
I0
tp2649
a(S'ALCheck.hpp'
p2650
I0
tp2651
a(S'Vector3.hpp'
p2652
I0
tp2653
a(S'Config.hpp'
p2654
I0
tp2655
asS'position'
p2656
(lp2657
(S'SoundSource.hpp'
p2658
F0.6666666666666666
tp2659
a(S'Vector3.inl'
p2660
F0.0
tp2661
a(S'al.h'
p2662
F0.0
tp2663
a(S'c++config.h'
p2664
F0.0
tp2665
a(S'alc.h'
p2666
F0.0
tp2667
a(S'SoundBuffer.hpp'
p2668
F0.0
tp2669
a(S'stl_set.h'
p2670
F0.0
tp2671
a(S'Sound.hpp'
p2672
F0.0
tp2673
a(S'stl_vector.h'
p2674
F0.0
tp2675
a(S'AlResource.hpp'
p2676
F0.0
tp2677
a(S'stringfwd.h'
p2678
F0.0
tp2679
a(S'Sound.cpp'
p2680
F0.0
tp2681
a(S'Time.hpp'
p2682
F0.0
tp2683
a(S'ALCheck.hpp'
p2684
F0.0
tp2685
a(S'Vector3.hpp'
p2686
F0.0
tp2687
a(S'Config.hpp'
p2688
F0.0
tp2689
asS'alSource3i'
p2690
(lp2691
(S'al.h'
p2692
F0.08888888888888889
tp2693
a(S'Vector3.inl'
p2694
F0.0
tp2695
a(S'c++config.h'
p2696
F0.0
tp2697
a(S'alc.h'
p2698
F0.0
tp2699
a(S'SoundBuffer.hpp'
p2700
F0.0
tp2701
a(S'stl_set.h'
p2702
F0.0
tp2703
a(S'SoundSource.hpp'
p2704
F0.0
tp2705
a(S'Sound.hpp'
p2706
F0.0
tp2707
a(S'stl_vector.h'
p2708
F0.0
tp2709
a(S'AlResource.hpp'
p2710
F0.0
tp2711
a(S'stringfwd.h'
p2712
F0.0
tp2713
a(S'Sound.cpp'
p2714
F0.0
tp2715
a(S'Time.hpp'
p2716
F0.0
tp2717
a(S'ALCheck.hpp'
p2718
F0.0
tp2719
a(S'Vector3.hpp'
p2720
F0.0
tp2721
a(S'Config.hpp'
p2722
F0.0
tp2723
asS'getStatus'
p2724
(lp2725
(S'Sound.hpp'
p2726
F0.26666666666666666
tp2727
a(S'Sound.cpp'
p2728
F0.19047619047619047
tp2729
a(S'Vector3.inl'
p2730
F0.0
tp2731
a(S'al.h'
p2732
F0.0
tp2733
a(S'c++config.h'
p2734
F0.0
tp2735
a(S'alc.h'
p2736
F0.0
tp2737
a(S'SoundBuffer.hpp'
p2738
F0.0
tp2739
a(S'stl_set.h'
p2740
F0.0
tp2741
a(S'SoundSource.hpp'
p2742
F0.0
tp2743
a(S'stl_vector.h'
p2744
F0.0
tp2745
a(S'AlResource.hpp'
p2746
F0.0
tp2747
a(S'stringfwd.h'
p2748
F0.0
tp2749
a(S'Time.hpp'
p2750
F0.0
tp2751
a(S'ALCheck.hpp'
p2752
F0.0
tp2753
a(S'Vector3.hpp'
p2754
F0.0
tp2755
a(S'Config.hpp'
p2756
F0.0
tp2757
asS'filename'
p2758
(lp2759
(S'SoundBuffer.hpp'
p2760
F0.8648648648648649
tp2761
a(S'Vector3.inl'
p2762
F0.0
tp2763
a(S'al.h'
p2764
F0.0
tp2765
a(S'c++config.h'
p2766
F0.0
tp2767
a(S'alc.h'
p2768
F0.0
tp2769
a(S'stl_set.h'
p2770
F0.0
tp2771
a(S'SoundSource.hpp'
p2772
F0.0
tp2773
a(S'Sound.hpp'
p2774
F0.0
tp2775
a(S'stl_vector.h'
p2776
F0.0
tp2777
a(S'AlResource.hpp'
p2778
F0.0
tp2779
a(S'stringfwd.h'
p2780
F0.0
tp2781
a(S'Sound.cpp'
p2782
F0.0
tp2783
a(S'Time.hpp'
p2784
F0.0
tp2785
a(S'ALCheck.hpp'
p2786
F0.0
tp2787
a(S'Vector3.hpp'
p2788
F0.0
tp2789
a(S'Config.hpp'
p2790
F0.0
tp2791
asS'sampleCount'
p2792
(lp2793
(S'SoundBuffer.hpp'
p2794
F0.43243243243243246
tp2795
a(S'Vector3.inl'
p2796
F0.0
tp2797
a(S'al.h'
p2798
F0.0
tp2799
a(S'c++config.h'
p2800
F0.0
tp2801
a(S'alc.h'
p2802
F0.0
tp2803
a(S'stl_set.h'
p2804
F0.0
tp2805
a(S'SoundSource.hpp'
p2806
F0.0
tp2807
a(S'Sound.hpp'
p2808
F0.0
tp2809
a(S'stl_vector.h'
p2810
F0.0
tp2811
a(S'AlResource.hpp'
p2812
F0.0
tp2813
a(S'stringfwd.h'
p2814
F0.0
tp2815
a(S'Sound.cpp'
p2816
F0.0
tp2817
a(S'Time.hpp'
p2818
F0.0
tp2819
a(S'ALCheck.hpp'
p2820
F0.0
tp2821
a(S'Vector3.hpp'
p2822
F0.0
tp2823
a(S'Config.hpp'
p2824
F0.0
tp2825
asS'alBufferi'
p2826
(lp2827
(S'al.h'
p2828
F0.08888888888888889
tp2829
a(S'Vector3.inl'
p2830
F0.0
tp2831
a(S'c++config.h'
p2832
F0.0
tp2833
a(S'alc.h'
p2834
F0.0
tp2835
a(S'SoundBuffer.hpp'
p2836
F0.0
tp2837
a(S'stl_set.h'
p2838
F0.0
tp2839
a(S'SoundSource.hpp'
p2840
F0.0
tp2841
a(S'Sound.hpp'
p2842
F0.0
tp2843
a(S'stl_vector.h'
p2844
F0.0
tp2845
a(S'AlResource.hpp'
p2846
F0.0
tp2847
a(S'stringfwd.h'
p2848
F0.0
tp2849
a(S'Sound.cpp'
p2850
F0.0
tp2851
a(S'Time.hpp'
p2852
F0.0
tp2853
a(S'ALCheck.hpp'
p2854
F0.0
tp2855
a(S'Vector3.hpp'
p2856
F0.0
tp2857
a(S'Config.hpp'
p2858
F0.0
tp2859
asS'alSourcePlay'
p2860
(lp2861
(S'Sound.cpp'
p2862
F0.19047619047619047
tp2863
a(S'al.h'
p2864
F0.044444444444444446
tp2865
a(S'Vector3.inl'
p2866
F0.0
tp2867
a(S'c++config.h'
p2868
F0.0
tp2869
a(S'alc.h'
p2870
F0.0
tp2871
a(S'SoundBuffer.hpp'
p2872
F0.0
tp2873
a(S'stl_set.h'
p2874
F0.0
tp2875
a(S'SoundSource.hpp'
p2876
F0.0
tp2877
a(S'Sound.hpp'
p2878
F0.0
tp2879
a(S'stl_vector.h'
p2880
F0.0
tp2881
a(S'AlResource.hpp'
p2882
F0.0
tp2883
a(S'stringfwd.h'
p2884
F0.0
tp2885
a(S'Time.hpp'
p2886
F0.0
tp2887
a(S'ALCheck.hpp'
p2888
F0.0
tp2889
a(S'Vector3.hpp'
p2890
F0.0
tp2891
a(S'Config.hpp'
p2892
F0.0
tp2893
asS'alGetDouble'
p2894
(lp2895
(S'al.h'
p2896
F0.08888888888888889
tp2897
a(S'Vector3.inl'
p2898
F0.0
tp2899
a(S'c++config.h'
p2900
F0.0
tp2901
a(S'alc.h'
p2902
F0.0
tp2903
a(S'SoundBuffer.hpp'
p2904
F0.0
tp2905
a(S'stl_set.h'
p2906
F0.0
tp2907
a(S'SoundSource.hpp'
p2908
F0.0
tp2909
a(S'Sound.hpp'
p2910
F0.0
tp2911
a(S'stl_vector.h'
p2912
F0.0
tp2913
a(S'AlResource.hpp'
p2914
F0.0
tp2915
a(S'stringfwd.h'
p2916
F0.0
tp2917
a(S'Sound.cpp'
p2918
F0.0
tp2919
a(S'Time.hpp'
p2920
F0.0
tp2921
a(S'ALCheck.hpp'
p2922
F0.0
tp2923
a(S'Vector3.hpp'
p2924
F0.0
tp2925
a(S'Config.hpp'
p2926
F0.0
tp2927
asS'alSpeedOfSound'
p2928
(lp2929
(S'al.h'
p2930
F0.08888888888888889
tp2931
a(S'Vector3.inl'
p2932
F0.0
tp2933
a(S'c++config.h'
p2934
F0.0
tp2935
a(S'alc.h'
p2936
F0.0
tp2937
a(S'SoundBuffer.hpp'
p2938
F0.0
tp2939
a(S'stl_set.h'
p2940
F0.0
tp2941
a(S'SoundSource.hpp'
p2942
F0.0
tp2943
a(S'Sound.hpp'
p2944
F0.0
tp2945
a(S'stl_vector.h'
p2946
F0.0
tp2947
a(S'AlResource.hpp'
p2948
F0.0
tp2949
a(S'stringfwd.h'
p2950
F0.0
tp2951
a(S'Sound.cpp'
p2952
F0.0
tp2953
a(S'Time.hpp'
p2954
F0.0
tp2955
a(S'ALCheck.hpp'
p2956
F0.0
tp2957
a(S'Vector3.hpp'
p2958
F0.0
tp2959
a(S'Config.hpp'
p2960
F0.0
tp2961
asS'detachSound'
p2962
(lp2963
(S'Vector3.inl'
p2964
I0
tp2965
a(S'al.h'
p2966
I0
tp2967
a(S'c++config.h'
p2968
I0
tp2969
a(S'alc.h'
p2970
I0
tp2971
a(S'SoundBuffer.hpp'
p2972
I0
tp2973
a(S'stl_set.h'
p2974
I0
tp2975
a(S'SoundSource.hpp'
p2976
I0
tp2977
a(S'Sound.hpp'
p2978
I0
tp2979
a(S'stl_vector.h'
p2980
I0
tp2981
a(S'AlResource.hpp'
p2982
I0
tp2983
a(S'stringfwd.h'
p2984
I0
tp2985
a(S'Sound.cpp'
p2986
I0
tp2987
a(S'Time.hpp'
p2988
I0
tp2989
a(S'ALCheck.hpp'
p2990
I0
tp2991
a(S'Vector3.hpp'
p2992
I0
tp2993
a(S'Config.hpp'
p2994
I0
tp2995
asS'seconds'
p2996
(lp2997
(S'Vector3.inl'
p2998
I0
tp2999
a(S'al.h'
p3000
I0
tp3001
a(S'c++config.h'
p3002
I0
tp3003
a(S'alc.h'
p3004
I0
tp3005
a(S'SoundBuffer.hpp'
p3006
I0
tp3007
a(S'stl_set.h'
p3008
I0
tp3009
a(S'SoundSource.hpp'
p3010
I0
tp3011
a(S'Sound.hpp'
p3012
I0
tp3013
a(S'stl_vector.h'
p3014
I0
tp3015
a(S'AlResource.hpp'
p3016
I0
tp3017
a(S'stringfwd.h'
p3018
I0
tp3019
a(S'Sound.cpp'
p3020
I0
tp3021
a(S'Time.hpp'
p3022
I0
tp3023
a(S'ALCheck.hpp'
p3024
I0
tp3025
a(S'Vector3.hpp'
p3026
I0
tp3027
a(S'Config.hpp'
p3028
I0
tp3029
asS'alIsBuffer'
p3030
(lp3031
(S'al.h'
p3032
F0.08888888888888889
tp3033
a(S'Vector3.inl'
p3034
F0.0
tp3035
a(S'c++config.h'
p3036
F0.0
tp3037
a(S'alc.h'
p3038
F0.0
tp3039
a(S'SoundBuffer.hpp'
p3040
F0.0
tp3041
a(S'stl_set.h'
p3042
F0.0
tp3043
a(S'SoundSource.hpp'
p3044
F0.0
tp3045
a(S'Sound.hpp'
p3046
F0.0
tp3047
a(S'stl_vector.h'
p3048
F0.0
tp3049
a(S'AlResource.hpp'
p3050
F0.0
tp3051
a(S'stringfwd.h'
p3052
F0.0
tp3053
a(S'Sound.cpp'
p3054
F0.0
tp3055
a(S'Time.hpp'
p3056
F0.0
tp3057
a(S'ALCheck.hpp'
p3058
F0.0
tp3059
a(S'Vector3.hpp'
p3060
F0.0
tp3061
a(S'Config.hpp'
p3062
F0.0
tp3063
asS'enumname'
p3064
(lp3065
(S'alc.h'
p3066
F0.45714285714285713
tp3067
a(S'Vector3.inl'
p3068
F0.0
tp3069
a(S'al.h'
p3070
F0.0
tp3071
a(S'c++config.h'
p3072
F0.0
tp3073
a(S'SoundBuffer.hpp'
p3074
F0.0
tp3075
a(S'stl_set.h'
p3076
F0.0
tp3077
a(S'SoundSource.hpp'
p3078
F0.0
tp3079
a(S'Sound.hpp'
p3080
F0.0
tp3081
a(S'stl_vector.h'
p3082
F0.0
tp3083
a(S'AlResource.hpp'
p3084
F0.0
tp3085
a(S'stringfwd.h'
p3086
F0.0
tp3087
a(S'Sound.cpp'
p3088
F0.0
tp3089
a(S'Time.hpp'
p3090
F0.0
tp3091
a(S'ALCheck.hpp'
p3092
F0.0
tp3093
a(S'Vector3.hpp'
p3094
F0.0
tp3095
a(S'Config.hpp'
p3096
F0.0
tp3097
asS'loadFromMemory'
p3098
(lp3099
(S'Vector3.inl'
p3100
I0
tp3101
a(S'al.h'
p3102
I0
tp3103
a(S'c++config.h'
p3104
I0
tp3105
a(S'alc.h'
p3106
I0
tp3107
a(S'SoundBuffer.hpp'
p3108
I0
tp3109
a(S'stl_set.h'
p3110
I0
tp3111
a(S'SoundSource.hpp'
p3112
I0
tp3113
a(S'Sound.hpp'
p3114
I0
tp3115
a(S'stl_vector.h'
p3116
I0
tp3117
a(S'AlResource.hpp'
p3118
I0
tp3119
a(S'stringfwd.h'
p3120
I0
tp3121
a(S'Sound.cpp'
p3122
I0
tp3123
a(S'Time.hpp'
p3124
I0
tp3125
a(S'ALCheck.hpp'
p3126
I0
tp3127
a(S'Vector3.hpp'
p3128
I0
tp3129
a(S'Config.hpp'
p3130
I0
tp3131
asS'getDuration'
p3132
(lp3133
(S'Vector3.inl'
p3134
I0
tp3135
a(S'al.h'
p3136
I0
tp3137
a(S'c++config.h'
p3138
I0
tp3139
a(S'alc.h'
p3140
I0
tp3141
a(S'SoundBuffer.hpp'
p3142
I0
tp3143
a(S'stl_set.h'
p3144
I0
tp3145
a(S'SoundSource.hpp'
p3146
I0
tp3147
a(S'Sound.hpp'
p3148
I0
tp3149
a(S'stl_vector.h'
p3150
I0
tp3151
a(S'AlResource.hpp'
p3152
I0
tp3153
a(S'stringfwd.h'
p3154
I0
tp3155
a(S'Sound.cpp'
p3156
I0
tp3157
a(S'Time.hpp'
p3158
I0
tp3159
a(S'ALCheck.hpp'
p3160
I0
tp3161
a(S'Vector3.hpp'
p3162
I0
tp3163
a(S'Config.hpp'
p3164
I0
tp3165
asS'initialize'
p3166
(lp3167
(S'Vector3.inl'
p3168
I0
tp3169
a(S'al.h'
p3170
I0
tp3171
a(S'c++config.h'
p3172
I0
tp3173
a(S'alc.h'
p3174
I0
tp3175
a(S'SoundBuffer.hpp'
p3176
I0
tp3177
a(S'stl_set.h'
p3178
I0
tp3179
a(S'SoundSource.hpp'
p3180
I0
tp3181
a(S'Sound.hpp'
p3182
I0
tp3183
a(S'stl_vector.h'
p3184
I0
tp3185
a(S'AlResource.hpp'
p3186
I0
tp3187
a(S'stringfwd.h'
p3188
I0
tp3189
a(S'Sound.cpp'
p3190
I0
tp3191
a(S'Time.hpp'
p3192
I0
tp3193
a(S'ALCheck.hpp'
p3194
I0
tp3195
a(S'Vector3.hpp'
p3196
I0
tp3197
a(S'Config.hpp'
p3198
I0
tp3199
asS'setPosition'
p3200
(lp3201
(S'Vector3.inl'
p3202
I0
tp3203
a(S'al.h'
p3204
I0
tp3205
a(S'c++config.h'
p3206
I0
tp3207
a(S'alc.h'
p3208
I0
tp3209
a(S'SoundBuffer.hpp'
p3210
I0
tp3211
a(S'stl_set.h'
p3212
I0
tp3213
a(S'SoundSource.hpp'
p3214
I0
tp3215
a(S'Sound.hpp'
p3216
I0
tp3217
a(S'stl_vector.h'
p3218
I0
tp3219
a(S'AlResource.hpp'
p3220
I0
tp3221
a(S'stringfwd.h'
p3222
I0
tp3223
a(S'Sound.cpp'
p3224
I0
tp3225
a(S'Time.hpp'
p3226
I0
tp3227
a(S'ALCheck.hpp'
p3228
I0
tp3229
a(S'Vector3.hpp'
p3230
I0
tp3231
a(S'Config.hpp'
p3232
I0
tp3233
asS'Vector3<T>'
p3234
(lp3235
(S'Vector3.inl'
p3236
F1.0434782608695652
tp3237
a(S'Vector3.hpp'
p3238
F0.8888888888888888
tp3239
a(S'al.h'
p3240
F0.0
tp3241
a(S'c++config.h'
p3242
F0.0
tp3243
a(S'alc.h'
p3244
F0.0
tp3245
a(S'SoundBuffer.hpp'
p3246
F0.0
tp3247
a(S'stl_set.h'
p3248
F0.0
tp3249
a(S'SoundSource.hpp'
p3250
F0.0
tp3251
a(S'Sound.hpp'
p3252
F0.0
tp3253
a(S'stl_vector.h'
p3254
F0.0
tp3255
a(S'AlResource.hpp'
p3256
F0.0
tp3257
a(S'stringfwd.h'
p3258
F0.0
tp3259
a(S'Sound.cpp'
p3260
F0.0
tp3261
a(S'Time.hpp'
p3262
F0.0
tp3263
a(S'ALCheck.hpp'
p3264
F0.0
tp3265
a(S'Config.hpp'
p3266
F0.0
tp3267
asS'alBufferfv'
p3268
(lp3269
(S'al.h'
p3270
F0.08888888888888889
tp3271
a(S'Vector3.inl'
p3272
F0.0
tp3273
a(S'c++config.h'
p3274
F0.0
tp3275
a(S'alc.h'
p3276
F0.0
tp3277
a(S'SoundBuffer.hpp'
p3278
F0.0
tp3279
a(S'stl_set.h'
p3280
F0.0
tp3281
a(S'SoundSource.hpp'
p3282
F0.0
tp3283
a(S'Sound.hpp'
p3284
F0.0
tp3285
a(S'stl_vector.h'
p3286
F0.0
tp3287
a(S'AlResource.hpp'
p3288
F0.0
tp3289
a(S'stringfwd.h'
p3290
F0.0
tp3291
a(S'Sound.cpp'
p3292
F0.0
tp3293
a(S'Time.hpp'
p3294
F0.0
tp3295
a(S'ALCheck.hpp'
p3296
F0.0
tp3297
a(S'Vector3.hpp'
p3298
F0.0
tp3299
a(S'Config.hpp'
p3300
F0.0
tp3301
asS'alGetListenerf'
p3302
(lp3303
(S'al.h'
p3304
F0.08888888888888889
tp3305
a(S'Vector3.inl'
p3306
F0.0
tp3307
a(S'c++config.h'
p3308
F0.0
tp3309
a(S'alc.h'
p3310
F0.0
tp3311
a(S'SoundBuffer.hpp'
p3312
F0.0
tp3313
a(S'stl_set.h'
p3314
F0.0
tp3315
a(S'SoundSource.hpp'
p3316
F0.0
tp3317
a(S'Sound.hpp'
p3318
F0.0
tp3319
a(S'stl_vector.h'
p3320
F0.0
tp3321
a(S'AlResource.hpp'
p3322
F0.0
tp3323
a(S'stringfwd.h'
p3324
F0.0
tp3325
a(S'Sound.cpp'
p3326
F0.0
tp3327
a(S'Time.hpp'
p3328
F0.0
tp3329
a(S'ALCheck.hpp'
p3330
F0.0
tp3331
a(S'Vector3.hpp'
p3332
F0.0
tp3333
a(S'Config.hpp'
p3334
F0.0
tp3335
asS'alGetListeneri'
p3336
(lp3337
(S'al.h'
p3338
F0.08888888888888889
tp3339
a(S'Vector3.inl'
p3340
F0.0
tp3341
a(S'c++config.h'
p3342
F0.0
tp3343
a(S'alc.h'
p3344
F0.0
tp3345
a(S'SoundBuffer.hpp'
p3346
F0.0
tp3347
a(S'stl_set.h'
p3348
F0.0
tp3349
a(S'SoundSource.hpp'
p3350
F0.0
tp3351
a(S'Sound.hpp'
p3352
F0.0
tp3353
a(S'stl_vector.h'
p3354
F0.0
tp3355
a(S'AlResource.hpp'
p3356
F0.0
tp3357
a(S'stringfwd.h'
p3358
F0.0
tp3359
a(S'Sound.cpp'
p3360
F0.0
tp3361
a(S'Time.hpp'
p3362
F0.0
tp3363
a(S'ALCheck.hpp'
p3364
F0.0
tp3365
a(S'Vector3.hpp'
p3366
F0.0
tp3367
a(S'Config.hpp'
p3368
F0.0
tp3369
asS'alcDestroyContext'
p3370
(lp3371
(S'alc.h'
p3372
F0.22857142857142856
tp3373
a(S'Vector3.inl'
p3374
F0.0
tp3375
a(S'al.h'
p3376
F0.0
tp3377
a(S'c++config.h'
p3378
F0.0
tp3379
a(S'SoundBuffer.hpp'
p3380
F0.0
tp3381
a(S'stl_set.h'
p3382
F0.0
tp3383
a(S'SoundSource.hpp'
p3384
F0.0
tp3385
a(S'Sound.hpp'
p3386
F0.0
tp3387
a(S'stl_vector.h'
p3388
F0.0
tp3389
a(S'AlResource.hpp'
p3390
F0.0
tp3391
a(S'stringfwd.h'
p3392
F0.0
tp3393
a(S'Sound.cpp'
p3394
F0.0
tp3395
a(S'Time.hpp'
p3396
F0.0
tp3397
a(S'ALCheck.hpp'
p3398
F0.0
tp3399
a(S'Vector3.hpp'
p3400
F0.0
tp3401
a(S'Config.hpp'
p3402
F0.0
tp3403
asS'Zero'
p3404
(lp3405
(S'Vector3.inl'
p3406
I0
tp3407
a(S'al.h'
p3408
I0
tp3409
a(S'c++config.h'
p3410
I0
tp3411
a(S'alc.h'
p3412
I0
tp3413
a(S'SoundBuffer.hpp'
p3414
I0
tp3415
a(S'stl_set.h'
p3416
I0
tp3417
a(S'SoundSource.hpp'
p3418
I0
tp3419
a(S'Sound.hpp'
p3420
I0
tp3421
a(S'stl_vector.h'
p3422
I0
tp3423
a(S'AlResource.hpp'
p3424
I0
tp3425
a(S'stringfwd.h'
p3426
I0
tp3427
a(S'Sound.cpp'
p3428
I0
tp3429
a(S'Time.hpp'
p3430
I0
tp3431
a(S'ALCheck.hpp'
p3432
I0
tp3433
a(S'Vector3.hpp'
p3434
I0
tp3435
a(S'Config.hpp'
p3436
I0
tp3437
asS'getSamples'
p3438
(lp3439
(S'Vector3.inl'
p3440
I0
tp3441
a(S'al.h'
p3442
I0
tp3443
a(S'c++config.h'
p3444
I0
tp3445
a(S'alc.h'
p3446
I0
tp3447
a(S'SoundBuffer.hpp'
p3448
I0
tp3449
a(S'stl_set.h'
p3450
I0
tp3451
a(S'SoundSource.hpp'
p3452
I0
tp3453
a(S'Sound.hpp'
p3454
I0
tp3455
a(S'stl_vector.h'
p3456
I0
tp3457
a(S'AlResource.hpp'
p3458
I0
tp3459
a(S'stringfwd.h'
p3460
I0
tp3461
a(S'Sound.cpp'
p3462
I0
tp3463
a(S'Time.hpp'
p3464
I0
tp3465
a(S'ALCheck.hpp'
p3466
I0
tp3467
a(S'Vector3.hpp'
p3468
I0
tp3469
a(S'Config.hpp'
p3470
I0
tp3471
asS'context'
p3472
(lp3473
(S'alc.h'
p3474
F2.2857142857142856
tp3475
a(S'Vector3.inl'
p3476
F0.0
tp3477
a(S'al.h'
p3478
F0.0
tp3479
a(S'c++config.h'
p3480
F0.0
tp3481
a(S'SoundBuffer.hpp'
p3482
F0.0
tp3483
a(S'stl_set.h'
p3484
F0.0
tp3485
a(S'SoundSource.hpp'
p3486
F0.0
tp3487
a(S'Sound.hpp'
p3488
F0.0
tp3489
a(S'stl_vector.h'
p3490
F0.0
tp3491
a(S'AlResource.hpp'
p3492
F0.0
tp3493
a(S'stringfwd.h'
p3494
F0.0
tp3495
a(S'Sound.cpp'
p3496
F0.0
tp3497
a(S'Time.hpp'
p3498
F0.0
tp3499
a(S'ALCheck.hpp'
p3500
F0.0
tp3501
a(S'Vector3.hpp'
p3502
F0.0
tp3503
a(S'Config.hpp'
p3504
F0.0
tp3505
asS'alcCaptureSamples'
p3506
(lp3507
(S'alc.h'
p3508
F0.22857142857142856
tp3509
a(S'Vector3.inl'
p3510
F0.0
tp3511
a(S'al.h'
p3512
F0.0
tp3513
a(S'c++config.h'
p3514
F0.0
tp3515
a(S'SoundBuffer.hpp'
p3516
F0.0
tp3517
a(S'stl_set.h'
p3518
F0.0
tp3519
a(S'SoundSource.hpp'
p3520
F0.0
tp3521
a(S'Sound.hpp'
p3522
F0.0
tp3523
a(S'stl_vector.h'
p3524
F0.0
tp3525
a(S'AlResource.hpp'
p3526
F0.0
tp3527
a(S'stringfwd.h'
p3528
F0.0
tp3529
a(S'Sound.cpp'
p3530
F0.0
tp3531
a(S'Time.hpp'
p3532
F0.0
tp3533
a(S'ALCheck.hpp'
p3534
F0.0
tp3535
a(S'Vector3.hpp'
p3536
F0.0
tp3537
a(S'Config.hpp'
p3538
F0.0
tp3539
asS'buffersize'
p3540
(lp3541
(S'alc.h'
p3542
F0.45714285714285713
tp3543
a(S'Vector3.inl'
p3544
F0.0
tp3545
a(S'al.h'
p3546
F0.0
tp3547
a(S'c++config.h'
p3548
F0.0
tp3549
a(S'SoundBuffer.hpp'
p3550
F0.0
tp3551
a(S'stl_set.h'
p3552
F0.0
tp3553
a(S'SoundSource.hpp'
p3554
F0.0
tp3555
a(S'Sound.hpp'
p3556
F0.0
tp3557
a(S'stl_vector.h'
p3558
F0.0
tp3559
a(S'AlResource.hpp'
p3560
F0.0
tp3561
a(S'stringfwd.h'
p3562
F0.0
tp3563
a(S'Sound.cpp'
p3564
F0.0
tp3565
a(S'Time.hpp'
p3566
F0.0
tp3567
a(S'ALCheck.hpp'
p3568
F0.0
tp3569
a(S'Vector3.hpp'
p3570
F0.0
tp3571
a(S'Config.hpp'
p3572
F0.0
tp3573
asS'expression'
p3574
(lp3575
(S'ALCheck.hpp'
p3576
F3.2
tp3577
a(S'Vector3.inl'
p3578
F0.0
tp3579
a(S'al.h'
p3580
F0.0
tp3581
a(S'c++config.h'
p3582
F0.0
tp3583
a(S'alc.h'
p3584
F0.0
tp3585
a(S'SoundBuffer.hpp'
p3586
F0.0
tp3587
a(S'stl_set.h'
p3588
F0.0
tp3589
a(S'SoundSource.hpp'
p3590
F0.0
tp3591
a(S'Sound.hpp'
p3592
F0.0
tp3593
a(S'stl_vector.h'
p3594
F0.0
tp3595
a(S'AlResource.hpp'
p3596
F0.0
tp3597
a(S'stringfwd.h'
p3598
F0.0
tp3599
a(S'Sound.cpp'
p3600
F0.0
tp3601
a(S'Time.hpp'
p3602
F0.0
tp3603
a(S'Vector3.hpp'
p3604
F0.0
tp3605
a(S'Config.hpp'
p3606
F0.0
tp3607
asS'alListeneriv'
p3608
(lp3609
(S'al.h'
p3610
F0.08888888888888889
tp3611
a(S'Vector3.inl'
p3612
F0.0
tp3613
a(S'c++config.h'
p3614
F0.0
tp3615
a(S'alc.h'
p3616
F0.0
tp3617
a(S'SoundBuffer.hpp'
p3618
F0.0
tp3619
a(S'stl_set.h'
p3620
F0.0
tp3621
a(S'SoundSource.hpp'
p3622
F0.0
tp3623
a(S'Sound.hpp'
p3624
F0.0
tp3625
a(S'stl_vector.h'
p3626
F0.0
tp3627
a(S'AlResource.hpp'
p3628
F0.0
tp3629
a(S'stringfwd.h'
p3630
F0.0
tp3631
a(S'Sound.cpp'
p3632
F0.0
tp3633
a(S'Time.hpp'
p3634
F0.0
tp3635
a(S'ALCheck.hpp'
p3636
F0.0
tp3637
a(S'Vector3.hpp'
p3638
F0.0
tp3639
a(S'Config.hpp'
p3640
F0.0
tp3641
asS'alSourcefv'
p3642
(lp3643
(S'al.h'
p3644
F0.08888888888888889
tp3645
a(S'Vector3.inl'
p3646
F0.0
tp3647
a(S'c++config.h'
p3648
F0.0
tp3649
a(S'alc.h'
p3650
F0.0
tp3651
a(S'SoundBuffer.hpp'
p3652
F0.0
tp3653
a(S'stl_set.h'
p3654
F0.0
tp3655
a(S'SoundSource.hpp'
p3656
F0.0
tp3657
a(S'Sound.hpp'
p3658
F0.0
tp3659
a(S'stl_vector.h'
p3660
F0.0
tp3661
a(S'AlResource.hpp'
p3662
F0.0
tp3663
a(S'stringfwd.h'
p3664
F0.0
tp3665
a(S'Sound.cpp'
p3666
F0.0
tp3667
a(S'Time.hpp'
p3668
F0.0
tp3669
a(S'ALCheck.hpp'
p3670
F0.0
tp3671
a(S'Vector3.hpp'
p3672
F0.0
tp3673
a(S'Config.hpp'
p3674
F0.0
tp3675
asS'operator='
p3676
(lp3677
(S'Sound.hpp'
p3678
F0.26666666666666666
tp3679
a(S'Sound.cpp'
p3680
F0.19047619047619047
tp3681
a(S'Vector3.inl'
p3682
F0.0
tp3683
a(S'al.h'
p3684
F0.0
tp3685
a(S'c++config.h'
p3686
F0.0
tp3687
a(S'alc.h'
p3688
F0.0
tp3689
a(S'SoundBuffer.hpp'
p3690
F0.0
tp3691
a(S'stl_set.h'
p3692
F0.0
tp3693
a(S'SoundSource.hpp'
p3694
F0.0
tp3695
a(S'stl_vector.h'
p3696
F0.0
tp3697
a(S'AlResource.hpp'
p3698
F0.0
tp3699
a(S'stringfwd.h'
p3700
F0.0
tp3701
a(S'Time.hpp'
p3702
F0.0
tp3703
a(S'ALCheck.hpp'
p3704
F0.0
tp3705
a(S'Vector3.hpp'
p3706
F0.0
tp3707
a(S'Config.hpp'
p3708
F0.0
tp3709
asS'operator<'
p3710
(lp3711
(S'Vector3.inl'
p3712
I0
tp3713
a(S'al.h'
p3714
I0
tp3715
a(S'c++config.h'
p3716
I0
tp3717
a(S'alc.h'
p3718
I0
tp3719
a(S'SoundBuffer.hpp'
p3720
I0
tp3721
a(S'stl_set.h'
p3722
I0
tp3723
a(S'SoundSource.hpp'
p3724
I0
tp3725
a(S'Sound.hpp'
p3726
I0
tp3727
a(S'stl_vector.h'
p3728
I0
tp3729
a(S'AlResource.hpp'
p3730
I0
tp3731
a(S'stringfwd.h'
p3732
I0
tp3733
a(S'Sound.cpp'
p3734
I0
tp3735
a(S'Time.hpp'
p3736
I0
tp3737
a(S'ALCheck.hpp'
p3738
I0
tp3739
a(S'Vector3.hpp'
p3740
I0
tp3741
a(S'Config.hpp'
p3742
I0
tp3743
asS'getSampleCount'
p3744
(lp3745
(S'Vector3.inl'
p3746
I0
tp3747
a(S'al.h'
p3748
I0
tp3749
a(S'c++config.h'
p3750
I0
tp3751
a(S'alc.h'
p3752
I0
tp3753
a(S'SoundBuffer.hpp'
p3754
I0
tp3755
a(S'stl_set.h'
p3756
I0
tp3757
a(S'SoundSource.hpp'
p3758
I0
tp3759
a(S'Sound.hpp'
p3760
I0
tp3761
a(S'stl_vector.h'
p3762
I0
tp3763
a(S'AlResource.hpp'
p3764
I0
tp3765
a(S'stringfwd.h'
p3766
I0
tp3767
a(S'Sound.cpp'
p3768
I0
tp3769
a(S'Time.hpp'
p3770
I0
tp3771
a(S'ALCheck.hpp'
p3772
I0
tp3773
a(S'Vector3.hpp'
p3774
I0
tp3775
a(S'Config.hpp'
p3776
I0
tp3777
asS'operator>'
p3778
(lp3779
(S'Vector3.inl'
p3780
I0
tp3781
a(S'al.h'
p3782
I0
tp3783
a(S'c++config.h'
p3784
I0
tp3785
a(S'alc.h'
p3786
I0
tp3787
a(S'SoundBuffer.hpp'
p3788
I0
tp3789
a(S'stl_set.h'
p3790
I0
tp3791
a(S'SoundSource.hpp'
p3792
I0
tp3793
a(S'Sound.hpp'
p3794
I0
tp3795
a(S'stl_vector.h'
p3796
I0
tp3797
a(S'AlResource.hpp'
p3798
I0
tp3799
a(S'stringfwd.h'
p3800
I0
tp3801
a(S'Sound.cpp'
p3802
I0
tp3803
a(S'Time.hpp'
p3804
I0
tp3805
a(S'ALCheck.hpp'
p3806
I0
tp3807
a(S'Vector3.hpp'
p3808
I0
tp3809
a(S'Config.hpp'
p3810
I0
tp3811
asS'm_source'
p3812
(lp3813
(S'SoundSource.hpp'
p3814
F0.3333333333333333
tp3815
a(S'Sound.cpp'
p3816
F0.19047619047619047
tp3817
a(S'Vector3.inl'
p3818
F0.0
tp3819
a(S'al.h'
p3820
F0.0
tp3821
a(S'c++config.h'
p3822
F0.0
tp3823
a(S'alc.h'
p3824
F0.0
tp3825
a(S'SoundBuffer.hpp'
p3826
F0.0
tp3827
a(S'stl_set.h'
p3828
F0.0
tp3829
a(S'Sound.hpp'
p3830
F0.0
tp3831
a(S'stl_vector.h'
p3832
F0.0
tp3833
a(S'AlResource.hpp'
p3834
F0.0
tp3835
a(S'stringfwd.h'
p3836
F0.0
tp3837
a(S'Time.hpp'
p3838
F0.0
tp3839
a(S'ALCheck.hpp'
p3840
F0.0
tp3841
a(S'Vector3.hpp'
p3842
F0.0
tp3843
a(S'Config.hpp'
p3844
F0.0
tp3845
asS'SoundBuffer'
p3846
(lp3847
(S'Sound.hpp'
p3848
F0.17777777777777776
tp3849
a(S'SoundBuffer.hpp'
p3850
F0.14414414414414414
tp3851
a(S'Sound.cpp'
p3852
F0.12698412698412698
tp3853
a(S'Vector3.inl'
p3854
F0.0
tp3855
a(S'al.h'
p3856
F0.0
tp3857
a(S'c++config.h'
p3858
F0.0
tp3859
a(S'alc.h'
p3860
F0.0
tp3861
a(S'stl_set.h'
p3862
F0.0
tp3863
a(S'SoundSource.hpp'
p3864
F0.0
tp3865
a(S'stl_vector.h'
p3866
F0.0
tp3867
a(S'AlResource.hpp'
p3868
F0.0
tp3869
a(S'stringfwd.h'
p3870
F0.0
tp3871
a(S'Time.hpp'
p3872
F0.0
tp3873
a(S'ALCheck.hpp'
p3874
F0.0
tp3875
a(S'Vector3.hpp'
p3876
F0.0
tp3877
a(S'Config.hpp'
p3878
F0.0
tp3879
asS'alGetBufferfv'
p3880
(lp3881
(S'al.h'
p3882
F0.08888888888888889
tp3883
a(S'Vector3.inl'
p3884
F0.0
tp3885
a(S'c++config.h'
p3886
F0.0
tp3887
a(S'alc.h'
p3888
F0.0
tp3889
a(S'SoundBuffer.hpp'
p3890
F0.0
tp3891
a(S'stl_set.h'
p3892
F0.0
tp3893
a(S'SoundSource.hpp'
p3894
F0.0
tp3895
a(S'Sound.hpp'
p3896
F0.0
tp3897
a(S'stl_vector.h'
p3898
F0.0
tp3899
a(S'AlResource.hpp'
p3900
F0.0
tp3901
a(S'stringfwd.h'
p3902
F0.0
tp3903
a(S'Sound.cpp'
p3904
F0.0
tp3905
a(S'Time.hpp'
p3906
F0.0
tp3907
a(S'ALCheck.hpp'
p3908
F0.0
tp3909
a(S'Vector3.hpp'
p3910
F0.0
tp3911
a(S'Config.hpp'
p3912
F0.0
tp3913
asS'InputStream'
p3914
(lp3915
(S'Vector3.inl'
p3916
I0
tp3917
a(S'al.h'
p3918
I0
tp3919
a(S'c++config.h'
p3920
I0
tp3921
a(S'alc.h'
p3922
I0
tp3923
a(S'SoundBuffer.hpp'
p3924
I0
tp3925
a(S'stl_set.h'
p3926
I0
tp3927
a(S'SoundSource.hpp'
p3928
I0
tp3929
a(S'Sound.hpp'
p3930
I0
tp3931
a(S'stl_vector.h'
p3932
I0
tp3933
a(S'AlResource.hpp'
p3934
I0
tp3935
a(S'stringfwd.h'
p3936
I0
tp3937
a(S'Sound.cpp'
p3938
I0
tp3939
a(S'Time.hpp'
p3940
I0
tp3941
a(S'ALCheck.hpp'
p3942
I0
tp3943
a(S'Vector3.hpp'
p3944
I0
tp3945
a(S'Config.hpp'
p3946
I0
tp3947
asS'ALCcontext_struct'
p3948
(lp3949
(S'Vector3.inl'
p3950
I0
tp3951
a(S'al.h'
p3952
I0
tp3953
a(S'c++config.h'
p3954
I0
tp3955
a(S'alc.h'
p3956
I0
tp3957
a(S'SoundBuffer.hpp'
p3958
I0
tp3959
a(S'stl_set.h'
p3960
I0
tp3961
a(S'SoundSource.hpp'
p3962
I0
tp3963
a(S'Sound.hpp'
p3964
I0
tp3965
a(S'stl_vector.h'
p3966
I0
tp3967
a(S'AlResource.hpp'
p3968
I0
tp3969
a(S'stringfwd.h'
p3970
I0
tp3971
a(S'Sound.cpp'
p3972
I0
tp3973
a(S'Time.hpp'
p3974
I0
tp3975
a(S'ALCheck.hpp'
p3976
I0
tp3977
a(S'Vector3.hpp'
p3978
I0
tp3979
a(S'Config.hpp'
p3980
I0
tp3981
asS'operator+'
p3982
(lp3983
(S'Vector3.inl'
p3984
F0.34782608695652173
tp3985
a(S'Vector3.hpp'
p3986
F0.2962962962962963
tp3987
a(S'al.h'
p3988
F0.0
tp3989
a(S'c++config.h'
p3990
F0.0
tp3991
a(S'alc.h'
p3992
F0.0
tp3993
a(S'SoundBuffer.hpp'
p3994
F0.0
tp3995
a(S'stl_set.h'
p3996
F0.0
tp3997
a(S'SoundSource.hpp'
p3998
F0.0
tp3999
a(S'Sound.hpp'
p4000
F0.0
tp4001
a(S'stl_vector.h'
p4002
F0.0
tp4003
a(S'AlResource.hpp'
p4004
F0.0
tp4005
a(S'stringfwd.h'
p4006
F0.0
tp4007
a(S'Sound.cpp'
p4008
F0.0
tp4009
a(S'Time.hpp'
p4010
F0.0
tp4011
a(S'ALCheck.hpp'
p4012
F0.0
tp4013
a(S'Config.hpp'
p4014
F0.0
tp4015
asS'operator*'
p4016
(lp4017
(S'Vector3.inl'
p4018
F0.6956521739130435
tp4019
a(S'Vector3.hpp'
p4020
F0.5925925925925926
tp4021
a(S'al.h'
p4022
F0.0
tp4023
a(S'c++config.h'
p4024
F0.0
tp4025
a(S'alc.h'
p4026
F0.0
tp4027
a(S'SoundBuffer.hpp'
p4028
F0.0
tp4029
a(S'stl_set.h'
p4030
F0.0
tp4031
a(S'SoundSource.hpp'
p4032
F0.0
tp4033
a(S'Sound.hpp'
p4034
F0.0
tp4035
a(S'stl_vector.h'
p4036
F0.0
tp4037
a(S'AlResource.hpp'
p4038
F0.0
tp4039
a(S'stringfwd.h'
p4040
F0.0
tp4041
a(S'Sound.cpp'
p4042
F0.0
tp4043
a(S'Time.hpp'
p4044
F0.0
tp4045
a(S'ALCheck.hpp'
p4046
F0.0
tp4047
a(S'Config.hpp'
p4048
F0.0
tp4049
asS'operator-'
p4050
(lp4051
(S'Vector3.inl'
p4052
F0.6956521739130435
tp4053
a(S'Vector3.hpp'
p4054
F0.5925925925925926
tp4055
a(S'al.h'
p4056
F0.0
tp4057
a(S'c++config.h'
p4058
F0.0
tp4059
a(S'alc.h'
p4060
F0.0
tp4061
a(S'SoundBuffer.hpp'
p4062
F0.0
tp4063
a(S'stl_set.h'
p4064
F0.0
tp4065
a(S'SoundSource.hpp'
p4066
F0.0
tp4067
a(S'Sound.hpp'
p4068
F0.0
tp4069
a(S'stl_vector.h'
p4070
F0.0
tp4071
a(S'AlResource.hpp'
p4072
F0.0
tp4073
a(S'stringfwd.h'
p4074
F0.0
tp4075
a(S'Sound.cpp'
p4076
F0.0
tp4077
a(S'Time.hpp'
p4078
F0.0
tp4079
a(S'ALCheck.hpp'
p4080
F0.0
tp4081
a(S'Config.hpp'
p4082
F0.0
tp4083
asS'operator/'
p4084
(lp4085
(S'Vector3.inl'
p4086
F0.34782608695652173
tp4087
a(S'Vector3.hpp'
p4088
F0.2962962962962963
tp4089
a(S'al.h'
p4090
F0.0
tp4091
a(S'c++config.h'
p4092
F0.0
tp4093
a(S'alc.h'
p4094
F0.0
tp4095
a(S'SoundBuffer.hpp'
p4096
F0.0
tp4097
a(S'stl_set.h'
p4098
F0.0
tp4099
a(S'SoundSource.hpp'
p4100
F0.0
tp4101
a(S'Sound.hpp'
p4102
F0.0
tp4103
a(S'stl_vector.h'
p4104
F0.0
tp4105
a(S'AlResource.hpp'
p4106
F0.0
tp4107
a(S'stringfwd.h'
p4108
F0.0
tp4109
a(S'Sound.cpp'
p4110
F0.0
tp4111
a(S'Time.hpp'
p4112
F0.0
tp4113
a(S'ALCheck.hpp'
p4114
F0.0
tp4115
a(S'Config.hpp'
p4116
F0.0
tp4117
asS'alIsEnabled'
p4118
(lp4119
(S'al.h'
p4120
F0.08888888888888889
tp4121
a(S'Vector3.inl'
p4122
F0.0
tp4123
a(S'c++config.h'
p4124
F0.0
tp4125
a(S'alc.h'
p4126
F0.0
tp4127
a(S'SoundBuffer.hpp'
p4128
F0.0
tp4129
a(S'stl_set.h'
p4130
F0.0
tp4131
a(S'SoundSource.hpp'
p4132
F0.0
tp4133
a(S'Sound.hpp'
p4134
F0.0
tp4135
a(S'stl_vector.h'
p4136
F0.0
tp4137
a(S'AlResource.hpp'
p4138
F0.0
tp4139
a(S'stringfwd.h'
p4140
F0.0
tp4141
a(S'Sound.cpp'
p4142
F0.0
tp4143
a(S'Time.hpp'
p4144
F0.0
tp4145
a(S'ALCheck.hpp'
p4146
F0.0
tp4147
a(S'Vector3.hpp'
p4148
F0.0
tp4149
a(S'Config.hpp'
p4150
F0.0
tp4151
asS'alcCreateContext'
p4152
(lp4153
(S'alc.h'
p4154
F0.22857142857142856
tp4155
a(S'Vector3.inl'
p4156
F0.0
tp4157
a(S'al.h'
p4158
F0.0
tp4159
a(S'c++config.h'
p4160
F0.0
tp4161
a(S'SoundBuffer.hpp'
p4162
F0.0
tp4163
a(S'stl_set.h'
p4164
F0.0
tp4165
a(S'SoundSource.hpp'
p4166
F0.0
tp4167
a(S'Sound.hpp'
p4168
F0.0
tp4169
a(S'stl_vector.h'
p4170
F0.0
tp4171
a(S'AlResource.hpp'
p4172
F0.0
tp4173
a(S'stringfwd.h'
p4174
F0.0
tp4175
a(S'Sound.cpp'
p4176
F0.0
tp4177
a(S'Time.hpp'
p4178
F0.0
tp4179
a(S'ALCheck.hpp'
p4180
F0.0
tp4181
a(S'Vector3.hpp'
p4182
F0.0
tp4183
a(S'Config.hpp'
p4184
F0.0
tp4185
asS'alSourceRewindv'
p4186
(lp4187
(S'al.h'
p4188
F0.08888888888888889
tp4189
a(S'Vector3.inl'
p4190
F0.0
tp4191
a(S'c++config.h'
p4192
F0.0
tp4193
a(S'alc.h'
p4194
F0.0
tp4195
a(S'SoundBuffer.hpp'
p4196
F0.0
tp4197
a(S'stl_set.h'
p4198
F0.0
tp4199
a(S'SoundSource.hpp'
p4200
F0.0
tp4201
a(S'Sound.hpp'
p4202
F0.0
tp4203
a(S'stl_vector.h'
p4204
F0.0
tp4205
a(S'AlResource.hpp'
p4206
F0.0
tp4207
a(S'stringfwd.h'
p4208
F0.0
tp4209
a(S'Sound.cpp'
p4210
F0.0
tp4211
a(S'Time.hpp'
p4212
F0.0
tp4213
a(S'ALCheck.hpp'
p4214
F0.0
tp4215
a(S'Vector3.hpp'
p4216
F0.0
tp4217
a(S'Config.hpp'
p4218
F0.0
tp4219
asS'operator%'
p4220
(lp4221
(S'Vector3.inl'
p4222
I0
tp4223
a(S'al.h'
p4224
I0
tp4225
a(S'c++config.h'
p4226
I0
tp4227
a(S'alc.h'
p4228
I0
tp4229
a(S'SoundBuffer.hpp'
p4230
I0
tp4231
a(S'stl_set.h'
p4232
I0
tp4233
a(S'SoundSource.hpp'
p4234
I0
tp4235
a(S'Sound.hpp'
p4236
I0
tp4237
a(S'stl_vector.h'
p4238
I0
tp4239
a(S'AlResource.hpp'
p4240
I0
tp4241
a(S'stringfwd.h'
p4242
I0
tp4243
a(S'Sound.cpp'
p4244
I0
tp4245
a(S'Time.hpp'
p4246
I0
tp4247
a(S'ALCheck.hpp'
p4248
I0
tp4249
a(S'Vector3.hpp'
p4250
I0
tp4251
a(S'Config.hpp'
p4252
I0
tp4253
asS'freq'
p4254
(lp4255
(S'al.h'
p4256
F0.17777777777777778
tp4257
a(S'Vector3.inl'
p4258
F0.0
tp4259
a(S'c++config.h'
p4260
F0.0
tp4261
a(S'alc.h'
p4262
F0.0
tp4263
a(S'SoundBuffer.hpp'
p4264
F0.0
tp4265
a(S'stl_set.h'
p4266
F0.0
tp4267
a(S'SoundSource.hpp'
p4268
F0.0
tp4269
a(S'Sound.hpp'
p4270
F0.0
tp4271
a(S'stl_vector.h'
p4272
F0.0
tp4273
a(S'AlResource.hpp'
p4274
F0.0
tp4275
a(S'stringfwd.h'
p4276
F0.0
tp4277
a(S'Sound.cpp'
p4278
F0.0
tp4279
a(S'Time.hpp'
p4280
F0.0
tp4281
a(S'ALCheck.hpp'
p4282
F0.0
tp4283
a(S'Vector3.hpp'
p4284
F0.0
tp4285
a(S'Config.hpp'
p4286
F0.0
tp4287
asS'size'
p4288
(lp4289
(S'alc.h'
p4290
F0.22857142857142856
tp4291
a(S'al.h'
p4292
F0.08888888888888889
tp4293
a(S'Vector3.inl'
p4294
F0.0
tp4295
a(S'c++config.h'
p4296
F0.0
tp4297
a(S'SoundBuffer.hpp'
p4298
F0.0
tp4299
a(S'stl_set.h'
p4300
F0.0
tp4301
a(S'SoundSource.hpp'
p4302
F0.0
tp4303
a(S'Sound.hpp'
p4304
F0.0
tp4305
a(S'stl_vector.h'
p4306
F0.0
tp4307
a(S'AlResource.hpp'
p4308
F0.0
tp4309
a(S'stringfwd.h'
p4310
F0.0
tp4311
a(S'Sound.cpp'
p4312
F0.0
tp4313
a(S'Time.hpp'
p4314
F0.0
tp4315
a(S'ALCheck.hpp'
p4316
F0.0
tp4317
a(S'Vector3.hpp'
p4318
F0.0
tp4319
a(S'Config.hpp'
p4320
F0.0
tp4321
asS'sizeInBytes'
p4322
(lp4323
(S'SoundBuffer.hpp'
p4324
F0.43243243243243246
tp4325
a(S'Vector3.inl'
p4326
F0.0
tp4327
a(S'al.h'
p4328
F0.0
tp4329
a(S'c++config.h'
p4330
F0.0
tp4331
a(S'alc.h'
p4332
F0.0
tp4333
a(S'stl_set.h'
p4334
F0.0
tp4335
a(S'SoundSource.hpp'
p4336
F0.0
tp4337
a(S'Sound.hpp'
p4338
F0.0
tp4339
a(S'stl_vector.h'
p4340
F0.0
tp4341
a(S'AlResource.hpp'
p4342
F0.0
tp4343
a(S'stringfwd.h'
p4344
F0.0
tp4345
a(S'Sound.cpp'
p4346
F0.0
tp4347
a(S'Time.hpp'
p4348
F0.0
tp4349
a(S'ALCheck.hpp'
p4350
F0.0
tp4351
a(S'Vector3.hpp'
p4352
F0.0
tp4353
a(S'Config.hpp'
p4354
F0.0
tp4355
asS'alcOpenDevice'
p4356
(lp4357
(S'alc.h'
p4358
F0.22857142857142856
tp4359
a(S'Vector3.inl'
p4360
F0.0
tp4361
a(S'al.h'
p4362
F0.0
tp4363
a(S'c++config.h'
p4364
F0.0
tp4365
a(S'SoundBuffer.hpp'
p4366
F0.0
tp4367
a(S'stl_set.h'
p4368
F0.0
tp4369
a(S'SoundSource.hpp'
p4370
F0.0
tp4371
a(S'Sound.hpp'
p4372
F0.0
tp4373
a(S'stl_vector.h'
p4374
F0.0
tp4375
a(S'AlResource.hpp'
p4376
F0.0
tp4377
a(S'stringfwd.h'
p4378
F0.0
tp4379
a(S'Sound.cpp'
p4380
F0.0
tp4381
a(S'Time.hpp'
p4382
F0.0
tp4383
a(S'ALCheck.hpp'
p4384
F0.0
tp4385
a(S'Vector3.hpp'
p4386
F0.0
tp4387
a(S'Config.hpp'
p4388
F0.0
tp4389
asS'getBuffer'
p4390
(lp4391
(S'Sound.hpp'
p4392
F0.26666666666666666
tp4393
a(S'Sound.cpp'
p4394
F0.19047619047619047
tp4395
a(S'Vector3.inl'
p4396
F0.0
tp4397
a(S'al.h'
p4398
F0.0
tp4399
a(S'c++config.h'
p4400
F0.0
tp4401
a(S'alc.h'
p4402
F0.0
tp4403
a(S'SoundBuffer.hpp'
p4404
F0.0
tp4405
a(S'stl_set.h'
p4406
F0.0
tp4407
a(S'SoundSource.hpp'
p4408
F0.0
tp4409
a(S'stl_vector.h'
p4410
F0.0
tp4411
a(S'AlResource.hpp'
p4412
F0.0
tp4413
a(S'stringfwd.h'
p4414
F0.0
tp4415
a(S'Time.hpp'
p4416
F0.0
tp4417
a(S'ALCheck.hpp'
p4418
F0.0
tp4419
a(S'Vector3.hpp'
p4420
F0.0
tp4421
a(S'Config.hpp'
p4422
F0.0
tp4423
asS'operator/='
p4424
(lp4425
(S'Vector3.inl'
p4426
F0.34782608695652173
tp4427
a(S'Vector3.hpp'
p4428
F0.2962962962962963
tp4429
a(S'al.h'
p4430
F0.0
tp4431
a(S'c++config.h'
p4432
F0.0
tp4433
a(S'alc.h'
p4434
F0.0
tp4435
a(S'SoundBuffer.hpp'
p4436
F0.0
tp4437
a(S'stl_set.h'
p4438
F0.0
tp4439
a(S'SoundSource.hpp'
p4440
F0.0
tp4441
a(S'Sound.hpp'
p4442
F0.0
tp4443
a(S'stl_vector.h'
p4444
F0.0
tp4445
a(S'AlResource.hpp'
p4446
F0.0
tp4447
a(S'stringfwd.h'
p4448
F0.0
tp4449
a(S'Sound.cpp'
p4450
F0.0
tp4451
a(S'Time.hpp'
p4452
F0.0
tp4453
a(S'ALCheck.hpp'
p4454
F0.0
tp4455
a(S'Config.hpp'
p4456
F0.0
tp4457
asS'setMinDistance'
p4458
(lp4459
(S'Vector3.inl'
p4460
I0
tp4461
a(S'al.h'
p4462
I0
tp4463
a(S'c++config.h'
p4464
I0
tp4465
a(S'alc.h'
p4466
I0
tp4467
a(S'SoundBuffer.hpp'
p4468
I0
tp4469
a(S'stl_set.h'
p4470
I0
tp4471
a(S'SoundSource.hpp'
p4472
I0
tp4473
a(S'Sound.hpp'
p4474
I0
tp4475
a(S'stl_vector.h'
p4476
I0
tp4477
a(S'AlResource.hpp'
p4478
I0
tp4479
a(S'stringfwd.h'
p4480
I0
tp4481
a(S'Sound.cpp'
p4482
I0
tp4483
a(S'Time.hpp'
p4484
I0
tp4485
a(S'ALCheck.hpp'
p4486
I0
tp4487
a(S'Vector3.hpp'
p4488
I0
tp4489
a(S'Config.hpp'
p4490
I0
tp4491
asS'alGetBufferiv'
p4492
(lp4493
(S'al.h'
p4494
F0.08888888888888889
tp4495
a(S'Vector3.inl'
p4496
F0.0
tp4497
a(S'c++config.h'
p4498
F0.0
tp4499
a(S'alc.h'
p4500
F0.0
tp4501
a(S'SoundBuffer.hpp'
p4502
F0.0
tp4503
a(S'stl_set.h'
p4504
F0.0
tp4505
a(S'SoundSource.hpp'
p4506
F0.0
tp4507
a(S'Sound.hpp'
p4508
F0.0
tp4509
a(S'stl_vector.h'
p4510
F0.0
tp4511
a(S'AlResource.hpp'
p4512
F0.0
tp4513
a(S'stringfwd.h'
p4514
F0.0
tp4515
a(S'Sound.cpp'
p4516
F0.0
tp4517
a(S'Time.hpp'
p4518
F0.0
tp4519
a(S'ALCheck.hpp'
p4520
F0.0
tp4521
a(S'Vector3.hpp'
p4522
F0.0
tp4523
a(S'Config.hpp'
p4524
F0.0
tp4525
asS'getSampleRate'
p4526
(lp4527
(S'Vector3.inl'
p4528
I0
tp4529
a(S'al.h'
p4530
I0
tp4531
a(S'c++config.h'
p4532
I0
tp4533
a(S'alc.h'
p4534
I0
tp4535
a(S'SoundBuffer.hpp'
p4536
I0
tp4537
a(S'stl_set.h'
p4538
I0
tp4539
a(S'SoundSource.hpp'
p4540
I0
tp4541
a(S'Sound.hpp'
p4542
I0
tp4543
a(S'stl_vector.h'
p4544
I0
tp4545
a(S'AlResource.hpp'
p4546
I0
tp4547
a(S'stringfwd.h'
p4548
I0
tp4549
a(S'Sound.cpp'
p4550
I0
tp4551
a(S'Time.hpp'
p4552
I0
tp4553
a(S'ALCheck.hpp'
p4554
I0
tp4555
a(S'Vector3.hpp'
p4556
I0
tp4557
a(S'Config.hpp'
p4558
I0
tp4559
asS'alDistanceModel'
p4560
(lp4561
(S'al.h'
p4562
F0.08888888888888889
tp4563
a(S'Vector3.inl'
p4564
F0.0
tp4565
a(S'c++config.h'
p4566
F0.0
tp4567
a(S'alc.h'
p4568
F0.0
tp4569
a(S'SoundBuffer.hpp'
p4570
F0.0
tp4571
a(S'stl_set.h'
p4572
F0.0
tp4573
a(S'SoundSource.hpp'
p4574
F0.0
tp4575
a(S'Sound.hpp'
p4576
F0.0
tp4577
a(S'stl_vector.h'
p4578
F0.0
tp4579
a(S'AlResource.hpp'
p4580
F0.0
tp4581
a(S'stringfwd.h'
p4582
F0.0
tp4583
a(S'Sound.cpp'
p4584
F0.0
tp4585
a(S'Time.hpp'
p4586
F0.0
tp4587
a(S'ALCheck.hpp'
p4588
F0.0
tp4589
a(S'Vector3.hpp'
p4590
F0.0
tp4591
a(S'Config.hpp'
p4592
F0.0
tp4593
asS'alSourceStopv'
p4594
(lp4595
(S'al.h'
p4596
F0.08888888888888889
tp4597
a(S'Vector3.inl'
p4598
F0.0
tp4599
a(S'c++config.h'
p4600
F0.0
tp4601
a(S'alc.h'
p4602
F0.0
tp4603
a(S'SoundBuffer.hpp'
p4604
F0.0
tp4605
a(S'stl_set.h'
p4606
F0.0
tp4607
a(S'SoundSource.hpp'
p4608
F0.0
tp4609
a(S'Sound.hpp'
p4610
F0.0
tp4611
a(S'stl_vector.h'
p4612
F0.0
tp4613
a(S'AlResource.hpp'
p4614
F0.0
tp4615
a(S'stringfwd.h'
p4616
F0.0
tp4617
a(S'Sound.cpp'
p4618
F0.0
tp4619
a(S'Time.hpp'
p4620
F0.0
tp4621
a(S'ALCheck.hpp'
p4622
F0.0
tp4623
a(S'Vector3.hpp'
p4624
F0.0
tp4625
a(S'Config.hpp'
p4626
F0.0
tp4627
asS'ALCdevice_struct'
p4628
(lp4629
(S'Vector3.inl'
p4630
I0
tp4631
a(S'al.h'
p4632
I0
tp4633
a(S'c++config.h'
p4634
I0
tp4635
a(S'alc.h'
p4636
I0
tp4637
a(S'SoundBuffer.hpp'
p4638
I0
tp4639
a(S'stl_set.h'
p4640
I0
tp4641
a(S'SoundSource.hpp'
p4642
I0
tp4643
a(S'Sound.hpp'
p4644
I0
tp4645
a(S'stl_vector.h'
p4646
I0
tp4647
a(S'AlResource.hpp'
p4648
I0
tp4649
a(S'stringfwd.h'
p4650
I0
tp4651
a(S'Sound.cpp'
p4652
I0
tp4653
a(S'Time.hpp'
p4654
I0
tp4655
a(S'ALCheck.hpp'
p4656
I0
tp4657
a(S'Vector3.hpp'
p4658
I0
tp4659
a(S'Config.hpp'
p4660
I0
tp4661
asS'value2'
p4662
(lp4663
(S'al.h'
p4664
F2.1333333333333333
tp4665
a(S'Vector3.inl'
p4666
F0.0
tp4667
a(S'c++config.h'
p4668
F0.0
tp4669
a(S'alc.h'
p4670
F0.0
tp4671
a(S'SoundBuffer.hpp'
p4672
F0.0
tp4673
a(S'stl_set.h'
p4674
F0.0
tp4675
a(S'SoundSource.hpp'
p4676
F0.0
tp4677
a(S'Sound.hpp'
p4678
F0.0
tp4679
a(S'stl_vector.h'
p4680
F0.0
tp4681
a(S'AlResource.hpp'
p4682
F0.0
tp4683
a(S'stringfwd.h'
p4684
F0.0
tp4685
a(S'Sound.cpp'
p4686
F0.0
tp4687
a(S'Time.hpp'
p4688
F0.0
tp4689
a(S'ALCheck.hpp'
p4690
F0.0
tp4691
a(S'Vector3.hpp'
p4692
F0.0
tp4693
a(S'Config.hpp'
p4694
F0.0
tp4695
asS'value1'
p4696
(lp4697
(S'al.h'
p4698
F2.1333333333333333
tp4699
a(S'Vector3.inl'
p4700
F0.0
tp4701
a(S'c++config.h'
p4702
F0.0
tp4703
a(S'alc.h'
p4704
F0.0
tp4705
a(S'SoundBuffer.hpp'
p4706
F0.0
tp4707
a(S'stl_set.h'
p4708
F0.0
tp4709
a(S'SoundSource.hpp'
p4710
F0.0
tp4711
a(S'Sound.hpp'
p4712
F0.0
tp4713
a(S'stl_vector.h'
p4714
F0.0
tp4715
a(S'AlResource.hpp'
p4716
F0.0
tp4717
a(S'stringfwd.h'
p4718
F0.0
tp4719
a(S'Sound.cpp'
p4720
F0.0
tp4721
a(S'Time.hpp'
p4722
F0.0
tp4723
a(S'ALCheck.hpp'
p4724
F0.0
tp4725
a(S'Vector3.hpp'
p4726
F0.0
tp4727
a(S'Config.hpp'
p4728
F0.0
tp4729
asS'alSourceiv'
p4730
(lp4731
(S'al.h'
p4732
F0.08888888888888889
tp4733
a(S'Vector3.inl'
p4734
F0.0
tp4735
a(S'c++config.h'
p4736
F0.0
tp4737
a(S'alc.h'
p4738
F0.0
tp4739
a(S'SoundBuffer.hpp'
p4740
F0.0
tp4741
a(S'stl_set.h'
p4742
F0.0
tp4743
a(S'SoundSource.hpp'
p4744
F0.0
tp4745
a(S'Sound.hpp'
p4746
F0.0
tp4747
a(S'stl_vector.h'
p4748
F0.0
tp4749
a(S'AlResource.hpp'
p4750
F0.0
tp4751
a(S'stringfwd.h'
p4752
F0.0
tp4753
a(S'Sound.cpp'
p4754
F0.0
tp4755
a(S'Time.hpp'
p4756
F0.0
tp4757
a(S'ALCheck.hpp'
p4758
F0.0
tp4759
a(S'Vector3.hpp'
p4760
F0.0
tp4761
a(S'Config.hpp'
p4762
F0.0
tp4763
asS'value3'
p4764
(lp4765
(S'al.h'
p4766
F2.1333333333333333
tp4767
a(S'Vector3.inl'
p4768
F0.0
tp4769
a(S'c++config.h'
p4770
F0.0
tp4771
a(S'alc.h'
p4772
F0.0
tp4773
a(S'SoundBuffer.hpp'
p4774
F0.0
tp4775
a(S'stl_set.h'
p4776
F0.0
tp4777
a(S'SoundSource.hpp'
p4778
F0.0
tp4779
a(S'Sound.hpp'
p4780
F0.0
tp4781
a(S'stl_vector.h'
p4782
F0.0
tp4783
a(S'AlResource.hpp'
p4784
F0.0
tp4785
a(S'stringfwd.h'
p4786
F0.0
tp4787
a(S'Sound.cpp'
p4788
F0.0
tp4789
a(S'Time.hpp'
p4790
F0.0
tp4791
a(S'ALCheck.hpp'
p4792
F0.0
tp4793
a(S'Vector3.hpp'
p4794
F0.0
tp4795
a(S'Config.hpp'
p4796
F0.0
tp4797
asS'alcIsExtensionPresent'
p4798
(lp4799
(S'alc.h'
p4800
F0.22857142857142856
tp4801
a(S'Vector3.inl'
p4802
F0.0
tp4803
a(S'al.h'
p4804
F0.0
tp4805
a(S'c++config.h'
p4806
F0.0
tp4807
a(S'SoundBuffer.hpp'
p4808
F0.0
tp4809
a(S'stl_set.h'
p4810
F0.0
tp4811
a(S'SoundSource.hpp'
p4812
F0.0
tp4813
a(S'Sound.hpp'
p4814
F0.0
tp4815
a(S'stl_vector.h'
p4816
F0.0
tp4817
a(S'AlResource.hpp'
p4818
F0.0
tp4819
a(S'stringfwd.h'
p4820
F0.0
tp4821
a(S'Sound.cpp'
p4822
F0.0
tp4823
a(S'Time.hpp'
p4824
F0.0
tp4825
a(S'ALCheck.hpp'
p4826
F0.0
tp4827
a(S'Vector3.hpp'
p4828
F0.0
tp4829
a(S'Config.hpp'
p4830
F0.0
tp4831
asS'funcname'
p4832
(lp4833
(S'alc.h'
p4834
F0.45714285714285713
tp4835
a(S'Vector3.inl'
p4836
F0.0
tp4837
a(S'al.h'
p4838
F0.0
tp4839
a(S'c++config.h'
p4840
F0.0
tp4841
a(S'SoundBuffer.hpp'
p4842
F0.0
tp4843
a(S'stl_set.h'
p4844
F0.0
tp4845
a(S'SoundSource.hpp'
p4846
F0.0
tp4847
a(S'Sound.hpp'
p4848
F0.0
tp4849
a(S'stl_vector.h'
p4850
F0.0
tp4851
a(S'AlResource.hpp'
p4852
F0.0
tp4853
a(S'stringfwd.h'
p4854
F0.0
tp4855
a(S'Sound.cpp'
p4856
F0.0
tp4857
a(S'Time.hpp'
p4858
F0.0
tp4859
a(S'ALCheck.hpp'
p4860
F0.0
tp4861
a(S'Vector3.hpp'
p4862
F0.0
tp4863
a(S'Config.hpp'
p4864
F0.0
tp4865
asS'milliseconds'
p4866
(lp4867
(S'Vector3.inl'
p4868
I0
tp4869
a(S'al.h'
p4870
I0
tp4871
a(S'c++config.h'
p4872
I0
tp4873
a(S'alc.h'
p4874
I0
tp4875
a(S'SoundBuffer.hpp'
p4876
I0
tp4877
a(S'stl_set.h'
p4878
I0
tp4879
a(S'SoundSource.hpp'
p4880
I0
tp4881
a(S'Sound.hpp'
p4882
I0
tp4883
a(S'stl_vector.h'
p4884
I0
tp4885
a(S'AlResource.hpp'
p4886
I0
tp4887
a(S'stringfwd.h'
p4888
I0
tp4889
a(S'Sound.cpp'
p4890
I0
tp4891
a(S'Time.hpp'
p4892
I0
tp4893
a(S'ALCheck.hpp'
p4894
I0
tp4895
a(S'Vector3.hpp'
p4896
I0
tp4897
a(S'Config.hpp'
p4898
I0
tp4899
asS'setVolume'
p4900
(lp4901
(S'Vector3.inl'
p4902
I0
tp4903
a(S'al.h'
p4904
I0
tp4905
a(S'c++config.h'
p4906
I0
tp4907
a(S'alc.h'
p4908
I0
tp4909
a(S'SoundBuffer.hpp'
p4910
I0
tp4911
a(S'stl_set.h'
p4912
I0
tp4913
a(S'SoundSource.hpp'
p4914
I0
tp4915
a(S'Sound.hpp'
p4916
I0
tp4917
a(S'stl_vector.h'
p4918
I0
tp4919
a(S'AlResource.hpp'
p4920
I0
tp4921
a(S'stringfwd.h'
p4922
I0
tp4923
a(S'Sound.cpp'
p4924
I0
tp4925
a(S'Time.hpp'
p4926
I0
tp4927
a(S'ALCheck.hpp'
p4928
I0
tp4929
a(S'Vector3.hpp'
p4930
I0
tp4931
a(S'Config.hpp'
p4932
I0
tp4933
asS'alGetSourcef'
p4934
(lp4935
(S'Sound.cpp'
p4936
F0.19047619047619047
tp4937
a(S'al.h'
p4938
F0.044444444444444446
tp4939
a(S'Vector3.inl'
p4940
F0.0
tp4941
a(S'c++config.h'
p4942
F0.0
tp4943
a(S'alc.h'
p4944
F0.0
tp4945
a(S'SoundBuffer.hpp'
p4946
F0.0
tp4947
a(S'stl_set.h'
p4948
F0.0
tp4949
a(S'SoundSource.hpp'
p4950
F0.0
tp4951
a(S'Sound.hpp'
p4952
F0.0
tp4953
a(S'stl_vector.h'
p4954
F0.0
tp4955
a(S'AlResource.hpp'
p4956
F0.0
tp4957
a(S'stringfwd.h'
p4958
F0.0
tp4959
a(S'Time.hpp'
p4960
F0.0
tp4961
a(S'ALCheck.hpp'
p4962
F0.0
tp4963
a(S'Vector3.hpp'
p4964
F0.0
tp4965
a(S'Config.hpp'
p4966
F0.0
tp4967
asS'operator!='
p4968
(lp4969
(S'Vector3.inl'
p4970
F0.34782608695652173
tp4971
a(S'Vector3.hpp'
p4972
F0.2962962962962963
tp4973
a(S'al.h'
p4974
F0.0
tp4975
a(S'c++config.h'
p4976
F0.0
tp4977
a(S'alc.h'
p4978
F0.0
tp4979
a(S'SoundBuffer.hpp'
p4980
F0.0
tp4981
a(S'stl_set.h'
p4982
F0.0
tp4983
a(S'SoundSource.hpp'
p4984
F0.0
tp4985
a(S'Sound.hpp'
p4986
F0.0
tp4987
a(S'stl_vector.h'
p4988
F0.0
tp4989
a(S'AlResource.hpp'
p4990
F0.0
tp4991
a(S'stringfwd.h'
p4992
F0.0
tp4993
a(S'Sound.cpp'
p4994
F0.0
tp4995
a(S'Time.hpp'
p4996
F0.0
tp4997
a(S'ALCheck.hpp'
p4998
F0.0
tp4999
a(S'Config.hpp'
p5000
F0.0
tp5001
asS'samples'
p5002
(lp5003
(S'alc.h'
p5004
F0.22857142857142856
tp5005
a(S'SoundBuffer.hpp'
p5006
F0.21621621621621623
tp5007
a(S'Vector3.inl'
p5008
F0.0
tp5009
a(S'al.h'
p5010
F0.0
tp5011
a(S'c++config.h'
p5012
F0.0
tp5013
a(S'stl_set.h'
p5014
F0.0
tp5015
a(S'SoundSource.hpp'
p5016
F0.0
tp5017
a(S'Sound.hpp'
p5018
F0.0
tp5019
a(S'stl_vector.h'
p5020
F0.0
tp5021
a(S'AlResource.hpp'
p5022
F0.0
tp5023
a(S'stringfwd.h'
p5024
F0.0
tp5025
a(S'Sound.cpp'
p5026
F0.0
tp5027
a(S'Time.hpp'
p5028
F0.0
tp5029
a(S'ALCheck.hpp'
p5030
F0.0
tp5031
a(S'Vector3.hpp'
p5032
F0.0
tp5033
a(S'Config.hpp'
p5034
F0.0
tp5035
asS'alListenerfv'
p5036
(lp5037
(S'al.h'
p5038
F0.08888888888888889
tp5039
a(S'Vector3.inl'
p5040
F0.0
tp5041
a(S'c++config.h'
p5042
F0.0
tp5043
a(S'alc.h'
p5044
F0.0
tp5045
a(S'SoundBuffer.hpp'
p5046
F0.0
tp5047
a(S'stl_set.h'
p5048
F0.0
tp5049
a(S'SoundSource.hpp'
p5050
F0.0
tp5051
a(S'Sound.hpp'
p5052
F0.0
tp5053
a(S'stl_vector.h'
p5054
F0.0
tp5055
a(S'AlResource.hpp'
p5056
F0.0
tp5057
a(S'stringfwd.h'
p5058
F0.0
tp5059
a(S'Sound.cpp'
p5060
F0.0
tp5061
a(S'Time.hpp'
p5062
F0.0
tp5063
a(S'ALCheck.hpp'
p5064
F0.0
tp5065
a(S'Vector3.hpp'
p5066
F0.0
tp5067
a(S'Config.hpp'
p5068
F0.0
tp5069
asS'alGetSourcei'
p5070
(lp5071
(S'Sound.cpp'
p5072
F0.19047619047619047
tp5073
a(S'al.h'
p5074
F0.044444444444444446
tp5075
a(S'Vector3.inl'
p5076
F0.0
tp5077
a(S'c++config.h'
p5078
F0.0
tp5079
a(S'alc.h'
p5080
F0.0
tp5081
a(S'SoundBuffer.hpp'
p5082
F0.0
tp5083
a(S'stl_set.h'
p5084
F0.0
tp5085
a(S'SoundSource.hpp'
p5086
F0.0
tp5087
a(S'Sound.hpp'
p5088
F0.0
tp5089
a(S'stl_vector.h'
p5090
F0.0
tp5091
a(S'AlResource.hpp'
p5092
F0.0
tp5093
a(S'stringfwd.h'
p5094
F0.0
tp5095
a(S'Time.hpp'
p5096
F0.0
tp5097
a(S'ALCheck.hpp'
p5098
F0.0
tp5099
a(S'Vector3.hpp'
p5100
F0.0
tp5101
a(S'Config.hpp'
p5102
F0.0
tp5103
asS'volume'
p5104
(lp5105
(S'SoundSource.hpp'
p5106
F0.6666666666666666
tp5107
a(S'Vector3.inl'
p5108
F0.0
tp5109
a(S'al.h'
p5110
F0.0
tp5111
a(S'c++config.h'
p5112
F0.0
tp5113
a(S'alc.h'
p5114
F0.0
tp5115
a(S'SoundBuffer.hpp'
p5116
F0.0
tp5117
a(S'stl_set.h'
p5118
F0.0
tp5119
a(S'Sound.hpp'
p5120
F0.0
tp5121
a(S'stl_vector.h'
p5122
F0.0
tp5123
a(S'AlResource.hpp'
p5124
F0.0
tp5125
a(S'stringfwd.h'
p5126
F0.0
tp5127
a(S'Sound.cpp'
p5128
F0.0
tp5129
a(S'Time.hpp'
p5130
F0.0
tp5131
a(S'ALCheck.hpp'
p5132
F0.0
tp5133
a(S'Vector3.hpp'
p5134
F0.0
tp5135
a(S'Config.hpp'
p5136
F0.0
tp5137
asS'getLoop'
p5138
(lp5139
(S'Sound.hpp'
p5140
F0.26666666666666666
tp5141
a(S'Sound.cpp'
p5142
F0.19047619047619047
tp5143
a(S'Vector3.inl'
p5144
F0.0
tp5145
a(S'al.h'
p5146
F0.0
tp5147
a(S'c++config.h'
p5148
F0.0
tp5149
a(S'alc.h'
p5150
F0.0
tp5151
a(S'SoundBuffer.hpp'
p5152
F0.0
tp5153
a(S'stl_set.h'
p5154
F0.0
tp5155
a(S'SoundSource.hpp'
p5156
F0.0
tp5157
a(S'stl_vector.h'
p5158
F0.0
tp5159
a(S'AlResource.hpp'
p5160
F0.0
tp5161
a(S'stringfwd.h'
p5162
F0.0
tp5163
a(S'Time.hpp'
p5164
F0.0
tp5165
a(S'ALCheck.hpp'
p5166
F0.0
tp5167
a(S'Vector3.hpp'
p5168
F0.0
tp5169
a(S'Config.hpp'
p5170
F0.0
tp5171
asS'alGetListener3i'
p5172
(lp5173
(S'al.h'
p5174
F0.08888888888888889
tp5175
a(S'Vector3.inl'
p5176
F0.0
tp5177
a(S'c++config.h'
p5178
F0.0
tp5179
a(S'alc.h'
p5180
F0.0
tp5181
a(S'SoundBuffer.hpp'
p5182
F0.0
tp5183
a(S'stl_set.h'
p5184
F0.0
tp5185
a(S'SoundSource.hpp'
p5186
F0.0
tp5187
a(S'Sound.hpp'
p5188
F0.0
tp5189
a(S'stl_vector.h'
p5190
F0.0
tp5191
a(S'AlResource.hpp'
p5192
F0.0
tp5193
a(S'stringfwd.h'
p5194
F0.0
tp5195
a(S'Sound.cpp'
p5196
F0.0
tp5197
a(S'Time.hpp'
p5198
F0.0
tp5199
a(S'ALCheck.hpp'
p5200
F0.0
tp5201
a(S'Vector3.hpp'
p5202
F0.0
tp5203
a(S'Config.hpp'
p5204
F0.0
tp5205
asS'alGetString'
p5206
(lp5207
(S'al.h'
p5208
F0.08888888888888889
tp5209
a(S'Vector3.inl'
p5210
F0.0
tp5211
a(S'c++config.h'
p5212
F0.0
tp5213
a(S'alc.h'
p5214
F0.0
tp5215
a(S'SoundBuffer.hpp'
p5216
F0.0
tp5217
a(S'stl_set.h'
p5218
F0.0
tp5219
a(S'SoundSource.hpp'
p5220
F0.0
tp5221
a(S'Sound.hpp'
p5222
F0.0
tp5223
a(S'stl_vector.h'
p5224
F0.0
tp5225
a(S'AlResource.hpp'
p5226
F0.0
tp5227
a(S'stringfwd.h'
p5228
F0.0
tp5229
a(S'Sound.cpp'
p5230
F0.0
tp5231
a(S'Time.hpp'
p5232
F0.0
tp5233
a(S'ALCheck.hpp'
p5234
F0.0
tp5235
a(S'Vector3.hpp'
p5236
F0.0
tp5237
a(S'Config.hpp'
p5238
F0.0
tp5239
asS'asSeconds'
p5240
(lp5241
(S'Vector3.inl'
p5242
I0
tp5243
a(S'al.h'
p5244
I0
tp5245
a(S'c++config.h'
p5246
I0
tp5247
a(S'alc.h'
p5248
I0
tp5249
a(S'SoundBuffer.hpp'
p5250
I0
tp5251
a(S'stl_set.h'
p5252
I0
tp5253
a(S'SoundSource.hpp'
p5254
I0
tp5255
a(S'Sound.hpp'
p5256
I0
tp5257
a(S'stl_vector.h'
p5258
I0
tp5259
a(S'AlResource.hpp'
p5260
I0
tp5261
a(S'stringfwd.h'
p5262
I0
tp5263
a(S'Sound.cpp'
p5264
I0
tp5265
a(S'Time.hpp'
p5266
I0
tp5267
a(S'ALCheck.hpp'
p5268
I0
tp5269
a(S'Vector3.hpp'
p5270
I0
tp5271
a(S'Config.hpp'
p5272
I0
tp5273
asS'getMinDistance'
p5274
(lp5275
(S'Vector3.inl'
p5276
I0
tp5277
a(S'al.h'
p5278
I0
tp5279
a(S'c++config.h'
p5280
I0
tp5281
a(S'alc.h'
p5282
I0
tp5283
a(S'SoundBuffer.hpp'
p5284
I0
tp5285
a(S'stl_set.h'
p5286
I0
tp5287
a(S'SoundSource.hpp'
p5288
I0
tp5289
a(S'Sound.hpp'
p5290
I0
tp5291
a(S'stl_vector.h'
p5292
I0
tp5293
a(S'AlResource.hpp'
p5294
I0
tp5295
a(S'stringfwd.h'
p5296
I0
tp5297
a(S'Sound.cpp'
p5298
I0
tp5299
a(S'Time.hpp'
p5300
I0
tp5301
a(S'ALCheck.hpp'
p5302
I0
tp5303
a(S'Vector3.hpp'
p5304
I0
tp5305
a(S'Config.hpp'
p5306
I0
tp5307
asS'line'
p5308
(lp5309
(S'ALCheck.hpp'
p5310
F3.2
tp5311
a(S'Vector3.inl'
p5312
F0.0
tp5313
a(S'al.h'
p5314
F0.0
tp5315
a(S'c++config.h'
p5316
F0.0
tp5317
a(S'alc.h'
p5318
F0.0
tp5319
a(S'SoundBuffer.hpp'
p5320
F0.0
tp5321
a(S'stl_set.h'
p5322
F0.0
tp5323
a(S'SoundSource.hpp'
p5324
F0.0
tp5325
a(S'Sound.hpp'
p5326
F0.0
tp5327
a(S'stl_vector.h'
p5328
F0.0
tp5329
a(S'AlResource.hpp'
p5330
F0.0
tp5331
a(S'stringfwd.h'
p5332
F0.0
tp5333
a(S'Sound.cpp'
p5334
F0.0
tp5335
a(S'Time.hpp'
p5336
F0.0
tp5337
a(S'Vector3.hpp'
p5338
F0.0
tp5339
a(S'Config.hpp'
p5340
F0.0
tp5341
asS'Z'
p5342
(lp5343
(S'Vector3.inl'
p5344
F0.34782608695652173
tp5345
a(S'Vector3.hpp'
p5346
F0.2962962962962963
tp5347
a(S'al.h'
p5348
F0.0
tp5349
a(S'c++config.h'
p5350
F0.0
tp5351
a(S'alc.h'
p5352
F0.0
tp5353
a(S'SoundBuffer.hpp'
p5354
F0.0
tp5355
a(S'stl_set.h'
p5356
F0.0
tp5357
a(S'SoundSource.hpp'
p5358
F0.0
tp5359
a(S'Sound.hpp'
p5360
F0.0
tp5361
a(S'stl_vector.h'
p5362
F0.0
tp5363
a(S'AlResource.hpp'
p5364
F0.0
tp5365
a(S'stringfwd.h'
p5366
F0.0
tp5367
a(S'Sound.cpp'
p5368
F0.0
tp5369
a(S'Time.hpp'
p5370
F0.0
tp5371
a(S'ALCheck.hpp'
p5372
F0.0
tp5373
a(S'Config.hpp'
p5374
F0.0
tp5375
asS'alcGetContextsDevice'
p5376
(lp5377
(S'alc.h'
p5378
F0.22857142857142856
tp5379
a(S'Vector3.inl'
p5380
F0.0
tp5381
a(S'al.h'
p5382
F0.0
tp5383
a(S'c++config.h'
p5384
F0.0
tp5385
a(S'SoundBuffer.hpp'
p5386
F0.0
tp5387
a(S'stl_set.h'
p5388
F0.0
tp5389
a(S'SoundSource.hpp'
p5390
F0.0
tp5391
a(S'Sound.hpp'
p5392
F0.0
tp5393
a(S'stl_vector.h'
p5394
F0.0
tp5395
a(S'AlResource.hpp'
p5396
F0.0
tp5397
a(S'stringfwd.h'
p5398
F0.0
tp5399
a(S'Sound.cpp'
p5400
F0.0
tp5401
a(S'Time.hpp'
p5402
F0.0
tp5403
a(S'ALCheck.hpp'
p5404
F0.0
tp5405
a(S'Vector3.hpp'
p5406
F0.0
tp5407
a(S'Config.hpp'
p5408
F0.0
tp5409
asS'alGetListener3f'
p5410
(lp5411
(S'al.h'
p5412
F0.08888888888888889
tp5413
a(S'Vector3.inl'
p5414
F0.0
tp5415
a(S'c++config.h'
p5416
F0.0
tp5417
a(S'alc.h'
p5418
F0.0
tp5419
a(S'SoundBuffer.hpp'
p5420
F0.0
tp5421
a(S'stl_set.h'
p5422
F0.0
tp5423
a(S'SoundSource.hpp'
p5424
F0.0
tp5425
a(S'Sound.hpp'
p5426
F0.0
tp5427
a(S'stl_vector.h'
p5428
F0.0
tp5429
a(S'AlResource.hpp'
p5430
F0.0
tp5431
a(S'stringfwd.h'
p5432
F0.0
tp5433
a(S'Sound.cpp'
p5434
F0.0
tp5435
a(S'Time.hpp'
p5436
F0.0
tp5437
a(S'ALCheck.hpp'
p5438
F0.0
tp5439
a(S'Vector3.hpp'
p5440
F0.0
tp5441
a(S'Config.hpp'
p5442
F0.0
tp5443
asS'getPosition'
p5444
(lp5445
(S'Vector3.inl'
p5446
I0
tp5447
a(S'al.h'
p5448
I0
tp5449
a(S'c++config.h'
p5450
I0
tp5451
a(S'alc.h'
p5452
I0
tp5453
a(S'SoundBuffer.hpp'
p5454
I0
tp5455
a(S'stl_set.h'
p5456
I0
tp5457
a(S'SoundSource.hpp'
p5458
I0
tp5459
a(S'Sound.hpp'
p5460
I0
tp5461
a(S'stl_vector.h'
p5462
I0
tp5463
a(S'AlResource.hpp'
p5464
I0
tp5465
a(S'stringfwd.h'
p5466
I0
tp5467
a(S'Sound.cpp'
p5468
I0
tp5469
a(S'Time.hpp'
p5470
I0
tp5471
a(S'ALCheck.hpp'
p5472
I0
tp5473
a(S'Vector3.hpp'
p5474
I0
tp5475
a(S'Config.hpp'
p5476
I0
tp5477
asS'alGenSources'
p5478
(lp5479
(S'al.h'
p5480
F0.08888888888888889
tp5481
a(S'Vector3.inl'
p5482
F0.0
tp5483
a(S'c++config.h'
p5484
F0.0
tp5485
a(S'alc.h'
p5486
F0.0
tp5487
a(S'SoundBuffer.hpp'
p5488
F0.0
tp5489
a(S'stl_set.h'
p5490
F0.0
tp5491
a(S'SoundSource.hpp'
p5492
F0.0
tp5493
a(S'Sound.hpp'
p5494
F0.0
tp5495
a(S'stl_vector.h'
p5496
F0.0
tp5497
a(S'AlResource.hpp'
p5498
F0.0
tp5499
a(S'stringfwd.h'
p5500
F0.0
tp5501
a(S'Sound.cpp'
p5502
F0.0
tp5503
a(S'Time.hpp'
p5504
F0.0
tp5505
a(S'ALCheck.hpp'
p5506
F0.0
tp5507
a(S'Vector3.hpp'
p5508
F0.0
tp5509
a(S'Config.hpp'
p5510
F0.0
tp5511
asS'sound'
p5512
(lp5513
(S'SoundBuffer.hpp'
p5514
F0.8648648648648649
tp5515
a(S'Vector3.inl'
p5516
F0.0
tp5517
a(S'al.h'
p5518
F0.0
tp5519
a(S'c++config.h'
p5520
F0.0
tp5521
a(S'alc.h'
p5522
F0.0
tp5523
a(S'stl_set.h'
p5524
F0.0
tp5525
a(S'SoundSource.hpp'
p5526
F0.0
tp5527
a(S'Sound.hpp'
p5528
F0.0
tp5529
a(S'stl_vector.h'
p5530
F0.0
tp5531
a(S'AlResource.hpp'
p5532
F0.0
tp5533
a(S'stringfwd.h'
p5534
F0.0
tp5535
a(S'Sound.cpp'
p5536
F0.0
tp5537
a(S'Time.hpp'
p5538
F0.0
tp5539
a(S'ALCheck.hpp'
p5540
F0.0
tp5541
a(S'Vector3.hpp'
p5542
F0.0
tp5543
a(S'Config.hpp'
p5544
F0.0
tp5545
asS'relative'
p5546
(lp5547
(S'SoundSource.hpp'
p5548
F0.6666666666666666
tp5549
a(S'Vector3.inl'
p5550
F0.0
tp5551
a(S'al.h'
p5552
F0.0
tp5553
a(S'c++config.h'
p5554
F0.0
tp5555
a(S'alc.h'
p5556
F0.0
tp5557
a(S'SoundBuffer.hpp'
p5558
F0.0
tp5559
a(S'stl_set.h'
p5560
F0.0
tp5561
a(S'Sound.hpp'
p5562
F0.0
tp5563
a(S'stl_vector.h'
p5564
F0.0
tp5565
a(S'AlResource.hpp'
p5566
F0.0
tp5567
a(S'stringfwd.h'
p5568
F0.0
tp5569
a(S'Sound.cpp'
p5570
F0.0
tp5571
a(S'Time.hpp'
p5572
F0.0
tp5573
a(S'ALCheck.hpp'
p5574
F0.0
tp5575
a(S'Vector3.hpp'
p5576
F0.0
tp5577
a(S'Config.hpp'
p5578
F0.0
tp5579
asS'alGetFloat'
p5580
(lp5581
(S'al.h'
p5582
F0.08888888888888889
tp5583
a(S'Vector3.inl'
p5584
F0.0
tp5585
a(S'c++config.h'
p5586
F0.0
tp5587
a(S'alc.h'
p5588
F0.0
tp5589
a(S'SoundBuffer.hpp'
p5590
F0.0
tp5591
a(S'stl_set.h'
p5592
F0.0
tp5593
a(S'SoundSource.hpp'
p5594
F0.0
tp5595
a(S'Sound.hpp'
p5596
F0.0
tp5597
a(S'stl_vector.h'
p5598
F0.0
tp5599
a(S'AlResource.hpp'
p5600
F0.0
tp5601
a(S'stringfwd.h'
p5602
F0.0
tp5603
a(S'Sound.cpp'
p5604
F0.0
tp5605
a(S'Time.hpp'
p5606
F0.0
tp5607
a(S'ALCheck.hpp'
p5608
F0.0
tp5609
a(S'Vector3.hpp'
p5610
F0.0
tp5611
a(S'Config.hpp'
p5612
F0.0
tp5613
asS'resetBuffer'
p5614
(lp5615
(S'Sound.hpp'
p5616
F0.26666666666666666
tp5617
a(S'Sound.cpp'
p5618
F0.19047619047619047
tp5619
a(S'Vector3.inl'
p5620
F0.0
tp5621
a(S'al.h'
p5622
F0.0
tp5623
a(S'c++config.h'
p5624
F0.0
tp5625
a(S'alc.h'
p5626
F0.0
tp5627
a(S'SoundBuffer.hpp'
p5628
F0.0
tp5629
a(S'stl_set.h'
p5630
F0.0
tp5631
a(S'SoundSource.hpp'
p5632
F0.0
tp5633
a(S'stl_vector.h'
p5634
F0.0
tp5635
a(S'AlResource.hpp'
p5636
F0.0
tp5637
a(S'stringfwd.h'
p5638
F0.0
tp5639
a(S'Time.hpp'
p5640
F0.0
tp5641
a(S'ALCheck.hpp'
p5642
F0.0
tp5643
a(S'Vector3.hpp'
p5644
F0.0
tp5645
a(S'Config.hpp'
p5646
F0.0
tp5647
asS'value'
p5648
(lp5649
(S'al.h'
p5650
F2.6666666666666665
tp5651
a(S'Vector3.inl'
p5652
F0.0
tp5653
a(S'c++config.h'
p5654
F0.0
tp5655
a(S'alc.h'
p5656
F0.0
tp5657
a(S'SoundBuffer.hpp'
p5658
F0.0
tp5659
a(S'stl_set.h'
p5660
F0.0
tp5661
a(S'SoundSource.hpp'
p5662
F0.0
tp5663
a(S'Sound.hpp'
p5664
F0.0
tp5665
a(S'stl_vector.h'
p5666
F0.0
tp5667
a(S'AlResource.hpp'
p5668
F0.0
tp5669
a(S'stringfwd.h'
p5670
F0.0
tp5671
a(S'Sound.cpp'
p5672
F0.0
tp5673
a(S'Time.hpp'
p5674
F0.0
tp5675
a(S'ALCheck.hpp'
p5676
F0.0
tp5677
a(S'Vector3.hpp'
p5678
F0.0
tp5679
a(S'Config.hpp'
p5680
F0.0
tp5681
asS'n'
p5682
(lp5683
(S'al.h'
p5684
F1.4222222222222223
tp5685
a(S'Vector3.inl'
p5686
F0.0
tp5687
a(S'c++config.h'
p5688
F0.0
tp5689
a(S'alc.h'
p5690
F0.0
tp5691
a(S'SoundBuffer.hpp'
p5692
F0.0
tp5693
a(S'stl_set.h'
p5694
F0.0
tp5695
a(S'SoundSource.hpp'
p5696
F0.0
tp5697
a(S'Sound.hpp'
p5698
F0.0
tp5699
a(S'stl_vector.h'
p5700
F0.0
tp5701
a(S'AlResource.hpp'
p5702
F0.0
tp5703
a(S'stringfwd.h'
p5704
F0.0
tp5705
a(S'Sound.cpp'
p5706
F0.0
tp5707
a(S'Time.hpp'
p5708
F0.0
tp5709
a(S'ALCheck.hpp'
p5710
F0.0
tp5711
a(S'Vector3.hpp'
p5712
F0.0
tp5713
a(S'Config.hpp'
p5714
F0.0
tp5715
asS'frequency'
p5716
(lp5717
(S'alc.h'
p5718
F0.45714285714285713
tp5719
a(S'Vector3.inl'
p5720
F0.0
tp5721
a(S'al.h'
p5722
F0.0
tp5723
a(S'c++config.h'
p5724
F0.0
tp5725
a(S'SoundBuffer.hpp'
p5726
F0.0
tp5727
a(S'stl_set.h'
p5728
F0.0
tp5729
a(S'SoundSource.hpp'
p5730
F0.0
tp5731
a(S'Sound.hpp'
p5732
F0.0
tp5733
a(S'stl_vector.h'
p5734
F0.0
tp5735
a(S'AlResource.hpp'
p5736
F0.0
tp5737
a(S'stringfwd.h'
p5738
F0.0
tp5739
a(S'Sound.cpp'
p5740
F0.0
tp5741
a(S'Time.hpp'
p5742
F0.0
tp5743
a(S'ALCheck.hpp'
p5744
F0.0
tp5745
a(S'Vector3.hpp'
p5746
F0.0
tp5747
a(S'Config.hpp'
p5748
F0.0
tp5749
asS'values'
p5750
(lp5751
(S'al.h'
p5752
F1.4222222222222223
tp5753
a(S'alc.h'
p5754
F0.22857142857142856
tp5755
a(S'Vector3.inl'
p5756
F0.0
tp5757
a(S'c++config.h'
p5758
F0.0
tp5759
a(S'SoundBuffer.hpp'
p5760
F0.0
tp5761
a(S'stl_set.h'
p5762
F0.0
tp5763
a(S'SoundSource.hpp'
p5764
F0.0
tp5765
a(S'Sound.hpp'
p5766
F0.0
tp5767
a(S'stl_vector.h'
p5768
F0.0
tp5769
a(S'AlResource.hpp'
p5770
F0.0
tp5771
a(S'stringfwd.h'
p5772
F0.0
tp5773
a(S'Sound.cpp'
p5774
F0.0
tp5775
a(S'Time.hpp'
p5776
F0.0
tp5777
a(S'ALCheck.hpp'
p5778
F0.0
tp5779
a(S'Vector3.hpp'
p5780
F0.0
tp5781
a(S'Config.hpp'
p5782
F0.0
tp5783
asS'alGetInteger'
p5784
(lp5785
(S'al.h'
p5786
F0.08888888888888889
tp5787
a(S'Vector3.inl'
p5788
F0.0
tp5789
a(S'c++config.h'
p5790
F0.0
tp5791
a(S'alc.h'
p5792
F0.0
tp5793
a(S'SoundBuffer.hpp'
p5794
F0.0
tp5795
a(S'stl_set.h'
p5796
F0.0
tp5797
a(S'SoundSource.hpp'
p5798
F0.0
tp5799
a(S'Sound.hpp'
p5800
F0.0
tp5801
a(S'stl_vector.h'
p5802
F0.0
tp5803
a(S'AlResource.hpp'
p5804
F0.0
tp5805
a(S'stringfwd.h'
p5806
F0.0
tp5807
a(S'Sound.cpp'
p5808
F0.0
tp5809
a(S'Time.hpp'
p5810
F0.0
tp5811
a(S'ALCheck.hpp'
p5812
F0.0
tp5813
a(S'Vector3.hpp'
p5814
F0.0
tp5815
a(S'Config.hpp'
p5816
F0.0
tp5817
asS'alGetIntegerv'
p5818
(lp5819
(S'al.h'
p5820
F0.08888888888888889
tp5821
a(S'Vector3.inl'
p5822
F0.0
tp5823
a(S'c++config.h'
p5824
F0.0
tp5825
a(S'alc.h'
p5826
F0.0
tp5827
a(S'SoundBuffer.hpp'
p5828
F0.0
tp5829
a(S'stl_set.h'
p5830
F0.0
tp5831
a(S'SoundSource.hpp'
p5832
F0.0
tp5833
a(S'Sound.hpp'
p5834
F0.0
tp5835
a(S'stl_vector.h'
p5836
F0.0
tp5837
a(S'AlResource.hpp'
p5838
F0.0
tp5839
a(S'stringfwd.h'
p5840
F0.0
tp5841
a(S'Sound.cpp'
p5842
F0.0
tp5843
a(S'Time.hpp'
p5844
F0.0
tp5845
a(S'ALCheck.hpp'
p5846
F0.0
tp5847
a(S'Vector3.hpp'
p5848
F0.0
tp5849
a(S'Config.hpp'
p5850
F0.0
tp5851
asS'setPitch'
p5852
(lp5853
(S'Vector3.inl'
p5854
I0
tp5855
a(S'al.h'
p5856
I0
tp5857
a(S'c++config.h'
p5858
I0
tp5859
a(S'alc.h'
p5860
I0
tp5861
a(S'SoundBuffer.hpp'
p5862
I0
tp5863
a(S'stl_set.h'
p5864
I0
tp5865
a(S'SoundSource.hpp'
p5866
I0
tp5867
a(S'Sound.hpp'
p5868
I0
tp5869
a(S'stl_vector.h'
p5870
I0
tp5871
a(S'AlResource.hpp'
p5872
I0
tp5873
a(S'stringfwd.h'
p5874
I0
tp5875
a(S'Sound.cpp'
p5876
I0
tp5877
a(S'Time.hpp'
p5878
I0
tp5879
a(S'ALCheck.hpp'
p5880
I0
tp5881
a(S'Vector3.hpp'
p5882
I0
tp5883
a(S'Config.hpp'
p5884
I0
tp5885
asS'z'
p5886
(lp5887
(S'Vector3.inl'
p5888
F0.23188405797101447
tp5889
a(S'SoundSource.hpp'
p5890
F0.2222222222222222
tp5891
a(S'Vector3.hpp'
p5892
F0.19753086419753085
tp5893
a(S'al.h'
p5894
F0.0
tp5895
a(S'c++config.h'
p5896
F0.0
tp5897
a(S'alc.h'
p5898
F0.0
tp5899
a(S'SoundBuffer.hpp'
p5900
F0.0
tp5901
a(S'stl_set.h'
p5902
F0.0
tp5903
a(S'Sound.hpp'
p5904
F0.0
tp5905
a(S'stl_vector.h'
p5906
F0.0
tp5907
a(S'AlResource.hpp'
p5908
F0.0
tp5909
a(S'stringfwd.h'
p5910
F0.0
tp5911
a(S'Sound.cpp'
p5912
F0.0
tp5913
a(S'Time.hpp'
p5914
F0.0
tp5915
a(S'ALCheck.hpp'
p5916
F0.0
tp5917
a(S'Config.hpp'
p5918
F0.0
tp5919
asS'loop'
p5920
(lp5921
(S'Sound.cpp'
p5922
F0.38095238095238093
tp5923
a(S'Sound.hpp'
p5924
F0.26666666666666666
tp5925
a(S'Vector3.inl'
p5926
F0.0
tp5927
a(S'al.h'
p5928
F0.0
tp5929
a(S'c++config.h'
p5930
F0.0
tp5931
a(S'alc.h'
p5932
F0.0
tp5933
a(S'SoundBuffer.hpp'
p5934
F0.0
tp5935
a(S'stl_set.h'
p5936
F0.0
tp5937
a(S'SoundSource.hpp'
p5938
F0.0
tp5939
a(S'stl_vector.h'
p5940
F0.0
tp5941
a(S'AlResource.hpp'
p5942
F0.0
tp5943
a(S'stringfwd.h'
p5944
F0.0
tp5945
a(S'Time.hpp'
p5946
F0.0
tp5947
a(S'ALCheck.hpp'
p5948
F0.0
tp5949
a(S'Vector3.hpp'
p5950
F0.0
tp5951
a(S'Config.hpp'
p5952
F0.0
tp5953
asS'distance'
p5954
(lp5955
(S'SoundSource.hpp'
p5956
F0.6666666666666666
tp5957
a(S'Vector3.inl'
p5958
F0.0
tp5959
a(S'al.h'
p5960
F0.0
tp5961
a(S'c++config.h'
p5962
F0.0
tp5963
a(S'alc.h'
p5964
F0.0
tp5965
a(S'SoundBuffer.hpp'
p5966
F0.0
tp5967
a(S'stl_set.h'
p5968
F0.0
tp5969
a(S'Sound.hpp'
p5970
F0.0
tp5971
a(S'stl_vector.h'
p5972
F0.0
tp5973
a(S'AlResource.hpp'
p5974
F0.0
tp5975
a(S'stringfwd.h'
p5976
F0.0
tp5977
a(S'Sound.cpp'
p5978
F0.0
tp5979
a(S'Time.hpp'
p5980
F0.0
tp5981
a(S'ALCheck.hpp'
p5982
F0.0
tp5983
a(S'Vector3.hpp'
p5984
F0.0
tp5985
a(S'Config.hpp'
p5986
F0.0
tp5987
asS'ename'
p5988
(lp5989
(S'al.h'
p5990
F0.17777777777777778
tp5991
a(S'Vector3.inl'
p5992
F0.0
tp5993
a(S'c++config.h'
p5994
F0.0
tp5995
a(S'alc.h'
p5996
F0.0
tp5997
a(S'SoundBuffer.hpp'
p5998
F0.0
tp5999
a(S'stl_set.h'
p6000
F0.0
tp6001
a(S'SoundSource.hpp'
p6002
F0.0
tp6003
a(S'Sound.hpp'
p6004
F0.0
tp6005
a(S'stl_vector.h'
p6006
F0.0
tp6007
a(S'AlResource.hpp'
p6008
F0.0
tp6009
a(S'stringfwd.h'
p6010
F0.0
tp6011
a(S'Sound.cpp'
p6012
F0.0
tp6013
a(S'Time.hpp'
p6014
F0.0
tp6015
a(S'ALCheck.hpp'
p6016
F0.0
tp6017
a(S'Vector3.hpp'
p6018
F0.0
tp6019
a(S'Config.hpp'
p6020
F0.0
tp6021
asS'extname'
p6022
(lp6023
(S'alc.h'
p6024
F0.22857142857142856
tp6025
a(S'al.h'
p6026
F0.08888888888888889
tp6027
a(S'Vector3.inl'
p6028
F0.0
tp6029
a(S'c++config.h'
p6030
F0.0
tp6031
a(S'SoundBuffer.hpp'
p6032
F0.0
tp6033
a(S'stl_set.h'
p6034
F0.0
tp6035
a(S'SoundSource.hpp'
p6036
F0.0
tp6037
a(S'Sound.hpp'
p6038
F0.0
tp6039
a(S'stl_vector.h'
p6040
F0.0
tp6041
a(S'AlResource.hpp'
p6042
F0.0
tp6043
a(S'stringfwd.h'
p6044
F0.0
tp6045
a(S'Sound.cpp'
p6046
F0.0
tp6047
a(S'Time.hpp'
p6048
F0.0
tp6049
a(S'ALCheck.hpp'
p6050
F0.0
tp6051
a(S'Vector3.hpp'
p6052
F0.0
tp6053
a(S'Config.hpp'
p6054
F0.0
tp6055
asS'asMicroseconds'
p6056
(lp6057
(S'Vector3.inl'
p6058
I0
tp6059
a(S'al.h'
p6060
I0
tp6061
a(S'c++config.h'
p6062
I0
tp6063
a(S'alc.h'
p6064
I0
tp6065
a(S'SoundBuffer.hpp'
p6066
I0
tp6067
a(S'stl_set.h'
p6068
I0
tp6069
a(S'SoundSource.hpp'
p6070
I0
tp6071
a(S'Sound.hpp'
p6072
I0
tp6073
a(S'stl_vector.h'
p6074
I0
tp6075
a(S'AlResource.hpp'
p6076
I0
tp6077
a(S'stringfwd.h'
p6078
I0
tp6079
a(S'Sound.cpp'
p6080
I0
tp6081
a(S'Time.hpp'
p6082
I0
tp6083
a(S'ALCheck.hpp'
p6084
I0
tp6085
a(S'Vector3.hpp'
p6086
I0
tp6087
a(S'Config.hpp'
p6088
I0
tp6089
asS'stream'
p6090
(lp6091
(S'SoundBuffer.hpp'
p6092
F0.43243243243243246
tp6093
a(S'Vector3.inl'
p6094
F0.0
tp6095
a(S'al.h'
p6096
F0.0
tp6097
a(S'c++config.h'
p6098
F0.0
tp6099
a(S'alc.h'
p6100
F0.0
tp6101
a(S'stl_set.h'
p6102
F0.0
tp6103
a(S'SoundSource.hpp'
p6104
F0.0
tp6105
a(S'Sound.hpp'
p6106
F0.0
tp6107
a(S'stl_vector.h'
p6108
F0.0
tp6109
a(S'AlResource.hpp'
p6110
F0.0
tp6111
a(S'stringfwd.h'
p6112
F0.0
tp6113
a(S'Sound.cpp'
p6114
F0.0
tp6115
a(S'Time.hpp'
p6116
F0.0
tp6117
a(S'ALCheck.hpp'
p6118
F0.0
tp6119
a(S'Vector3.hpp'
p6120
F0.0
tp6121
a(S'Config.hpp'
p6122
F0.0
tp6123
asS'alDopplerFactor'
p6124
(lp6125
(S'al.h'
p6126
F0.08888888888888889
tp6127
a(S'Vector3.inl'
p6128
F0.0
tp6129
a(S'c++config.h'
p6130
F0.0
tp6131
a(S'alc.h'
p6132
F0.0
tp6133
a(S'SoundBuffer.hpp'
p6134
F0.0
tp6135
a(S'stl_set.h'
p6136
F0.0
tp6137
a(S'SoundSource.hpp'
p6138
F0.0
tp6139
a(S'Sound.hpp'
p6140
F0.0
tp6141
a(S'stl_vector.h'
p6142
F0.0
tp6143
a(S'AlResource.hpp'
p6144
F0.0
tp6145
a(S'stringfwd.h'
p6146
F0.0
tp6147
a(S'Sound.cpp'
p6148
F0.0
tp6149
a(S'Time.hpp'
p6150
F0.0
tp6151
a(S'ALCheck.hpp'
p6152
F0.0
tp6153
a(S'Vector3.hpp'
p6154
F0.0
tp6155
a(S'Config.hpp'
p6156
F0.0
tp6157
asS'getVolume'
p6158
(lp6159
(S'Vector3.inl'
p6160
I0
tp6161
a(S'al.h'
p6162
I0
tp6163
a(S'c++config.h'
p6164
I0
tp6165
a(S'alc.h'
p6166
I0
tp6167
a(S'SoundBuffer.hpp'
p6168
I0
tp6169
a(S'stl_set.h'
p6170
I0
tp6171
a(S'SoundSource.hpp'
p6172
I0
tp6173
a(S'Sound.hpp'
p6174
I0
tp6175
a(S'stl_vector.h'
p6176
I0
tp6177
a(S'AlResource.hpp'
p6178
I0
tp6179
a(S'stringfwd.h'
p6180
I0
tp6181
a(S'Sound.cpp'
p6182
I0
tp6183
a(S'Time.hpp'
p6184
I0
tp6185
a(S'ALCheck.hpp'
p6186
I0
tp6187
a(S'Vector3.hpp'
p6188
I0
tp6189
a(S'Config.hpp'
p6190
I0
tp6191
asS'alBufferiv'
p6192
(lp6193
(S'al.h'
p6194
F0.08888888888888889
tp6195
a(S'Vector3.inl'
p6196
F0.0
tp6197
a(S'c++config.h'
p6198
F0.0
tp6199
a(S'alc.h'
p6200
F0.0
tp6201
a(S'SoundBuffer.hpp'
p6202
F0.0
tp6203
a(S'stl_set.h'
p6204
F0.0
tp6205
a(S'SoundSource.hpp'
p6206
F0.0
tp6207
a(S'Sound.hpp'
p6208
F0.0
tp6209
a(S'stl_vector.h'
p6210
F0.0
tp6211
a(S'AlResource.hpp'
p6212
F0.0
tp6213
a(S'stringfwd.h'
p6214
F0.0
tp6215
a(S'Sound.cpp'
p6216
F0.0
tp6217
a(S'Time.hpp'
p6218
F0.0
tp6219
a(S'ALCheck.hpp'
p6220
F0.0
tp6221
a(S'Vector3.hpp'
p6222
F0.0
tp6223
a(S'Config.hpp'
p6224
F0.0
tp6225
asS'alDeleteSources'
p6226
(lp6227
(S'al.h'
p6228
F0.08888888888888889
tp6229
a(S'Vector3.inl'
p6230
F0.0
tp6231
a(S'c++config.h'
p6232
F0.0
tp6233
a(S'alc.h'
p6234
F0.0
tp6235
a(S'SoundBuffer.hpp'
p6236
F0.0
tp6237
a(S'stl_set.h'
p6238
F0.0
tp6239
a(S'SoundSource.hpp'
p6240
F0.0
tp6241
a(S'Sound.hpp'
p6242
F0.0
tp6243
a(S'stl_vector.h'
p6244
F0.0
tp6245
a(S'AlResource.hpp'
p6246
F0.0
tp6247
a(S'stringfwd.h'
p6248
F0.0
tp6249
a(S'Sound.cpp'
p6250
F0.0
tp6251
a(S'Time.hpp'
p6252
F0.0
tp6253
a(S'ALCheck.hpp'
p6254
F0.0
tp6255
a(S'Vector3.hpp'
p6256
F0.0
tp6257
a(S'Config.hpp'
p6258
F0.0
tp6259
asS'alIsSource'
p6260
(lp6261
(S'al.h'
p6262
F0.08888888888888889
tp6263
a(S'Vector3.inl'
p6264
F0.0
tp6265
a(S'c++config.h'
p6266
F0.0
tp6267
a(S'alc.h'
p6268
F0.0
tp6269
a(S'SoundBuffer.hpp'
p6270
F0.0
tp6271
a(S'stl_set.h'
p6272
F0.0
tp6273
a(S'SoundSource.hpp'
p6274
F0.0
tp6275
a(S'Sound.hpp'
p6276
F0.0
tp6277
a(S'stl_vector.h'
p6278
F0.0
tp6279
a(S'AlResource.hpp'
p6280
F0.0
tp6281
a(S'stringfwd.h'
p6282
F0.0
tp6283
a(S'Sound.cpp'
p6284
F0.0
tp6285
a(S'Time.hpp'
p6286
F0.0
tp6287
a(S'ALCheck.hpp'
p6288
F0.0
tp6289
a(S'Vector3.hpp'
p6290
F0.0
tp6291
a(S'Config.hpp'
p6292
F0.0
tp6293
asS'file'
p6294
(lp6295
(S'ALCheck.hpp'
p6296
F1.6
tp6297
a(S'SoundBuffer.hpp'
p6298
F0.21621621621621623
tp6299
a(S'Vector3.inl'
p6300
F0.0
tp6301
a(S'al.h'
p6302
F0.0
tp6303
a(S'c++config.h'
p6304
F0.0
tp6305
a(S'alc.h'
p6306
F0.0
tp6307
a(S'stl_set.h'
p6308
F0.0
tp6309
a(S'SoundSource.hpp'
p6310
F0.0
tp6311
a(S'Sound.hpp'
p6312
F0.0
tp6313
a(S'stl_vector.h'
p6314
F0.0
tp6315
a(S'AlResource.hpp'
p6316
F0.0
tp6317
a(S'stringfwd.h'
p6318
F0.0
tp6319
a(S'Sound.cpp'
p6320
F0.0
tp6321
a(S'Time.hpp'
p6322
F0.0
tp6323
a(S'Vector3.hpp'
p6324
F0.0
tp6325
a(S'Config.hpp'
p6326
F0.0
tp6327
asS'saveToFile'
p6328
(lp6329
(S'Vector3.inl'
p6330
I0
tp6331
a(S'al.h'
p6332
I0
tp6333
a(S'c++config.h'
p6334
I0
tp6335
a(S'alc.h'
p6336
I0
tp6337
a(S'SoundBuffer.hpp'
p6338
I0
tp6339
a(S'stl_set.h'
p6340
I0
tp6341
a(S'SoundSource.hpp'
p6342
I0
tp6343
a(S'Sound.hpp'
p6344
I0
tp6345
a(S'stl_vector.h'
p6346
I0
tp6347
a(S'AlResource.hpp'
p6348
I0
tp6349
a(S'stringfwd.h'
p6350
I0
tp6351
a(S'Sound.cpp'
p6352
I0
tp6353
a(S'Time.hpp'
p6354
I0
tp6355
a(S'ALCheck.hpp'
p6356
I0
tp6357
a(S'Vector3.hpp'
p6358
I0
tp6359
a(S'Config.hpp'
p6360
I0
tp6361
asS'alSourcePause'
p6362
(lp6363
(S'Sound.cpp'
p6364
F0.19047619047619047
tp6365
a(S'al.h'
p6366
F0.044444444444444446
tp6367
a(S'Vector3.inl'
p6368
F0.0
tp6369
a(S'c++config.h'
p6370
F0.0
tp6371
a(S'alc.h'
p6372
F0.0
tp6373
a(S'SoundBuffer.hpp'
p6374
F0.0
tp6375
a(S'stl_set.h'
p6376
F0.0
tp6377
a(S'SoundSource.hpp'
p6378
F0.0
tp6379
a(S'Sound.hpp'
p6380
F0.0
tp6381
a(S'stl_vector.h'
p6382
F0.0
tp6383
a(S'AlResource.hpp'
p6384
F0.0
tp6385
a(S'stringfwd.h'
p6386
F0.0
tp6387
a(S'Time.hpp'
p6388
F0.0
tp6389
a(S'ALCheck.hpp'
p6390
F0.0
tp6391
a(S'Vector3.hpp'
p6392
F0.0
tp6393
a(S'Config.hpp'
p6394
F0.0
tp6395
asS'alGenBuffers'
p6396
(lp6397
(S'al.h'
p6398
F0.08888888888888889
tp6399
a(S'Vector3.inl'
p6400
F0.0
tp6401
a(S'c++config.h'
p6402
F0.0
tp6403
a(S'alc.h'
p6404
F0.0
tp6405
a(S'SoundBuffer.hpp'
p6406
F0.0
tp6407
a(S'stl_set.h'
p6408
F0.0
tp6409
a(S'SoundSource.hpp'
p6410
F0.0
tp6411
a(S'Sound.hpp'
p6412
F0.0
tp6413
a(S'stl_vector.h'
p6414
F0.0
tp6415
a(S'AlResource.hpp'
p6416
F0.0
tp6417
a(S'stringfwd.h'
p6418
F0.0
tp6419
a(S'Sound.cpp'
p6420
F0.0
tp6421
a(S'Time.hpp'
p6422
F0.0
tp6423
a(S'ALCheck.hpp'
p6424
F0.0
tp6425
a(S'Vector3.hpp'
p6426
F0.0
tp6427
a(S'Config.hpp'
p6428
F0.0
tp6429
asS'distanceModel'
p6430
(lp6431
(S'al.h'
p6432
F0.17777777777777778
tp6433
a(S'Vector3.inl'
p6434
F0.0
tp6435
a(S'c++config.h'
p6436
F0.0
tp6437
a(S'alc.h'
p6438
F0.0
tp6439
a(S'SoundBuffer.hpp'
p6440
F0.0
tp6441
a(S'stl_set.h'
p6442
F0.0
tp6443
a(S'SoundSource.hpp'
p6444
F0.0
tp6445
a(S'Sound.hpp'
p6446
F0.0
tp6447
a(S'stl_vector.h'
p6448
F0.0
tp6449
a(S'AlResource.hpp'
p6450
F0.0
tp6451
a(S'stringfwd.h'
p6452
F0.0
tp6453
a(S'Sound.cpp'
p6454
F0.0
tp6455
a(S'Time.hpp'
p6456
F0.0
tp6457
a(S'ALCheck.hpp'
p6458
F0.0
tp6459
a(S'Vector3.hpp'
p6460
F0.0
tp6461
a(S'Config.hpp'
p6462
F0.0
tp6463
asS'alcProcessContext'
p6464
(lp6465
(S'alc.h'
p6466
F0.22857142857142856
tp6467
a(S'Vector3.inl'
p6468
F0.0
tp6469
a(S'al.h'
p6470
F0.0
tp6471
a(S'c++config.h'
p6472
F0.0
tp6473
a(S'SoundBuffer.hpp'
p6474
F0.0
tp6475
a(S'stl_set.h'
p6476
F0.0
tp6477
a(S'SoundSource.hpp'
p6478
F0.0
tp6479
a(S'Sound.hpp'
p6480
F0.0
tp6481
a(S'stl_vector.h'
p6482
F0.0
tp6483
a(S'AlResource.hpp'
p6484
F0.0
tp6485
a(S'stringfwd.h'
p6486
F0.0
tp6487
a(S'Sound.cpp'
p6488
F0.0
tp6489
a(S'Time.hpp'
p6490
F0.0
tp6491
a(S'ALCheck.hpp'
p6492
F0.0
tp6493
a(S'Vector3.hpp'
p6494
F0.0
tp6495
a(S'Config.hpp'
p6496
F0.0
tp6497
asS'alBufferData'
p6498
(lp6499
(S'al.h'
p6500
F0.08888888888888889
tp6501
a(S'Vector3.inl'
p6502
F0.0
tp6503
a(S'c++config.h'
p6504
F0.0
tp6505
a(S'alc.h'
p6506
F0.0
tp6507
a(S'SoundBuffer.hpp'
p6508
F0.0
tp6509
a(S'stl_set.h'
p6510
F0.0
tp6511
a(S'SoundSource.hpp'
p6512
F0.0
tp6513
a(S'Sound.hpp'
p6514
F0.0
tp6515
a(S'stl_vector.h'
p6516
F0.0
tp6517
a(S'AlResource.hpp'
p6518
F0.0
tp6519
a(S'stringfwd.h'
p6520
F0.0
tp6521
a(S'Sound.cpp'
p6522
F0.0
tp6523
a(S'Time.hpp'
p6524
F0.0
tp6525
a(S'ALCheck.hpp'
p6526
F0.0
tp6527
a(S'Vector3.hpp'
p6528
F0.0
tp6529
a(S'Config.hpp'
p6530
F0.0
tp6531
asS'setBuffer'
p6532
(lp6533
(S'Sound.hpp'
p6534
F0.26666666666666666
tp6535
a(S'Sound.cpp'
p6536
F0.19047619047619047
tp6537
a(S'Vector3.inl'
p6538
F0.0
tp6539
a(S'al.h'
p6540
F0.0
tp6541
a(S'c++config.h'
p6542
F0.0
tp6543
a(S'alc.h'
p6544
F0.0
tp6545
a(S'SoundBuffer.hpp'
p6546
F0.0
tp6547
a(S'stl_set.h'
p6548
F0.0
tp6549
a(S'SoundSource.hpp'
p6550
F0.0
tp6551
a(S'stl_vector.h'
p6552
F0.0
tp6553
a(S'AlResource.hpp'
p6554
F0.0
tp6555
a(S'stringfwd.h'
p6556
F0.0
tp6557
a(S'Time.hpp'
p6558
F0.0
tp6559
a(S'ALCheck.hpp'
p6560
F0.0
tp6561
a(S'Vector3.hpp'
p6562
F0.0
tp6563
a(S'Config.hpp'
p6564
F0.0
tp6565
asS'nb'
p6566
(lp6567
(S'al.h'
p6568
F0.35555555555555557
tp6569
a(S'Vector3.inl'
p6570
F0.0
tp6571
a(S'c++config.h'
p6572
F0.0
tp6573
a(S'alc.h'
p6574
F0.0
tp6575
a(S'SoundBuffer.hpp'
p6576
F0.0
tp6577
a(S'stl_set.h'
p6578
F0.0
tp6579
a(S'SoundSource.hpp'
p6580
F0.0
tp6581
a(S'Sound.hpp'
p6582
F0.0
tp6583
a(S'stl_vector.h'
p6584
F0.0
tp6585
a(S'AlResource.hpp'
p6586
F0.0
tp6587
a(S'stringfwd.h'
p6588
F0.0
tp6589
a(S'Sound.cpp'
p6590
F0.0
tp6591
a(S'Time.hpp'
p6592
F0.0
tp6593
a(S'ALCheck.hpp'
p6594
F0.0
tp6595
a(S'Vector3.hpp'
p6596
F0.0
tp6597
a(S'Config.hpp'
p6598
F0.0
tp6599
asS'format'
p6600
(lp6601
(S'alc.h'
p6602
F0.22857142857142856
tp6603
a(S'al.h'
p6604
F0.08888888888888889
tp6605
a(S'Vector3.inl'
p6606
F0.0
tp6607
a(S'c++config.h'
p6608
F0.0
tp6609
a(S'SoundBuffer.hpp'
p6610
F0.0
tp6611
a(S'stl_set.h'
p6612
F0.0
tp6613
a(S'SoundSource.hpp'
p6614
F0.0
tp6615
a(S'Sound.hpp'
p6616
F0.0
tp6617
a(S'stl_vector.h'
p6618
F0.0
tp6619
a(S'AlResource.hpp'
p6620
F0.0
tp6621
a(S'stringfwd.h'
p6622
F0.0
tp6623
a(S'Sound.cpp'
p6624
F0.0
tp6625
a(S'Time.hpp'
p6626
F0.0
tp6627
a(S'ALCheck.hpp'
p6628
F0.0
tp6629
a(S'Vector3.hpp'
p6630
F0.0
tp6631
a(S'Config.hpp'
p6632
F0.0
tp6633
asS'alGetSourceiv'
p6634
(lp6635
(S'al.h'
p6636
F0.08888888888888889
tp6637
a(S'Vector3.inl'
p6638
F0.0
tp6639
a(S'c++config.h'
p6640
F0.0
tp6641
a(S'alc.h'
p6642
F0.0
tp6643
a(S'SoundBuffer.hpp'
p6644
F0.0
tp6645
a(S'stl_set.h'
p6646
F0.0
tp6647
a(S'SoundSource.hpp'
p6648
F0.0
tp6649
a(S'Sound.hpp'
p6650
F0.0
tp6651
a(S'stl_vector.h'
p6652
F0.0
tp6653
a(S'AlResource.hpp'
p6654
F0.0
tp6655
a(S'stringfwd.h'
p6656
F0.0
tp6657
a(S'Sound.cpp'
p6658
F0.0
tp6659
a(S'Time.hpp'
p6660
F0.0
tp6661
a(S'ALCheck.hpp'
p6662
F0.0
tp6663
a(S'Vector3.hpp'
p6664
F0.0
tp6665
a(S'Config.hpp'
p6666
F0.0
tp6667
asS'alcCaptureStop'
p6668
(lp6669
(S'alc.h'
p6670
F0.22857142857142856
tp6671
a(S'Vector3.inl'
p6672
F0.0
tp6673
a(S'al.h'
p6674
F0.0
tp6675
a(S'c++config.h'
p6676
F0.0
tp6677
a(S'SoundBuffer.hpp'
p6678
F0.0
tp6679
a(S'stl_set.h'
p6680
F0.0
tp6681
a(S'SoundSource.hpp'
p6682
F0.0
tp6683
a(S'Sound.hpp'
p6684
F0.0
tp6685
a(S'stl_vector.h'
p6686
F0.0
tp6687
a(S'AlResource.hpp'
p6688
F0.0
tp6689
a(S'stringfwd.h'
p6690
F0.0
tp6691
a(S'Sound.cpp'
p6692
F0.0
tp6693
a(S'Time.hpp'
p6694
F0.0
tp6695
a(S'ALCheck.hpp'
p6696
F0.0
tp6697
a(S'Vector3.hpp'
p6698
F0.0
tp6699
a(S'Config.hpp'
p6700
F0.0
tp6701
asS'InputSoundFile'
p6702
(lp6703
(S'Vector3.inl'
p6704
I0
tp6705
a(S'al.h'
p6706
I0
tp6707
a(S'c++config.h'
p6708
I0
tp6709
a(S'alc.h'
p6710
I0
tp6711
a(S'SoundBuffer.hpp'
p6712
I0
tp6713
a(S'stl_set.h'
p6714
I0
tp6715
a(S'SoundSource.hpp'
p6716
I0
tp6717
a(S'Sound.hpp'
p6718
I0
tp6719
a(S'stl_vector.h'
p6720
I0
tp6721
a(S'AlResource.hpp'
p6722
I0
tp6723
a(S'stringfwd.h'
p6724
I0
tp6725
a(S'Sound.cpp'
p6726
I0
tp6727
a(S'Time.hpp'
p6728
I0
tp6729
a(S'ALCheck.hpp'
p6730
I0
tp6731
a(S'Vector3.hpp'
p6732
I0
tp6733
a(S'Config.hpp'
p6734
I0
tp6735
asS'm_samples'
p6736
(lp6737
(S'SoundBuffer.hpp'
p6738
F0.43243243243243246
tp6739
a(S'Vector3.inl'
p6740
F0.0
tp6741
a(S'al.h'
p6742
F0.0
tp6743
a(S'c++config.h'
p6744
F0.0
tp6745
a(S'alc.h'
p6746
F0.0
tp6747
a(S'stl_set.h'
p6748
F0.0
tp6749
a(S'SoundSource.hpp'
p6750
F0.0
tp6751
a(S'Sound.hpp'
p6752
F0.0
tp6753
a(S'stl_vector.h'
p6754
F0.0
tp6755
a(S'AlResource.hpp'
p6756
F0.0
tp6757
a(S'stringfwd.h'
p6758
F0.0
tp6759
a(S'Sound.cpp'
p6760
F0.0
tp6761
a(S'Time.hpp'
p6762
F0.0
tp6763
a(S'ALCheck.hpp'
p6764
F0.0
tp6765
a(S'Vector3.hpp'
p6766
F0.0
tp6767
a(S'Config.hpp'
p6768
F0.0
tp6769
asS'alDopplerVelocity'
p6770
(lp6771
(S'al.h'
p6772
F0.08888888888888889
tp6773
a(S'Vector3.inl'
p6774
F0.0
tp6775
a(S'c++config.h'
p6776
F0.0
tp6777
a(S'alc.h'
p6778
F0.0
tp6779
a(S'SoundBuffer.hpp'
p6780
F0.0
tp6781
a(S'stl_set.h'
p6782
F0.0
tp6783
a(S'SoundSource.hpp'
p6784
F0.0
tp6785
a(S'Sound.hpp'
p6786
F0.0
tp6787
a(S'stl_vector.h'
p6788
F0.0
tp6789
a(S'AlResource.hpp'
p6790
F0.0
tp6791
a(S'stringfwd.h'
p6792
F0.0
tp6793
a(S'Sound.cpp'
p6794
F0.0
tp6795
a(S'Time.hpp'
p6796
F0.0
tp6797
a(S'ALCheck.hpp'
p6798
F0.0
tp6799
a(S'Vector3.hpp'
p6800
F0.0
tp6801
a(S'Config.hpp'
p6802
F0.0
tp6803
asS'fname'
p6804
(lp6805
(S'al.h'
p6806
F0.17777777777777778
tp6807
a(S'Vector3.inl'
p6808
F0.0
tp6809
a(S'c++config.h'
p6810
F0.0
tp6811
a(S'alc.h'
p6812
F0.0
tp6813
a(S'SoundBuffer.hpp'
p6814
F0.0
tp6815
a(S'stl_set.h'
p6816
F0.0
tp6817
a(S'SoundSource.hpp'
p6818
F0.0
tp6819
a(S'Sound.hpp'
p6820
F0.0
tp6821
a(S'stl_vector.h'
p6822
F0.0
tp6823
a(S'AlResource.hpp'
p6824
F0.0
tp6825
a(S'stringfwd.h'
p6826
F0.0
tp6827
a(S'Sound.cpp'
p6828
F0.0
tp6829
a(S'Time.hpp'
p6830
F0.0
tp6831
a(S'ALCheck.hpp'
p6832
F0.0
tp6833
a(S'Vector3.hpp'
p6834
F0.0
tp6835
a(S'Config.hpp'
p6836
F0.0
tp6837
asS'isRelativeToListener'
p6838
(lp6839
(S'Vector3.inl'
p6840
I0
tp6841
a(S'al.h'
p6842
I0
tp6843
a(S'c++config.h'
p6844
I0
tp6845
a(S'alc.h'
p6846
I0
tp6847
a(S'SoundBuffer.hpp'
p6848
I0
tp6849
a(S'stl_set.h'
p6850
I0
tp6851
a(S'SoundSource.hpp'
p6852
I0
tp6853
a(S'Sound.hpp'
p6854
I0
tp6855
a(S'stl_vector.h'
p6856
I0
tp6857
a(S'AlResource.hpp'
p6858
I0
tp6859
a(S'stringfwd.h'
p6860
I0
tp6861
a(S'Sound.cpp'
p6862
I0
tp6863
a(S'Time.hpp'
p6864
I0
tp6865
a(S'ALCheck.hpp'
p6866
I0
tp6867
a(S'Vector3.hpp'
p6868
I0
tp6869
a(S'Config.hpp'
p6870
I0
tp6871
asS'alSourceUnqueueBuffers'
p6872
(lp6873
(S'al.h'
p6874
F0.08888888888888889
tp6875
a(S'Vector3.inl'
p6876
F0.0
tp6877
a(S'c++config.h'
p6878
F0.0
tp6879
a(S'alc.h'
p6880
F0.0
tp6881
a(S'SoundBuffer.hpp'
p6882
F0.0
tp6883
a(S'stl_set.h'
p6884
F0.0
tp6885
a(S'SoundSource.hpp'
p6886
F0.0
tp6887
a(S'Sound.hpp'
p6888
F0.0
tp6889
a(S'stl_vector.h'
p6890
F0.0
tp6891
a(S'AlResource.hpp'
p6892
F0.0
tp6893
a(S'stringfwd.h'
p6894
F0.0
tp6895
a(S'Sound.cpp'
p6896
F0.0
tp6897
a(S'Time.hpp'
p6898
F0.0
tp6899
a(S'ALCheck.hpp'
p6900
F0.0
tp6901
a(S'Vector3.hpp'
p6902
F0.0
tp6903
a(S'Config.hpp'
p6904
F0.0
tp6905
asS'getPlayingOffset'
p6906
(lp6907
(S'Sound.hpp'
p6908
F0.26666666666666666
tp6909
a(S'Sound.cpp'
p6910
F0.19047619047619047
tp6911
a(S'Vector3.inl'
p6912
F0.0
tp6913
a(S'al.h'
p6914
F0.0
tp6915
a(S'c++config.h'
p6916
F0.0
tp6917
a(S'alc.h'
p6918
F0.0
tp6919
a(S'SoundBuffer.hpp'
p6920
F0.0
tp6921
a(S'stl_set.h'
p6922
F0.0
tp6923
a(S'SoundSource.hpp'
p6924
F0.0
tp6925
a(S'stl_vector.h'
p6926
F0.0
tp6927
a(S'AlResource.hpp'
p6928
F0.0
tp6929
a(S'stringfwd.h'
p6930
F0.0
tp6931
a(S'Time.hpp'
p6932
F0.0
tp6933
a(S'ALCheck.hpp'
p6934
F0.0
tp6935
a(S'Vector3.hpp'
p6936
F0.0
tp6937
a(S'Config.hpp'
p6938
F0.0
tp6939
asS'attrlist'
p6940
(lp6941
(S'alc.h'
p6942
F0.45714285714285713
tp6943
a(S'Vector3.inl'
p6944
F0.0
tp6945
a(S'al.h'
p6946
F0.0
tp6947
a(S'c++config.h'
p6948
F0.0
tp6949
a(S'SoundBuffer.hpp'
p6950
F0.0
tp6951
a(S'stl_set.h'
p6952
F0.0
tp6953
a(S'SoundSource.hpp'
p6954
F0.0
tp6955
a(S'Sound.hpp'
p6956
F0.0
tp6957
a(S'stl_vector.h'
p6958
F0.0
tp6959
a(S'AlResource.hpp'
p6960
F0.0
tp6961
a(S'stringfwd.h'
p6962
F0.0
tp6963
a(S'Sound.cpp'
p6964
F0.0
tp6965
a(S'Time.hpp'
p6966
F0.0
tp6967
a(S'ALCheck.hpp'
p6968
F0.0
tp6969
a(S'Vector3.hpp'
p6970
F0.0
tp6971
a(S'Config.hpp'
p6972
F0.0
tp6973
asS'play'
p6974
(lp6975
(S'Sound.hpp'
p6976
F0.26666666666666666
tp6977
a(S'Sound.cpp'
p6978
F0.19047619047619047
tp6979
a(S'Vector3.inl'
p6980
F0.0
tp6981
a(S'al.h'
p6982
F0.0
tp6983
a(S'c++config.h'
p6984
F0.0
tp6985
a(S'alc.h'
p6986
F0.0
tp6987
a(S'SoundBuffer.hpp'
p6988
F0.0
tp6989
a(S'stl_set.h'
p6990
F0.0
tp6991
a(S'SoundSource.hpp'
p6992
F0.0
tp6993
a(S'stl_vector.h'
p6994
F0.0
tp6995
a(S'AlResource.hpp'
p6996
F0.0
tp6997
a(S'stringfwd.h'
p6998
F0.0
tp6999
a(S'Time.hpp'
p7000
F0.0
tp7001
a(S'ALCheck.hpp'
p7002
F0.0
tp7003
a(S'Vector3.hpp'
p7004
F0.0
tp7005
a(S'Config.hpp'
p7006
F0.0
tp7007
asS'attenuation'
p7008
(lp7009
(S'SoundSource.hpp'
p7010
F0.6666666666666666
tp7011
a(S'Vector3.inl'
p7012
F0.0
tp7013
a(S'al.h'
p7014
F0.0
tp7015
a(S'c++config.h'
p7016
F0.0
tp7017
a(S'alc.h'
p7018
F0.0
tp7019
a(S'SoundBuffer.hpp'
p7020
F0.0
tp7021
a(S'stl_set.h'
p7022
F0.0
tp7023
a(S'Sound.hpp'
p7024
F0.0
tp7025
a(S'stl_vector.h'
p7026
F0.0
tp7027
a(S'AlResource.hpp'
p7028
F0.0
tp7029
a(S'stringfwd.h'
p7030
F0.0
tp7031
a(S'Sound.cpp'
p7032
F0.0
tp7033
a(S'Time.hpp'
p7034
F0.0
tp7035
a(S'ALCheck.hpp'
p7036
F0.0
tp7037
a(S'Vector3.hpp'
p7038
F0.0
tp7039
a(S'Config.hpp'
p7040
F0.0
tp7041
asS'buffer'
p7042
(lp7043
(S'al.h'
p7044
F0.6222222222222222
tp7045
a(S'Sound.hpp'
p7046
F0.26666666666666666
tp7047
a(S'Sound.cpp'
p7048
F0.19047619047619047
tp7049
a(S'alc.h'
p7050
F0.11428571428571428
tp7051
a(S'Vector3.inl'
p7052
F0.0
tp7053
a(S'c++config.h'
p7054
F0.0
tp7055
a(S'SoundBuffer.hpp'
p7056
F0.0
tp7057
a(S'stl_set.h'
p7058
F0.0
tp7059
a(S'SoundSource.hpp'
p7060
F0.0
tp7061
a(S'stl_vector.h'
p7062
F0.0
tp7063
a(S'AlResource.hpp'
p7064
F0.0
tp7065
a(S'stringfwd.h'
p7066
F0.0
tp7067
a(S'Time.hpp'
p7068
F0.0
tp7069
a(S'ALCheck.hpp'
p7070
F0.0
tp7071
a(S'Vector3.hpp'
p7072
F0.0
tp7073
a(S'Config.hpp'
p7074
F0.0
tp7075
asS'update'
p7076
(lp7077
(S'Vector3.inl'
p7078
I0
tp7079
a(S'al.h'
p7080
I0
tp7081
a(S'c++config.h'
p7082
I0
tp7083
a(S'alc.h'
p7084
I0
tp7085
a(S'SoundBuffer.hpp'
p7086
I0
tp7087
a(S'stl_set.h'
p7088
I0
tp7089
a(S'SoundSource.hpp'
p7090
I0
tp7091
a(S'Sound.hpp'
p7092
I0
tp7093
a(S'stl_vector.h'
p7094
I0
tp7095
a(S'AlResource.hpp'
p7096
I0
tp7097
a(S'stringfwd.h'
p7098
I0
tp7099
a(S'Sound.cpp'
p7100
I0
tp7101
a(S'Time.hpp'
p7102
I0
tp7103
a(S'ALCheck.hpp'
p7104
I0
tp7105
a(S'Vector3.hpp'
p7106
I0
tp7107
a(S'Config.hpp'
p7108
I0
tp7109
asS'setRelativeToListener'
p7110
(lp7111
(S'Vector3.inl'
p7112
I0
tp7113
a(S'al.h'
p7114
I0
tp7115
a(S'c++config.h'
p7116
I0
tp7117
a(S'alc.h'
p7118
I0
tp7119
a(S'SoundBuffer.hpp'
p7120
I0
tp7121
a(S'stl_set.h'
p7122
I0
tp7123
a(S'SoundSource.hpp'
p7124
I0
tp7125
a(S'Sound.hpp'
p7126
I0
tp7127
a(S'stl_vector.h'
p7128
I0
tp7129
a(S'AlResource.hpp'
p7130
I0
tp7131
a(S'stringfwd.h'
p7132
I0
tp7133
a(S'Sound.cpp'
p7134
I0
tp7135
a(S'Time.hpp'
p7136
I0
tp7137
a(S'ALCheck.hpp'
p7138
I0
tp7139
a(S'Vector3.hpp'
p7140
I0
tp7141
a(S'Config.hpp'
p7142
I0
tp7143
asS'x'
p7144
(lp7145
(S'Vector3.inl'
p7146
F0.23188405797101447
tp7147
a(S'SoundSource.hpp'
p7148
F0.2222222222222222
tp7149
a(S'Vector3.hpp'
p7150
F0.19753086419753085
tp7151
a(S'al.h'
p7152
F0.0
tp7153
a(S'c++config.h'
p7154
F0.0
tp7155
a(S'alc.h'
p7156
F0.0
tp7157
a(S'SoundBuffer.hpp'
p7158
F0.0
tp7159
a(S'stl_set.h'
p7160
F0.0
tp7161
a(S'Sound.hpp'
p7162
F0.0
tp7163
a(S'stl_vector.h'
p7164
F0.0
tp7165
a(S'AlResource.hpp'
p7166
F0.0
tp7167
a(S'stringfwd.h'
p7168
F0.0
tp7169
a(S'Sound.cpp'
p7170
F0.0
tp7171
a(S'Time.hpp'
p7172
F0.0
tp7173
a(S'ALCheck.hpp'
p7174
F0.0
tp7175
a(S'Config.hpp'
p7176
F0.0
tp7177
asS'device'
p7178
(lp7179
(S'alc.h'
p7180
F5.485714285714286
tp7181
a(S'Vector3.inl'
p7182
F0.0
tp7183
a(S'al.h'
p7184
F0.0
tp7185
a(S'c++config.h'
p7186
F0.0
tp7187
a(S'SoundBuffer.hpp'
p7188
F0.0
tp7189
a(S'stl_set.h'
p7190
F0.0
tp7191
a(S'SoundSource.hpp'
p7192
F0.0
tp7193
a(S'Sound.hpp'
p7194
F0.0
tp7195
a(S'stl_vector.h'
p7196
F0.0
tp7197
a(S'AlResource.hpp'
p7198
F0.0
tp7199
a(S'stringfwd.h'
p7200
F0.0
tp7201
a(S'Sound.cpp'
p7202
F0.0
tp7203
a(S'Time.hpp'
p7204
F0.0
tp7205
a(S'ALCheck.hpp'
p7206
F0.0
tp7207
a(S'Vector3.hpp'
p7208
F0.0
tp7209
a(S'Config.hpp'
p7210
F0.0
tp7211
asS'alSourcePlayv'
p7212
(lp7213
(S'al.h'
p7214
F0.08888888888888889
tp7215
a(S'Vector3.inl'
p7216
F0.0
tp7217
a(S'c++config.h'
p7218
F0.0
tp7219
a(S'alc.h'
p7220
F0.0
tp7221
a(S'SoundBuffer.hpp'
p7222
F0.0
tp7223
a(S'stl_set.h'
p7224
F0.0
tp7225
a(S'SoundSource.hpp'
p7226
F0.0
tp7227
a(S'Sound.hpp'
p7228
F0.0
tp7229
a(S'stl_vector.h'
p7230
F0.0
tp7231
a(S'AlResource.hpp'
p7232
F0.0
tp7233
a(S'stringfwd.h'
p7234
F0.0
tp7235
a(S'Sound.cpp'
p7236
F0.0
tp7237
a(S'Time.hpp'
p7238
F0.0
tp7239
a(S'ALCheck.hpp'
p7240
F0.0
tp7241
a(S'Vector3.hpp'
p7242
F0.0
tp7243
a(S'Config.hpp'
p7244
F0.0
tp7245
asS'alcGetError'
p7246
(lp7247
(S'alc.h'
p7248
F0.22857142857142856
tp7249
a(S'Vector3.inl'
p7250
F0.0
tp7251
a(S'al.h'
p7252
F0.0
tp7253
a(S'c++config.h'
p7254
F0.0
tp7255
a(S'SoundBuffer.hpp'
p7256
F0.0
tp7257
a(S'stl_set.h'
p7258
F0.0
tp7259
a(S'SoundSource.hpp'
p7260
F0.0
tp7261
a(S'Sound.hpp'
p7262
F0.0
tp7263
a(S'stl_vector.h'
p7264
F0.0
tp7265
a(S'AlResource.hpp'
p7266
F0.0
tp7267
a(S'stringfwd.h'
p7268
F0.0
tp7269
a(S'Sound.cpp'
p7270
F0.0
tp7271
a(S'Time.hpp'
p7272
F0.0
tp7273
a(S'ALCheck.hpp'
p7274
F0.0
tp7275
a(S'Vector3.hpp'
p7276
F0.0
tp7277
a(S'Config.hpp'
p7278
F0.0
tp7279
asS'data'
p7280
(lp7281
(S'SoundBuffer.hpp'
p7282
F0.21621621621621623
tp7283
a(S'al.h'
p7284
F0.08888888888888889
tp7285
a(S'Vector3.inl'
p7286
F0.0
tp7287
a(S'c++config.h'
p7288
F0.0
tp7289
a(S'alc.h'
p7290
F0.0
tp7291
a(S'stl_set.h'
p7292
F0.0
tp7293
a(S'SoundSource.hpp'
p7294
F0.0
tp7295
a(S'Sound.hpp'
p7296
F0.0
tp7297
a(S'stl_vector.h'
p7298
F0.0
tp7299
a(S'AlResource.hpp'
p7300
F0.0
tp7301
a(S'stringfwd.h'
p7302
F0.0
tp7303
a(S'Sound.cpp'
p7304
F0.0
tp7305
a(S'Time.hpp'
p7306
F0.0
tp7307
a(S'ALCheck.hpp'
p7308
F0.0
tp7309
a(S'Vector3.hpp'
p7310
F0.0
tp7311
a(S'Config.hpp'
p7312
F0.0
tp7313
asS'sampleRate'
p7314
(lp7315
(S'SoundBuffer.hpp'
p7316
F0.8648648648648649
tp7317
a(S'Vector3.inl'
p7318
F0.0
tp7319
a(S'al.h'
p7320
F0.0
tp7321
a(S'c++config.h'
p7322
F0.0
tp7323
a(S'alc.h'
p7324
F0.0
tp7325
a(S'stl_set.h'
p7326
F0.0
tp7327
a(S'SoundSource.hpp'
p7328
F0.0
tp7329
a(S'Sound.hpp'
p7330
F0.0
tp7331
a(S'stl_vector.h'
p7332
F0.0
tp7333
a(S'AlResource.hpp'
p7334
F0.0
tp7335
a(S'stringfwd.h'
p7336
F0.0
tp7337
a(S'Sound.cpp'
p7338
F0.0
tp7339
a(S'Time.hpp'
p7340
F0.0
tp7341
a(S'ALCheck.hpp'
p7342
F0.0
tp7343
a(S'Vector3.hpp'
p7344
F0.0
tp7345
a(S'Config.hpp'
p7346
F0.0
tp7347
asS'SoundSource'
p7348
(lp7349
(S'SoundSource.hpp'
p7350
F0.2222222222222222
tp7351
a(S'Sound.hpp'
p7352
F0.17777777777777776
tp7353
a(S'Sound.cpp'
p7354
F0.12698412698412698
tp7355
a(S'Vector3.inl'
p7356
F0.0
tp7357
a(S'al.h'
p7358
F0.0
tp7359
a(S'c++config.h'
p7360
F0.0
tp7361
a(S'alc.h'
p7362
F0.0
tp7363
a(S'SoundBuffer.hpp'
p7364
F0.0
tp7365
a(S'stl_set.h'
p7366
F0.0
tp7367
a(S'stl_vector.h'
p7368
F0.0
tp7369
a(S'AlResource.hpp'
p7370
F0.0
tp7371
a(S'stringfwd.h'
p7372
F0.0
tp7373
a(S'Time.hpp'
p7374
F0.0
tp7375
a(S'ALCheck.hpp'
p7376
F0.0
tp7377
a(S'Vector3.hpp'
p7378
F0.0
tp7379
a(S'Config.hpp'
p7380
F0.0
tp7381
asS'alGetSource3f'
p7382
(lp7383
(S'al.h'
p7384
F0.08888888888888889
tp7385
a(S'Vector3.inl'
p7386
F0.0
tp7387
a(S'c++config.h'
p7388
F0.0
tp7389
a(S'alc.h'
p7390
F0.0
tp7391
a(S'SoundBuffer.hpp'
p7392
F0.0
tp7393
a(S'stl_set.h'
p7394
F0.0
tp7395
a(S'SoundSource.hpp'
p7396
F0.0
tp7397
a(S'Sound.hpp'
p7398
F0.0
tp7399
a(S'stl_vector.h'
p7400
F0.0
tp7401
a(S'AlResource.hpp'
p7402
F0.0
tp7403
a(S'stringfwd.h'
p7404
F0.0
tp7405
a(S'Sound.cpp'
p7406
F0.0
tp7407
a(S'Time.hpp'
p7408
F0.0
tp7409
a(S'ALCheck.hpp'
p7410
F0.0
tp7411
a(S'Vector3.hpp'
p7412
F0.0
tp7413
a(S'Config.hpp'
p7414
F0.0
tp7415
asS'alSourcei'
p7416
(lp7417
(S'Sound.cpp'
p7418
F0.19047619047619047
tp7419
a(S'al.h'
p7420
F0.044444444444444446
tp7421
a(S'Vector3.inl'
p7422
F0.0
tp7423
a(S'c++config.h'
p7424
F0.0
tp7425
a(S'alc.h'
p7426
F0.0
tp7427
a(S'SoundBuffer.hpp'
p7428
F0.0
tp7429
a(S'stl_set.h'
p7430
F0.0
tp7431
a(S'SoundSource.hpp'
p7432
F0.0
tp7433
a(S'Sound.hpp'
p7434
F0.0
tp7435
a(S'stl_vector.h'
p7436
F0.0
tp7437
a(S'AlResource.hpp'
p7438
F0.0
tp7439
a(S'stringfwd.h'
p7440
F0.0
tp7441
a(S'Time.hpp'
p7442
F0.0
tp7443
a(S'ALCheck.hpp'
p7444
F0.0
tp7445
a(S'Vector3.hpp'
p7446
F0.0
tp7447
a(S'Config.hpp'
p7448
F0.0
tp7449
asS'alGetDoublev'
p7450
(lp7451
(S'al.h'
p7452
F0.08888888888888889
tp7453
a(S'Vector3.inl'
p7454
F0.0
tp7455
a(S'c++config.h'
p7456
F0.0
tp7457
a(S'alc.h'
p7458
F0.0
tp7459
a(S'SoundBuffer.hpp'
p7460
F0.0
tp7461
a(S'stl_set.h'
p7462
F0.0
tp7463
a(S'SoundSource.hpp'
p7464
F0.0
tp7465
a(S'Sound.hpp'
p7466
F0.0
tp7467
a(S'stl_vector.h'
p7468
F0.0
tp7469
a(S'AlResource.hpp'
p7470
F0.0
tp7471
a(S'stringfwd.h'
p7472
F0.0
tp7473
a(S'Sound.cpp'
p7474
F0.0
tp7475
a(S'Time.hpp'
p7476
F0.0
tp7477
a(S'ALCheck.hpp'
p7478
F0.0
tp7479
a(S'Vector3.hpp'
p7480
F0.0
tp7481
a(S'Config.hpp'
p7482
F0.0
tp7483
asS'alGetBooleanv'
p7484
(lp7485
(S'al.h'
p7486
F0.08888888888888889
tp7487
a(S'Vector3.inl'
p7488
F0.0
tp7489
a(S'c++config.h'
p7490
F0.0
tp7491
a(S'alc.h'
p7492
F0.0
tp7493
a(S'SoundBuffer.hpp'
p7494
F0.0
tp7495
a(S'stl_set.h'
p7496
F0.0
tp7497
a(S'SoundSource.hpp'
p7498
F0.0
tp7499
a(S'Sound.hpp'
p7500
F0.0
tp7501
a(S'stl_vector.h'
p7502
F0.0
tp7503
a(S'AlResource.hpp'
p7504
F0.0
tp7505
a(S'stringfwd.h'
p7506
F0.0
tp7507
a(S'Sound.cpp'
p7508
F0.0
tp7509
a(S'Time.hpp'
p7510
F0.0
tp7511
a(S'ALCheck.hpp'
p7512
F0.0
tp7513
a(S'Vector3.hpp'
p7514
F0.0
tp7515
a(S'Config.hpp'
p7516
F0.0
tp7517
asS'alIsExtensionPresent'
p7518
(lp7519
(S'al.h'
p7520
F0.08888888888888889
tp7521
a(S'Vector3.inl'
p7522
F0.0
tp7523
a(S'c++config.h'
p7524
F0.0
tp7525
a(S'alc.h'
p7526
F0.0
tp7527
a(S'SoundBuffer.hpp'
p7528
F0.0
tp7529
a(S'stl_set.h'
p7530
F0.0
tp7531
a(S'SoundSource.hpp'
p7532
F0.0
tp7533
a(S'Sound.hpp'
p7534
F0.0
tp7535
a(S'stl_vector.h'
p7536
F0.0
tp7537
a(S'AlResource.hpp'
p7538
F0.0
tp7539
a(S'stringfwd.h'
p7540
F0.0
tp7541
a(S'Sound.cpp'
p7542
F0.0
tp7543
a(S'Time.hpp'
p7544
F0.0
tp7545
a(S'ALCheck.hpp'
p7546
F0.0
tp7547
a(S'Vector3.hpp'
p7548
F0.0
tp7549
a(S'Config.hpp'
p7550
F0.0
tp7551
asS'alcSuspendContext'
p7552
(lp7553
(S'alc.h'
p7554
F0.22857142857142856
tp7555
a(S'Vector3.inl'
p7556
F0.0
tp7557
a(S'al.h'
p7558
F0.0
tp7559
a(S'c++config.h'
p7560
F0.0
tp7561
a(S'SoundBuffer.hpp'
p7562
F0.0
tp7563
a(S'stl_set.h'
p7564
F0.0
tp7565
a(S'SoundSource.hpp'
p7566
F0.0
tp7567
a(S'Sound.hpp'
p7568
F0.0
tp7569
a(S'stl_vector.h'
p7570
F0.0
tp7571
a(S'AlResource.hpp'
p7572
F0.0
tp7573
a(S'stringfwd.h'
p7574
F0.0
tp7575
a(S'Sound.cpp'
p7576
F0.0
tp7577
a(S'Time.hpp'
p7578
F0.0
tp7579
a(S'ALCheck.hpp'
p7580
F0.0
tp7581
a(S'Vector3.hpp'
p7582
F0.0
tp7583
a(S'Config.hpp'
p7584
F0.0
tp7585
asS'alcGetEnumValue'
p7586
(lp7587
(S'alc.h'
p7588
F0.22857142857142856
tp7589
a(S'Vector3.inl'
p7590
F0.0
tp7591
a(S'al.h'
p7592
F0.0
tp7593
a(S'c++config.h'
p7594
F0.0
tp7595
a(S'SoundBuffer.hpp'
p7596
F0.0
tp7597
a(S'stl_set.h'
p7598
F0.0
tp7599
a(S'SoundSource.hpp'
p7600
F0.0
tp7601
a(S'Sound.hpp'
p7602
F0.0
tp7603
a(S'stl_vector.h'
p7604
F0.0
tp7605
a(S'AlResource.hpp'
p7606
F0.0
tp7607
a(S'stringfwd.h'
p7608
F0.0
tp7609
a(S'Sound.cpp'
p7610
F0.0
tp7611
a(S'Time.hpp'
p7612
F0.0
tp7613
a(S'ALCheck.hpp'
p7614
F0.0
tp7615
a(S'Vector3.hpp'
p7616
F0.0
tp7617
a(S'Config.hpp'
p7618
F0.0
tp7619
asS'asMilliseconds'
p7620
(lp7621
(S'Vector3.inl'
p7622
I0
tp7623
a(S'al.h'
p7624
I0
tp7625
a(S'c++config.h'
p7626
I0
tp7627
a(S'alc.h'
p7628
I0
tp7629
a(S'SoundBuffer.hpp'
p7630
I0
tp7631
a(S'stl_set.h'
p7632
I0
tp7633
a(S'SoundSource.hpp'
p7634
I0
tp7635
a(S'Sound.hpp'
p7636
I0
tp7637
a(S'stl_vector.h'
p7638
I0
tp7639
a(S'AlResource.hpp'
p7640
I0
tp7641
a(S'stringfwd.h'
p7642
I0
tp7643
a(S'Sound.cpp'
p7644
I0
tp7645
a(S'Time.hpp'
p7646
I0
tp7647
a(S'ALCheck.hpp'
p7648
I0
tp7649
a(S'Vector3.hpp'
p7650
I0
tp7651
a(S'Config.hpp'
p7652
I0
tp7653
asS'vector'
p7654
(lp7655
(S'stl_vector.h'
p7656
F4.0
tp7657
a(S'Vector3.inl'
p7658
F0.17391304347826086
tp7659
a(S'Vector3.hpp'
p7660
F0.14814814814814814
tp7661
a(S'SoundBuffer.hpp'
p7662
F0.10810810810810811
tp7663
a(S'al.h'
p7664
F0.0
tp7665
a(S'c++config.h'
p7666
F0.0
tp7667
a(S'alc.h'
p7668
F0.0
tp7669
a(S'stl_set.h'
p7670
F0.0
tp7671
a(S'SoundSource.hpp'
p7672
F0.0
tp7673
a(S'Sound.hpp'
p7674
F0.0
tp7675
a(S'AlResource.hpp'
p7676
F0.0
tp7677
a(S'stringfwd.h'
p7678
F0.0
tp7679
a(S'Sound.cpp'
p7680
F0.0
tp7681
a(S'Time.hpp'
p7682
F0.0
tp7683
a(S'ALCheck.hpp'
p7684
F0.0
tp7685
a(S'Config.hpp'
p7686
F0.0
tp7687
asS'alGetSource3i'
p7688
(lp7689
(S'al.h'
p7690
F0.08888888888888889
tp7691
a(S'Vector3.inl'
p7692
F0.0
tp7693
a(S'c++config.h'
p7694
F0.0
tp7695
a(S'alc.h'
p7696
F0.0
tp7697
a(S'SoundBuffer.hpp'
p7698
F0.0
tp7699
a(S'stl_set.h'
p7700
F0.0
tp7701
a(S'SoundSource.hpp'
p7702
F0.0
tp7703
a(S'Sound.hpp'
p7704
F0.0
tp7705
a(S'stl_vector.h'
p7706
F0.0
tp7707
a(S'AlResource.hpp'
p7708
F0.0
tp7709
a(S'stringfwd.h'
p7710
F0.0
tp7711
a(S'Sound.cpp'
p7712
F0.0
tp7713
a(S'Time.hpp'
p7714
F0.0
tp7715
a(S'ALCheck.hpp'
p7716
F0.0
tp7717
a(S'Vector3.hpp'
p7718
F0.0
tp7719
a(S'Config.hpp'
p7720
F0.0
tp7721
asS'secs'
p7722
(lp7723
(S'Sound.cpp'
p7724
F0.38095238095238093
tp7725
a(S'Vector3.inl'
p7726
F0.0
tp7727
a(S'al.h'
p7728
F0.0
tp7729
a(S'c++config.h'
p7730
F0.0
tp7731
a(S'alc.h'
p7732
F0.0
tp7733
a(S'SoundBuffer.hpp'
p7734
F0.0
tp7735
a(S'stl_set.h'
p7736
F0.0
tp7737
a(S'SoundSource.hpp'
p7738
F0.0
tp7739
a(S'Sound.hpp'
p7740
F0.0
tp7741
a(S'stl_vector.h'
p7742
F0.0
tp7743
a(S'AlResource.hpp'
p7744
F0.0
tp7745
a(S'stringfwd.h'
p7746
F0.0
tp7747
a(S'Time.hpp'
p7748
F0.0
tp7749
a(S'ALCheck.hpp'
p7750
F0.0
tp7751
a(S'Vector3.hpp'
p7752
F0.0
tp7753
a(S'Config.hpp'
p7754
F0.0
tp7755
asS'microseconds'
p7756
(lp7757
(S'Time.hpp'
p7758
F1.3333333333333333
tp7759
a(S'Vector3.inl'
p7760
F0.0
tp7761
a(S'al.h'
p7762
F0.0
tp7763
a(S'c++config.h'
p7764
F0.0
tp7765
a(S'alc.h'
p7766
F0.0
tp7767
a(S'SoundBuffer.hpp'
p7768
F0.0
tp7769
a(S'stl_set.h'
p7770
F0.0
tp7771
a(S'SoundSource.hpp'
p7772
F0.0
tp7773
a(S'Sound.hpp'
p7774
F0.0
tp7775
a(S'stl_vector.h'
p7776
F0.0
tp7777
a(S'AlResource.hpp'
p7778
F0.0
tp7779
a(S'stringfwd.h'
p7780
F0.0
tp7781
a(S'Sound.cpp'
p7782
F0.0
tp7783
a(S'ALCheck.hpp'
p7784
F0.0
tp7785
a(S'Vector3.hpp'
p7786
F0.0
tp7787
a(S'Config.hpp'
p7788
F0.0
tp7789
asS'y'
p7790
(lp7791
(S'Vector3.inl'
p7792
F0.23188405797101447
tp7793
a(S'SoundSource.hpp'
p7794
F0.2222222222222222
tp7795
a(S'Vector3.hpp'
p7796
F0.19753086419753085
tp7797
a(S'al.h'
p7798
F0.0
tp7799
a(S'c++config.h'
p7800
F0.0
tp7801
a(S'alc.h'
p7802
F0.0
tp7803
a(S'SoundBuffer.hpp'
p7804
F0.0
tp7805
a(S'stl_set.h'
p7806
F0.0
tp7807
a(S'Sound.hpp'
p7808
F0.0
tp7809
a(S'stl_vector.h'
p7810
F0.0
tp7811
a(S'AlResource.hpp'
p7812
F0.0
tp7813
a(S'stringfwd.h'
p7814
F0.0
tp7815
a(S'Sound.cpp'
p7816
F0.0
tp7817
a(S'Time.hpp'
p7818
F0.0
tp7819
a(S'ALCheck.hpp'
p7820
F0.0
tp7821
a(S'Config.hpp'
p7822
F0.0
tp7823
asS'operator*='
p7824
(lp7825
(S'Vector3.inl'
p7826
F0.34782608695652173
tp7827
a(S'Vector3.hpp'
p7828
F0.2962962962962963
tp7829
a(S'al.h'
p7830
F0.0
tp7831
a(S'c++config.h'
p7832
F0.0
tp7833
a(S'alc.h'
p7834
F0.0
tp7835
a(S'SoundBuffer.hpp'
p7836
F0.0
tp7837
a(S'stl_set.h'
p7838
F0.0
tp7839
a(S'SoundSource.hpp'
p7840
F0.0
tp7841
a(S'Sound.hpp'
p7842
F0.0
tp7843
a(S'stl_vector.h'
p7844
F0.0
tp7845
a(S'AlResource.hpp'
p7846
F0.0
tp7847
a(S'stringfwd.h'
p7848
F0.0
tp7849
a(S'Sound.cpp'
p7850
F0.0
tp7851
a(S'Time.hpp'
p7852
F0.0
tp7853
a(S'ALCheck.hpp'
p7854
F0.0
tp7855
a(S'Config.hpp'
p7856
F0.0
tp7857
asS'loadFromStream'
p7858
(lp7859
(S'Vector3.inl'
p7860
I0
tp7861
a(S'al.h'
p7862
I0
tp7863
a(S'c++config.h'
p7864
I0
tp7865
a(S'alc.h'
p7866
I0
tp7867
a(S'SoundBuffer.hpp'
p7868
I0
tp7869
a(S'stl_set.h'
p7870
I0
tp7871
a(S'SoundSource.hpp'
p7872
I0
tp7873
a(S'Sound.hpp'
p7874
I0
tp7875
a(S'stl_vector.h'
p7876
I0
tp7877
a(S'AlResource.hpp'
p7878
I0
tp7879
a(S'stringfwd.h'
p7880
I0
tp7881
a(S'Sound.cpp'
p7882
I0
tp7883
a(S'Time.hpp'
p7884
I0
tp7885
a(S'ALCheck.hpp'
p7886
I0
tp7887
a(S'Vector3.hpp'
p7888
I0
tp7889
a(S'Config.hpp'
p7890
I0
tp7891
asS'left'
p7892
(lp7893
(S'Time.hpp'
p7894
F10.222222222222221
tp7895
a(S'Vector3.inl'
p7896
F2.782608695652174
tp7897
a(S'Vector3.hpp'
p7898
F2.3703703703703702
tp7899
a(S'al.h'
p7900
F0.0
tp7901
a(S'c++config.h'
p7902
F0.0
tp7903
a(S'alc.h'
p7904
F0.0
tp7905
a(S'SoundBuffer.hpp'
p7906
F0.0
tp7907
a(S'stl_set.h'
p7908
F0.0
tp7909
a(S'SoundSource.hpp'
p7910
F0.0
tp7911
a(S'Sound.hpp'
p7912
F0.0
tp7913
a(S'stl_vector.h'
p7914
F0.0
tp7915
a(S'AlResource.hpp'
p7916
F0.0
tp7917
a(S'stringfwd.h'
p7918
F0.0
tp7919
a(S'Sound.cpp'
p7920
F0.0
tp7921
a(S'ALCheck.hpp'
p7922
F0.0
tp7923
a(S'Config.hpp'
p7924
F0.0
tp7925
as.