ccollections
defaultdict
p0
(c__builtin__
list
p1
tp2
Rp3
S'Living'
p4
(lp5
(S'foo.h'
p6
F0.1875
tp7
a(S'inherit.cpp'
p8
F0.0
tp9
a(S'foo.cpp'
p10
F0.0
tp11
asS'operator='
p12
(lp13
(S'inherit.cpp'
p14
F0.07142857142857142
tp15
a(S'foo.cpp'
p16
F0.06818181818181818
tp17
a(S'foo.h'
p18
F0.0
tp19
asS'is'
p20
(lp21
(S'foo.h'
p22
F0.09375
tp23
a(S'foo.cpp'
p24
F0.06818181818181818
tp25
a(S'inherit.cpp'
p26
F0.0
tp27
asS'thrus'
p28
(lp29
(S'foo.h'
p30
F0.09375
tp31
a(S'inherit.cpp'
p32
F0.0
tp33
a(S'foo.cpp'
p34
F0.0
tp35
asS'month'
p36
(lp37
(S'foo.h'
p38
F0.09375
tp39
a(S'inherit.cpp'
p40
F0.0
tp41
a(S'foo.cpp'
p42
F0.0
tp43
asS'class Reptile'
p44
(lp45
(S'foo.h'
p46
F0.09375
tp47
a(S'inherit.cpp'
p48
F0.0
tp49
a(S'foo.cpp'
p50
F0.0
tp51
asS'ParentClass'
p52
(lp53
(S'inherit.cpp'
p54
F0.047619047619047616
tp55
a(S'foo.cpp'
p56
F0.045454545454545456
tp57
a(S'foo.h'
p58
F0.03125
tp59
asS'class Animal'
p60
(lp61
(S'foo.h'
p62
F0.09375
tp63
a(S'inherit.cpp'
p64
F0.0
tp65
a(S'foo.cpp'
p66
F0.0
tp67
asS'Animal'
p68
(lp69
(S'foo.h'
p70
F0.1875
tp71
a(S'inherit.cpp'
p72
F0.0
tp73
a(S'foo.cpp'
p74
F0.0
tp75
asS'foo_str'
p76
(lp77
(S'inherit.cpp'
p78
F0.047619047619047616
tp79
a(S'foo.cpp'
p80
F0.045454545454545456
tp81
a(S'foo.h'
p82
F0.03125
tp83
asS'Friend'
p84
(lp85
(S'foo.h'
p86
F0.0703125
tp87
a(S'foo.cpp'
p88
F0.06818181818181818
tp89
a(S'inherit.cpp'
p90
F0.0
tp91
asS'sat'
p92
(lp93
(S'foo.h'
p94
F0.09375
tp95
a(S'inherit.cpp'
p96
F0.0
tp97
a(S'foo.cpp'
p98
F0.0
tp99
asS'class ParentClass'
p100
(lp101
(S'foo.h'
p102
F0.09375
tp103
a(S'inherit.cpp'
p104
F0.0
tp105
a(S'foo.cpp'
p106
F0.0
tp107
asS'Breathing'
p108
(lp109
(S'foo.h'
p110
F0.09375
tp111
a(S'inherit.cpp'
p112
F0.0
tp113
a(S'foo.cpp'
p114
F0.0
tp115
asS'struct'
p116
(lp117
(S'foo.h'
p118
F0.09375
tp119
a(S'inherit.cpp'
p120
F0.0
tp121
a(S'foo.cpp'
p122
F0.0
tp123
asS'Parent'
p124
(lp125
(S'foo.h'
p126
F0.0625
tp127
a(S'inherit.cpp'
p128
F0.047619047619047616
tp129
a(S'foo.cpp'
p130
F0.045454545454545456
tp131
asS'wed'
p132
(lp133
(S'foo.h'
p134
F0.09375
tp135
a(S'inherit.cpp'
p136
F0.0
tp137
a(S'foo.cpp'
p138
F0.0
tp139
asS'breathCount'
p140
(lp141
(S'foo.h'
p142
F0.09375
tp143
a(S'inherit.cpp'
p144
F0.0
tp145
a(S'foo.cpp'
p146
F0.0
tp147
asS'sun'
p148
(lp149
(S'foo.h'
p150
F0.09375
tp151
a(S'inherit.cpp'
p152
F0.0
tp153
a(S'foo.cpp'
p154
F0.0
tp155
asS'fri'
p156
(lp157
(S'foo.h'
p158
F0.09375
tp159
a(S'inherit.cpp'
p160
F0.0
tp161
a(S'foo.cpp'
p162
F0.0
tp163
asS'Derived'
p164
(lp165
(S'inherit.cpp'
p166
F0.047619047619047616
tp167
a(S'foo.cpp'
p168
F0.045454545454545456
tp169
a(S'foo.h'
p170
F0.03125
tp171
asS'LivingThing'
p172
(lp173
(S'foo.h'
p174
F0.1875
tp175
a(S'inherit.cpp'
p176
F0.0
tp177
a(S'foo.cpp'
p178
F0.0
tp179
asS'class'
p180
(lp181
(S'foo.h'
p182
F0.375
tp183
a(S'inherit.cpp'
p184
F0.0
tp185
a(S'foo.cpp'
p186
F0.0
tp187
asS'access'
p188
(lp189
(S'foo.h'
p190
F0.0703125
tp191
a(S'foo.cpp'
p192
F0.06818181818181818
tp193
a(S'inherit.cpp'
p194
F0.0
tp195
asS'do_nothing'
p196
(lp197
(S'foo.h'
p198
F0.09375
tp199
a(S'inherit.cpp'
p200
F0.0
tp201
a(S'foo.cpp'
p202
F0.0
tp203
asS'Snake'
p204
(lp205
(S'inherit.cpp'
p206
F0.047619047619047616
tp207
a(S'foo.cpp'
p208
F0.045454545454545456
tp209
a(S'foo.h'
p210
F0.03125
tp211
asS'isBreathing'
p212
(lp213
(S'foo.h'
p214
F0.09375
tp215
a(S'inherit.cpp'
p216
F0.0
tp217
a(S'foo.cpp'
p218
F0.0
tp219
asS'main'
p220
(lp221
(S'inherit.cpp'
p222
F0.14285714285714285
tp223
a(S'foo.cpp'
p224
F0.0
tp225
a(S'foo.h'
p226
F0.0
tp227
asS'Class'
p228
(lp229
(S'foo.cpp'
p230
F0.09090909090909091
tp231
a(S'foo.h'
p232
F0.078125
tp233
a(S'inherit.cpp'
p234
F0.047619047619047616
tp235
asS'breathe'
p236
(lp237
(S'foo.h'
p238
F0.09375
tp239
a(S'foo.cpp'
p240
F0.06818181818181818
tp241
a(S'inherit.cpp'
p242
F0.0
tp243
asS'do'
p244
(lp245
(S'foo.h'
p246
F0.09375
tp247
a(S'inherit.cpp'
p248
F0.0
tp249
a(S'foo.cpp'
p250
F0.0
tp251
asS'isCrawling'
p252
(lp253
(S'foo.cpp'
p254
F0.06818181818181818
tp255
a(S'foo.h'
p256
F0.046875
tp257
a(S'inherit.cpp'
p258
F0.0
tp259
asS'accessFriendClassGlobal'
p260
(lp261
(S'foo.cpp'
p262
F0.06818181818181818
tp263
a(S'foo.h'
p264
F0.0234375
tp265
a(S'inherit.cpp'
p266
F0.0
tp267
asS'struct foo_str'
p268
(lp269
(S'foo.h'
p270
F0.09375
tp271
a(S'inherit.cpp'
p272
F0.0
tp273
a(S'foo.cpp'
p274
F0.0
tp275
asS'I'
p276
(lp277
(S'foo.h'
p278
F0.09375
tp279
a(S'inherit.cpp'
p280
F0.0
tp281
a(S'foo.cpp'
p282
F0.0
tp283
asS'accessFriendClass'
p284
(lp285
(S'foo.h'
p286
F0.09375
tp287
a(S'inherit.cpp'
p288
F0.0
tp289
a(S'foo.cpp'
p290
F0.0
tp291
asS'M'
p292
(lp293
(S'foo.h'
p294
F0.09375
tp295
a(S'inherit.cpp'
p296
F0.0
tp297
a(S'foo.cpp'
p298
F0.0
tp299
asS'Reptile'
p300
(lp301
(S'foo.h'
p302
F0.1875
tp303
a(S'inherit.cpp'
p304
F0.0
tp305
a(S'foo.cpp'
p306
F0.0
tp307
asS'Count'
p308
(lp309
(S'foo.h'
p310
F0.09375
tp311
a(S'inherit.cpp'
p312
F0.0
tp313
a(S'foo.cpp'
p314
F0.0
tp315
asS'Thing'
p316
(lp317
(S'foo.h'
p318
F0.1875
tp319
a(S'inherit.cpp'
p320
F0.0
tp321
a(S'foo.cpp'
p322
F0.0
tp323
asS'mon'
p324
(lp325
(S'foo.h'
p326
F0.09375
tp327
a(S'inherit.cpp'
p328
F0.0
tp329
a(S'foo.cpp'
p330
F0.0
tp331
asS'Crawling'
p332
(lp333
(S'foo.cpp'
p334
F0.06818181818181818
tp335
a(S'foo.h'
p336
F0.046875
tp337
a(S'inherit.cpp'
p338
F0.0
tp339
asS'nothing'
p340
(lp341
(S'foo.h'
p342
F0.09375
tp343
a(S'inherit.cpp'
p344
F0.0
tp345
a(S'foo.cpp'
p346
F0.0
tp347
asS'foo'
p348
(lp349
(S'inherit.cpp'
p350
F0.09523809523809523
tp351
a(S'foo.cpp'
p352
F0.09090909090909091
tp353
a(S'foo.h'
p354
F0.046875
tp355
asS'crawl'
p356
(lp357
(S'inherit.cpp'
p358
F0.047619047619047616
tp359
a(S'foo.h'
p360
F0.046875
tp361
a(S'foo.cpp'
p362
F0.045454545454545456
tp363
asS'tue'
p364
(lp365
(S'foo.h'
p366
F0.09375
tp367
a(S'inherit.cpp'
p368
F0.0
tp369
a(S'foo.cpp'
p370
F0.0
tp371
asS'a'
p372
(lp373
(S'inherit.cpp'
p374
F0.07142857142857142
tp375
a(S'foo.h'
p376
F0.0234375
tp377
a(S'foo.cpp'
p378
F0.0
tp379
asS'c'
p380
(lp381
(S'foo.h'
p382
F0.09375
tp383
a(S'inherit.cpp'
p384
F0.0
tp385
a(S'foo.cpp'
p386
F0.0
tp387
asS'b'
p388
(lp389
(S'inherit.cpp'
p390
F0.07142857142857142
tp391
a(S'foo.h'
p392
F0.0234375
tp393
a(S'foo.cpp'
p394
F0.0
tp395
asS'd'
p396
(lp397
(S'inherit.cpp'
p398
F0.07142857142857142
tp399
a(S'foo.h'
p400
F0.046875
tp401
a(S'foo.cpp'
p402
F0.0
tp403
asS'f'
p404
(lp405
(S'foo.h'
p406
F0.09375
tp407
a(S'inherit.cpp'
p408
F0.0
tp409
a(S'foo.cpp'
p410
F0.0
tp411
asS'i'
p412
(lp413
(S'foo.h'
p414
F0.09375
tp415
a(S'inherit.cpp'
p416
F0.0
tp417
a(S'foo.cpp'
p418
F0.0
tp419
asS'class LivingThing'
p420
(lp421
(S'foo.h'
p422
F0.09375
tp423
a(S'inherit.cpp'
p424
F0.0
tp425
a(S'foo.cpp'
p426
F0.0
tp427
asS'Global'
p428
(lp429
(S'foo.cpp'
p430
F0.06818181818181818
tp431
a(S'foo.h'
p432
F0.0234375
tp433
a(S'inherit.cpp'
p434
F0.0
tp435
asS'MI'
p436
(lp437
(S'foo.h'
p438
F0.09375
tp439
a(S'inherit.cpp'
p440
F0.0
tp441
a(S'foo.cpp'
p442
F0.0
tp443
asS'days'
p444
(lp445
(S'foo.h'
p446
F0.09375
tp447
a(S'inherit.cpp'
p448
F0.0
tp449
a(S'foo.cpp'
p450
F0.0
tp451
asS'Class1'
p452
(lp453
(S'foo.h'
p454
F0.0625
tp455
a(S'inherit.cpp'
p456
F0.047619047619047616
tp457
a(S'foo.cpp'
p458
F0.045454545454545456
tp459
asS'breath'
p460
(lp461
(S'foo.h'
p462
F0.09375
tp463
a(S'inherit.cpp'
p464
F0.0
tp465
a(S'foo.cpp'
p466
F0.0
tp467
asS'p'
p468
(lp469
(S'inherit.cpp'
p470
F0.047619047619047616
tp471
a(S'foo.cpp'
p472
F0.045454545454545456
tp473
a(S'foo.h'
p474
F0.03125
tp475
asS'ParentClass1'
p476
(lp477
(S'foo.h'
p478
F0.09375
tp479
a(S'inherit.cpp'
p480
F0.0
tp481
a(S'foo.cpp'
p482
F0.0
tp483
asS'str'
p484
(lp485
(S'inherit.cpp'
p486
F0.047619047619047616
tp487
a(S'foo.cpp'
p488
F0.045454545454545456
tp489
a(S'foo.h'
p490
F0.03125
tp491
asS'y'
p492
(lp493
(S'foo.h'
p494
F0.09375
tp495
a(S'inherit.cpp'
p496
F0.07142857142857142
tp497
a(S'foo.cpp'
p498
F0.0
tp499
asS'x'
p500
(lp501
(S'foo.cpp'
p502
F0.13636363636363635
tp503
a(S'foo.h'
p504
F0.125
tp505
a(S'inherit.cpp'
p506
F0.09523809523809523
tp507
asS'z'
p508
(lp509
(S'foo.h'
p510
F0.28125
tp511
a(S'inherit.cpp'
p512
F0.0
tp513
a(S'foo.cpp'
p514
F0.0
tp515
asS'DerivedClass1'
p516
(lp517
(S'inherit.cpp'
p518
F0.047619047619047616
tp519
a(S'foo.cpp'
p520
F0.045454545454545456
tp521
a(S'foo.h'
p522
F0.03125
tp523
asS'hello'
p524
(lp525
(S'inherit.cpp'
p526
F0.21428571428571427
tp527
a(S'foo.h'
p528
F0.1875
tp529
a(S'foo.cpp'
p530
F0.0
tp531
asS'snake'
p532
(lp533
(S'inherit.cpp'
p534
F0.14285714285714285
tp535
a(S'foo.cpp'
p536
F0.0
tp537
a(S'foo.h'
p538
F0.0
tp539
as.