c__builtin__
set
p0
((lp1
S'"\\n mutex init has failed\\n"'
p2
aS'lock'
p3
aS'pthread'
p4
aS'pthread_mutex_lock'
p5
aS'%d\\n"'
p6
aS'unlock'
p7
aS'printf'
p8
aS'pthread_create'
p9
aS'started\\n"'
p10
aS'"\\n Came here with arg = %d\\n"'
p11
aS':'
p12
aS'create'
p13
aS'pthread_mutex_t'
p14
aS'pthread_mutex_init'
p15
aS'"\\n Job %d has finished\\n"'
p16
aS'init'
p17
aS'mutex'
p18
aS'Job'
p19
aS'tid'
p20
aS'destroy'
p21
aS'main'
p22
aS'='
p23
aS'[%s]"'
p24
aS'be'
p25
aS'"\\n'
p26
aS'Thread'
p27
aS'with'
p28
aS'%d'
p29
aS'here'
p30
aS'pthread_join'
p31
aS'trythis'
p32
aS'failed\\n"'
p33
aS'arg'
p34
aS'Came'
p35
aS'a'
p36
aS'finished\\n"'
p37
aS'has'
p38
aS'join'
p39
aS'created'
p40
aS'i'
p41
aS'counter'
p42
aS'"\\nThread can\'t be created : [%s]"'
p43
aS'strerror'
p44
aS'pthread_mutex_destroy'
p45
aS'pthread_mutex_unlock'
p46
aS'r'
p47
aS'"\\n Job %d has started\\n"'
p48
aS't'
p49
aS'error'
p50
aS"can't"
p51
atp52
Rp53
.