(dp0
S'problem_domain'
p1
ccollections
defaultdict
p2
(c__builtin__
set
p3
tp4
Rp5
Vaagg
p6
g3
((lp7
g6
atp8
Rp9
sVbackground
p10
g3
((lp11
g10
atp12
Rp13
sVapp_error
p14
g3
((lp15
g14
atp16
Rp17
sVtext
p18
g3
((lp19
g18
atp20
Rp21
sVgx
p22
g3
((lp23
g22
atp24
Rp25
sVga
p26
g3
((lp27
g26
atp28
Rp29
sVzstream
p30
g3
((lp31
g30
atp32
Rp33
sVmng
p34
g3
((lp35
g34
atp36
Rp37
sVggaa
p38
g3
((lp39
g38
atp40
Rp41
sVrgb
p42
g3
((lp43
g42
atp44
Rp45
sVpixel
p46
g3
((lp47
g46
atp48
Rp49
sVztxt
p50
g3
((lp51
g50
atp52
Rp53
sVansi-c
p54
g3
((lp55
g54
atp56
Rp57
sVsrgb
p58
g3
((lp59
g58
atp60
Rp61
sVgama
p62
g3
((lp63
g62
atp64
Rp65
sVtransparent
p66
g3
((lp67
g66
atp68
Rp69
sVgray
p70
g3
((lp71
g70
atp72
Rp73
sVprogressive
p74
g3
((lp75
g74
atp76
Rp77
sVcmf
p78
g3
((lp79
g78
atp80
Rp81
sVcrc
p82
g3
((lp83
g82
atp84
Rp85
sVred
p86
g3
((lp87
g86
atp88
Rp89
sVprofile
p90
g3
((lp91
g90
atp92
Rp93
sVzlib
p94
g3
((lp95
g94
atp96
Rp97
sVchunk
p98
g3
((lp99
g98
atp100
Rp101
sVinverted
p102
g3
((lp103
g102
atp104
Rp105
sVpre-ansi c
p106
g3
((lp107
g106
atp108
Rp109
sVimages
p110
g3
((lp111
g110
atp112
Rp113
sVblue
p114
g3
((lp115
g114
atp116
Rp117
sVpalette
p118
g3
((lp119
g118
atp120
Rp121
sVexif
p122
g3
((lp123
g122
atp124
Rp125
sVfiller
p126
g3
((lp127
g126
atp128
Rp129
sVglenn randers-pehrson
p130
g3
((lp131
g130
atp132
Rp133
sVrgbx
p134
g3
((lp135
g134
atp136
Rp137
sVhist
p138
g3
((lp139
g138
atp140
Rp141
sViccp
p142
g3
((lp143
g142
atp144
Rp145
sVrgba
p146
g3
((lp147
g146
atp148
Rp149
sVlibpng
p150
g3
((lp151
g150
atp152
Rp153
sVinterlaced
p154
g3
((lp155
g154
atp156
Rp157
sVpngrtran
p158
g3
((lp159
g158
atp160
Rp161
sVsub-image
p162
g3
((lp163
g162
atp164
Rp165
sVpcal
p166
g3
((lp167
g166
atp168
Rp169
sVcompress
p170
g3
((lp171
g170
atp172
Rp173
sVlz window
p174
g3
((lp175
g174
atp176
Rp177
sVster
p178
g3
((lp179
g178
atp180
Rp181
sVcompressed
p182
g3
((lp183
g182
atp184
Rp185
sVargb
p186
g3
((lp187
g186
atp188
Rp189
sVcompression
p190
g3
((lp191
g190
atp192
Rp193
sVbgr
p194
g3
((lp195
g194
atp196
Rp197
sVsplt
p198
g3
((lp199
g198
atp200
Rp201
sVsignature
p202
g3
((lp203
g202
atp204
Rp205
sVsbit
p206
g3
((lp207
g206
atp208
Rp209
sVapp
p210
g3
((lp211
g210
atp212
Rp213
sVgamma
p214
g3
((lp215
g214
atp216
Rp217
sVcolor
p218
g3
((lp219
g218
atp220
Rp221
sVimage
p222
g3
((lp223
g222
atp224
Rp225
sVxg
p226
g3
((lp227
g226
atp228
Rp229
sVitxt
p230
g3
((lp231
g230
atp232
Rp233
sVmessage
p234
g3
((lp235
g234
atp236
Rp237
sVunit
p238
g3
((lp239
g238
atp240
Rp241
sVbkgd
p242
g3
((lp243
g242
atp244
Rp245
sVstream
p246
g3
((lp247
g246
atp248
Rp249
sVrrggbbxx
p250
g3
((lp251
g250
atp252
Rp253
sVpaletted
p254
g3
((lp255
g254
atp256
Rp257
sVoom
p258
g3
((lp259
g258
atp260
Rp261
sVgrayscale
p262
g3
((lp263
g262
atp264
Rp265
sVpadding
p266
g3
((lp267
g266
atp268
Rp269
sVcompressor
p270
g3
((lp271
g270
atp272
Rp273
sVpalettes
p274
g3
((lp275
g274
atp276
Rp277
sVi18n
p278
g3
((lp279
g278
atp280
Rp281
sVxrgb
p282
g3
((lp283
g282
atp284
Rp285
sVpng
p286
g3
((lp287
g286
atp288
Rp289
sVpng_default_error
p290
g3
((lp291
g290
atp292
Rp293
sVcolorspace
p294
g3
((lp295
g294
atp296
Rp297
sVtransformation
p298
g3
((lp299
g298
atp300
Rp301
sVpng_error
p302
g3
((lp303
g302
atp304
Rp305
sVbgr-to-rgb
p306
g3
((lp307
g306
atp308
Rp309
sVidat
p310
g3
((lp311
g310
atp312
Rp313
sVscal
p314
g3
((lp315
g314
atp316
Rp317
sVag
p318
g3
((lp319
g318
atp320
Rp321
sVinterlacing
p322
g3
((lp323
g322
atp324
Rp325
sVmsvc
p326
g3
((lp327
g326
atp328
Rp329
sVmonochrome
p330
g3
((lp331
g330
atp332
Rp333
sVgcc
p334
g3
((lp335
g334
atp336
Rp337
sVxxgg
p338
g3
((lp339
g338
atp340
Rp341
sVcalibration
p342
g3
((lp343
g342
atp344
Rp345
sVaarrggbb
p346
g3
((lp347
g346
atp348
Rp349
sVuncompressed
p350
g3
((lp351
g350
atp352
Rp353
sVapplication
p354
g3
((lp355
g354
atp356
Rp357
sVchrm
p358
g3
((lp359
g358
atp360
Rp361
sVchannel
p362
g3
((lp363
g362
atp364
Rp365
sVcolor-type
p366
g3
((lp367
g366
atp368
Rp369
sVpng_app_error
p370
g3
((lp371
g370
atp372
Rp373
sVrrggbbaa
p374
g3
((lp375
g374
atp376
Rp377
sValpha
p378
g3
((lp379
g378
atp380
Rp381
sVcompressing
p382
g3
((lp383
g382
atp384
Rp385
sVdepth
p386
g3
((lp387
g386
atp388
Rp389
sVgreen
p390
g3
((lp391
g390
atp392
Rp393
sVtime
p394
g3
((lp395
g394
atp396
Rp397
sVfixed point
p398
g3
((lp399
g398
atp400
Rp401
ssS'symbol'
p402
g2
(g3
tp403
Rp404
S''
p405
g3
((lp406
VStructDecl
p407
aVParmDecl
p408
atp409
Rp410
sS'tm_sec'
p411
g3
((lp412
VFieldDecl
p413
atp414
Rp415
sS'png_inflate_read'
p416
g3
((lp417
VFunctionDecl
p418
atp419
Rp420
sS'sig_bit'
p421
g3
((lp422
g413
aVVarDecl
p423
ag408
atp424
Rp425
sS'ret'
p426
g3
((lp427
g423
ag408
atp428
Rp429
sS'unknown_default'
p430
g3
((lp431
g413
atp432
Rp433
sS'czero'
p434
g3
((lp435
g423
atp436
Rp437
sS'png_product2'
p438
g3
((lp439
g418
atp440
Rp441
sS'translated_keyword_offset'
p442
g3
((lp443
g423
atp444
Rp445
sS'png_check_fp_string'
p446
g3
((lp447
g418
atp448
Rp449
sS'rowbytes'
p450
g3
((lp451
g413
atp452
Rp453
sS'in_ptr'
p454
g3
((lp455
g423
atp456
Rp457
sS'png_process_IDAT_data'
p458
g3
((lp459
g418
atp460
Rp461
sS'png_handle_tRNS'
p462
g3
((lp463
g418
atp464
Rp465
sS'png_gt'
p466
g3
((lp467
g418
atp468
Rp469
sS'png_row_info_struct'
p470
g3
((lp471
g407
atp472
Rp473
sS'row_number'
p474
g3
((lp475
g413
ag408
atp476
Rp477
sS'png_do_scale_16_to_8'
p478
g3
((lp479
g418
atp480
Rp481
sS'png_zstream_error'
p482
g3
((lp483
g418
atp484
Rp485
sS'second'
p486
g3
((lp487
g413
atp488
Rp489
sS'new_iccp_profile'
p490
g3
((lp491
g423
atp492
Rp493
sS'skip_length'
p494
g3
((lp495
g413
atp496
Rp497
sS'convert_to_8bit'
p498
g3
((lp499
g413
ag408
atp500
Rp501
sS'blue'
p502
g3
((lp503
g413
ag423
ag408
atp504
Rp505
sS'mem_level'
p506
g3
((lp507
g408
atp508
Rp509
sS'png_init_io'
p510
g3
((lp511
g418
atp512
Rp513
sS'png_push_fill_buffer'
p514
g3
((lp515
g418
atp516
Rp517
sS'png_write_filtered_row'
p518
g3
((lp519
g418
atp520
Rp521
sS'sheight'
p522
g3
((lp523
g423
ag408
atp524
Rp525
sS'io_ptr'
p526
g3
((lp527
g413
ag423
ag408
atp528
Rp529
sS'png_get_x_offset_inches'
p530
g3
((lp531
g418
atp532
Rp533
sS'ancil_action'
p534
g3
((lp535
g408
atp536
Rp537
sS'png_set_IHDR'
p538
g3
((lp539
g418
atp540
Rp541
sS'digits'
p542
g3
((lp543
g423
atp544
Rp545
sS'row_bytes'
p546
g3
((lp547
g413
ag423
ag408
atp548
Rp549
sS'red_int'
p550
g3
((lp551
g423
atp552
Rp553
sS'items'
p554
g3
((lp555
g408
atp556
Rp557
sS'k'
p558
g3
((lp559
g423
atp560
Rp561
sS'png_control'
p562
g3
((lp563
g407
atp564
Rp565
sS'new_purpose'
p566
g3
((lp567
g423
atp568
Rp569
sS'png_set_cHRM_XYZ_fixed'
p570
g3
((lp571
g418
atp572
Rp573
sS'back_gx'
p574
g3
((lp575
g423
atp576
Rp577
sS'display_mask'
p578
g3
((lp579
g423
atp580
Rp581
sS'png_get_sBIT'
p582
g3
((lp583
g418
atp584
Rp585
sS'user_transform_channels'
p586
g3
((lp587
g413
ag408
atp588
Rp589
sS'png_do_write_interlace'
p590
g3
((lp591
g418
atp592
Rp593
sS'png_get_eXIf_1'
p594
g3
((lp595
g418
atp596
Rp597
sS'png_write_cHRM_fixed'
p598
g3
((lp599
g418
atp600
Rp601
sS'total'
p602
g3
((lp603
g423
atp604
Rp605
sS'unit'
p606
g3
((lp607
g423
ag408
atp608
Rp609
sS'png_handle_gAMA'
p610
g3
((lp611
g418
atp612
Rp613
sS'lang_key'
p614
g3
((lp615
g413
ag408
atp616
Rp617
sS'jmp_buf_local'
p618
g3
((lp619
g413
atp620
Rp621
sS'calc'
p622
g3
((lp623
g423
atp624
Rp625
sS'type'
p626
g3
((lp627
g423
ag408
atp628
Rp629
sS'png_set_benign_errors'
p630
g3
((lp631
g418
atp632
Rp633
sS'warn'
p634
g3
((lp635
g408
atp636
Rp637
sS'new_row'
p638
g3
((lp639
g408
atp640
Rp641
sS'png_get_user_chunk_ptr'
p642
g3
((lp643
g418
atp644
Rp645
sS'dsp_row'
p646
g3
((lp647
g408
atp648
Rp649
sS'add_one_chunk'
p650
g3
((lp651
g418
atp652
Rp653
sS'filter_costs'
p654
g3
((lp655
g408
atp656
Rp657
sS'zlib_text_mem_level'
p658
g3
((lp659
g413
atp660
Rp661
sS'png_do_read_filler'
p662
g3
((lp663
g418
atp664
Rp665
sS'png_write_start_row'
p666
g3
((lp667
g418
atp668
Rp669
sS'srgb_intent'
p670
g3
((lp671
g408
atp672
Rp673
sS'times'
p674
g3
((lp675
g408
atp676
Rp677
sS'png_set_chunk_malloc_max'
p678
g3
((lp679
g418
atp680
Rp681
sS'end'
p682
g3
((lp683
g423
ag408
atp684
Rp685
sS'png_calculate_crc'
p686
g3
((lp687
g418
atp688
Rp689
sS'png_access_version_number'
p690
g3
((lp691
g418
atp692
Rp693
sS'png_set_packing'
p694
g3
((lp695
g418
atp696
Rp697
sS'old_elements'
p698
g3
((lp699
g408
atp700
Rp701
sS'png_get_y_pixels_per_inch'
p702
g3
((lp703
g418
atp704
Rp705
sS'tm_year'
p706
g3
((lp707
g413
atp708
Rp709
sS'red_inverse'
p710
g3
((lp711
g423
atp712
Rp713
sS'png_set_flush'
p714
g3
((lp715
g418
atp716
Rp717
sS'green'
p718
g3
((lp719
g413
ag423
ag408
atp720
Rp721
sS'png_set_expand'
p722
g3
((lp723
g418
atp724
Rp725
sS'text_info'
p726
g3
((lp727
g423
atp728
Rp729
sS'png_free_buffer_list'
p730
g3
((lp731
g418
atp732
Rp733
sS'parameter_char'
p734
g3
((lp735
g423
atp736
Rp737
sS'png_do_gamma'
p738
g3
((lp739
g418
atp740
Rp741
sS'png_colorspace_endpoints_match'
p742
g3
((lp743
g418
atp744
Rp745
sS'background8'
p746
g3
((lp747
g423
atp748
Rp749
sS'lo_filler'
p750
g3
((lp751
g423
atp752
Rp753
sS'lengthh'
p754
g3
((lp755
g423
atp756
Rp757
sS'png_write_iTXt'
p758
g3
((lp759
g418
atp760
Rp761
sS'png_handle_IHDR'
p762
g3
((lp763
g418
atp764
Rp765
sS'row_end'
p766
g3
((lp767
g423
atp768
Rp769
sS'png_compare_ICC_profile_with_sRGB'
p770
g3
((lp771
g418
atp772
Rp773
sS'png_get_iCCP'
p774
g3
((lp775
g418
atp776
Rp777
sS'background_index'
p778
g3
((lp779
g423
atp780
Rp781
sS'png_get_y_offset_microns'
p782
g3
((lp783
g418
atp784
Rp785
sS'sig_bytes'
p786
g3
((lp787
g413
atp788
Rp789
sS'create_struct'
p790
g3
((lp791
g423
atp792
Rp793
sS'png_get_gAMA_fixed'
p794
g3
((lp795
g418
atp796
Rp797
sS'filter_method'
p798
g3
((lp799
g408
atp800
Rp801
sS'png_chunk_benign_error'
p802
g3
((lp803
g418
atp804
Rp805
sS'message'
p806
g3
((lp807
g413
ag423
ag408
atp808
Rp809
sS'png_handle_sRGB'
p810
g3
((lp811
g418
atp812
Rp813
sS'nstop'
p814
g3
((lp815
g423
atp816
Rp817
sS'rp'
p818
g3
((lp819
g423
atp820
Rp821
sS'index_r'
p822
g3
((lp823
g423
atp824
Rp825
sS'png_write_IEND'
p826
g3
((lp827
g418
atp828
Rp829
sS'png_build_grayscale_palette'
p830
g3
((lp831
g418
atp832
Rp833
sS'rb'
p834
g3
((lp835
g423
atp836
Rp837
sS'rc'
p838
g3
((lp839
g423
atp840
Rp841
sS'png_get_user_height_max'
p842
g3
((lp843
g418
atp844
Rp845
sS'index_g'
p846
g3
((lp847
g423
atp848
Rp849
sS'linear'
p850
g3
((lp851
g423
atp852
Rp853
sS'png_save_uint_32'
p854
g3
((lp855
g418
atp856
Rp857
sS'png_write_tIME'
p858
g3
((lp859
g418
atp860
Rp861
sS'write_end_info_ptr'
p862
g3
((lp863
g423
atp864
Rp865
sS'md5'
p866
g3
((lp867
g413
atp868
Rp869
sS'startx'
p870
g3
((lp871
g423
atp872
Rp873
sS'gamma_shift'
p874
g3
((lp875
g413
ag423
atp876
Rp877
sS'png_set_text_2'
p878
g3
((lp879
g418
atp880
Rp881
sS'filter'
p882
g3
((lp883
g413
ag408
atp884
Rp885
sS'signature'
p886
g3
((lp887
g413
atp888
Rp889
sS'interlace_preserved'
p890
g3
((lp891
g423
atp892
Rp893
sS'png_do_compose'
p894
g3
((lp895
g418
atp896
Rp897
sS'png_icc_tag_char'
p898
g3
((lp899
g418
atp900
Rp901
sS'channels'
p902
g3
((lp903
g413
ag423
atp904
Rp905
sS'new_palette'
p906
g3
((lp907
g423
atp908
Rp909
sS'png_write_finish_row'
p910
g3
((lp911
g418
atp912
Rp913
sS'num_checked'
p914
g3
((lp915
g423
atp916
Rp917
sS'XYZ_in'
p918
g3
((lp919
g408
atp920
Rp921
sS'png_gamma_significant'
p922
g3
((lp923
g418
atp924
Rp925
sS'png_write_zTXt'
p926
g3
((lp927
g418
atp928
Rp929
sS'gamma_table'
p930
g3
((lp931
g413
ag423
atp932
Rp933
sS'heighti'
p934
g3
((lp935
g423
atp936
Rp937
sS'png_colorspace_check_gamma'
p938
g3
((lp939
g418
atp940
Rp941
sS'png_handle_hIST'
p942
g3
((lp943
g418
atp944
Rp945
sS'png_default_flush'
p946
g3
((lp947
g418
atp948
Rp949
sS'png_set_add_alpha'
p950
g3
((lp951
g418
atp952
Rp953
sS'png_image_set_PLTE'
p954
g3
((lp955
g418
atp956
Rp957
sS'distance'
p958
g3
((lp959
g423
atp960
Rp961
sS'keyword'
p962
g3
((lp963
g423
atp964
Rp965
sS'png_read_filter_row'
p966
g3
((lp967
g418
atp968
Rp969
sS'pcal_type'
p970
g3
((lp971
g413
atp972
Rp973
sS'png_read_update_info'
p974
g3
((lp975
g418
atp976
Rp977
sS'png_zfree'
p978
g3
((lp979
g418
atp980
Rp981
sS'png_write_pHYs'
p982
g3
((lp983
g418
atp984
Rp985
sS'png_set_read_fn'
p986
g3
((lp987
g418
atp988
Rp989
sS'png_free_jmpbuf'
p990
g3
((lp991
g418
atp992
Rp993
sS'mins'
p994
g3
((lp995
g423
atp996
Rp997
sS'sample_max'
p998
g3
((lp999
g423
atp1000
Rp1001
sS'png_process_data'
p1002
g3
((lp1003
g418
atp1004
Rp1005
sS'xfail'
p1006
g3
((lp1007
g423
atp1008
Rp1009
sS'unsupported_chunks'
p1010
g3
((lp1011
g423
atp1012
Rp1013
sS'input_len'
p1014
g3
((lp1015
g413
ag423
ag408
atp1016
Rp1017
sS'denominator'
p1018
g3
((lp1019
g423
atp1020
Rp1021
sS'png_get_x_pixels_per_inch'
p1022
g3
((lp1023
g418
atp1024
Rp1025
sS'read_row_callback'
p1026
g3
((lp1027
g418
atp1028
Rp1029
sS'gamma_val'
p1030
g3
((lp1031
g408
atp1032
Rp1033
sS'png_do_quantize'
p1034
g3
((lp1035
g418
atp1036
Rp1037
sS'sp16'
p1038
g3
((lp1039
g423
atp1040
Rp1041
sS'png_push_restore_buffer'
p1042
g3
((lp1043
g418
atp1044
Rp1045
sS'cb_base'
p1046
g3
((lp1047
g423
atp1048
Rp1049
sS'warning_message'
p1050
g3
((lp1051
g408
atp1052
Rp1053
sS'png_calloc'
p1054
g3
((lp1055
g418
atp1056
Rp1057
sS'write_ptr'
p1058
g3
((lp1059
g423
ag408
atp1060
Rp1061
sS'end_ptr'
p1062
g3
((lp1063
g423
atp1064
Rp1065
sS'nentries'
p1066
g3
((lp1067
g413
ag408
atp1068
Rp1069
sS'png_push_read_iTXt'
p1070
g3
((lp1071
g418
atp1072
Rp1073
sS'dummy_struct'
p1074
g3
((lp1075
g423
atp1076
Rp1077
sS'png_get_pixel_aspect_ratio_fixed'
p1078
g3
((lp1079
g418
atp1080
Rp1081
sS'png_handle_pHYs'
p1082
g3
((lp1083
g418
atp1084
Rp1085
sS'dwhite'
p1086
g3
((lp1087
g423
atp1088
Rp1089
sS'read_buffer'
p1090
g3
((lp1091
g413
ag408
atp1092
Rp1093
sS'png_read_filter_row_paeth_1byte_pixel'
p1094
g3
((lp1095
g418
atp1096
Rp1097
sS'png_get_current_row_number'
p1098
g3
((lp1099
g418
atp1100
Rp1101
sS'dl'
p1102
g3
((lp1103
g423
atp1104
Rp1105
sS'dm'
p1106
g3
((lp1107
g423
atp1108
Rp1109
sS'warn_fn'
p1110
g3
((lp1111
g408
atp1112
Rp1113
sS'dg'
p1114
g3
((lp1115
g423
atp1116
Rp1117
sS'db'
p1118
g3
((lp1119
g423
atp1120
Rp1121
sS'preferred'
p1122
g3
((lp1123
g408
atp1124
Rp1125
sS'png_info_def'
p1126
g3
((lp1127
g407
atp1128
Rp1129
sS'shift_start'
p1130
g3
((lp1131
g423
atp1132
Rp1133
sS'dr'
p1134
g3
((lp1135
g423
atp1136
Rp1137
sS'dp'
p1138
g3
((lp1139
g423
ag408
atp1140
Rp1141
sS'usr_pixel_depth'
p1142
g3
((lp1143
g423
atp1144
Rp1145
sS'greeny'
p1146
g3
((lp1147
g413
atp1148
Rp1149
sS'greenx'
p1150
g3
((lp1151
g413
atp1152
Rp1153
sS'png_image_read_and_map'
p1154
g3
((lp1155
g418
atp1156
Rp1157
sS'rgb_to_gray_red_coeff'
p1158
g3
((lp1159
g413
atp1160
Rp1161
sS'num'
p1162
g3
((lp1163
g423
ag408
atp1164
Rp1165
sS'error_count'
p1166
g3
((lp1167
g423
atp1168
Rp1169
sS'hash'
p1170
g3
((lp1171
g423
atp1172
Rp1173
sS'png_get_pixels_per_inch'
p1174
g3
((lp1175
g418
atp1176
Rp1177
sS'exponent'
p1178
g3
((lp1179
g423
atp1180
Rp1181
sS'png_icc_profile_error'
p1182
g3
((lp1183
g418
atp1184
Rp1185
sS'png_unpremultiply'
p1186
g3
((lp1187
g418
atp1188
Rp1189
sS'png_icc_check_tag_table'
p1190
g3
((lp1191
g418
atp1192
Rp1193
sS'zlib_set_strategy'
p1194
g3
((lp1195
g413
atp1196
Rp1197
sS'rptr'
p1198
g3
((lp1199
g423
atp1200
Rp1201
sS'png_safecat'
p1202
g3
((lp1203
g418
atp1204
Rp1205
sS'interlaced'
p1206
g3
((lp1207
g413
atp1208
Rp1209
sS'png_get_cHRM_XYZ'
p1210
g3
((lp1211
g418
atp1212
Rp1213
sS'inrow'
p1214
g3
((lp1215
g423
atp1216
Rp1217
sS'output_processing'
p1218
g3
((lp1219
g423
atp1220
Rp1221
sS'png_read_push_finish_row'
p1222
g3
((lp1223
g418
atp1224
Rp1225
sS'jstop'
p1226
g3
((lp1227
g423
atp1228
Rp1229
sS'png_read_filter_row_paeth_multibyte_pixel'
p1230
g3
((lp1231
g418
atp1232
Rp1233
sS'red_y'
p1234
g3
((lp1235
g423
ag408
atp1236
Rp1237
sS'red_x'
p1238
g3
((lp1239
g423
ag408
atp1240
Rp1241
sS'scal_height'
p1242
g3
((lp1243
g423
atp1244
Rp1245
sS'png_set_compression_buffer_size'
p1246
g3
((lp1247
g418
atp1248
Rp1249
sS'png_gamma_16bit_correct'
p1250
g3
((lp1251
g418
atp1252
Rp1253
sS'gamma_16'
p1254
g3
((lp1255
g423
atp1256
Rp1257
sS'png_do_swap'
p1258
g3
((lp1259
g418
atp1260
Rp1261
sS'png_process_data_pause'
p1262
g3
((lp1263
g418
atp1264
Rp1265
sS'check_location'
p1266
g3
((lp1267
g418
atp1268
Rp1269
sS'png_image_format'
p1270
g3
((lp1271
g418
atp1272
Rp1273
sS'red_Y'
p1274
g3
((lp1275
g413
ag408
atp1276
Rp1277
sS'red_X'
p1278
g3
((lp1279
g413
ag408
atp1280
Rp1281
sS'red_Z'
p1282
g3
((lp1283
g413
ag408
atp1284
Rp1285
sS'color_channels'
p1286
g3
((lp1287
g423
atp1288
Rp1289
sS'tmp_color'
p1290
g3
((lp1291
g423
atp1292
Rp1293
sS'green_inverse'
p1294
g3
((lp1295
g423
atp1296
Rp1297
sS'ptable'
p1298
g3
((lp1299
g408
atp1300
Rp1301
sS'red_1'
p1302
g3
((lp1303
g423
atp1304
Rp1305
sS'valid_parameters'
p1306
g3
((lp1307
g423
atp1308
Rp1309
sS'user_chunk_data'
p1310
g3
((lp1311
g407
ag423
atp1312
Rp1313
sS'microns'
p1314
g3
((lp1315
g408
atp1316
Rp1317
sS'reciprocal'
p1318
g3
((lp1319
g423
ag408
atp1320
Rp1321
sS'n'
p1322
g3
((lp1323
g423
atp1324
Rp1325
sS'sample_size'
p1326
g3
((lp1327
g423
atp1328
Rp1329
sS'png_set_option'
p1330
g3
((lp1331
g418
atp1332
Rp1333
sS'zalloc'
p1334
g3
((lp1335
g413
atp1336
Rp1337
sS'png_destroy_read_struct'
p1338
g3
((lp1339
g418
atp1340
Rp1341
sS'ip'
p1342
g3
((lp1343
g408
atp1344
Rp1345
sS'ir'
p1346
g3
((lp1347
g423
atp1348
Rp1349
sS'it'
p1350
g3
((lp1351
g408
atp1352
Rp1353
sS'ib'
p1354
g3
((lp1355
g423
atp1356
Rp1357
sS'png_set_invert_mono'
p1358
g3
((lp1359
g418
atp1360
Rp1361
sS'png_image_skip_unused_chunks'
p1362
g3
((lp1363
g418
atp1364
Rp1365
sS'ig'
p1366
g3
((lp1367
g423
atp1368
Rp1369
sS'out_ptr'
p1370
g3
((lp1371
g423
atp1372
Rp1373
sS'itxt_length'
p1374
g3
((lp1375
g413
atp1376
Rp1377
sS'png_get_sCAL_fixed'
p1378
g3
((lp1379
g418
atp1380
Rp1381
sS'png_handle_eXIf'
p1382
g3
((lp1383
g418
atp1384
Rp1385
sS'png_set_check_for_invalid_index'
p1386
g3
((lp1387
g418
atp1388
Rp1389
sS'png_init_filter_functions'
p1390
g3
((lp1391
g418
atp1392
Rp1393
sS'Y'
p1394
g3
((lp1395
g423
atp1396
Rp1397
sS'mincount'
p1398
g3
((lp1399
g423
atp1400
Rp1401
sS'png_push_read_end'
p1402
g3
((lp1403
g418
atp1404
Rp1405
sS'png_set_quantize'
p1406
g3
((lp1407
g418
atp1408
Rp1409
sS'png_get_chunk_cache_max'
p1410
g3
((lp1411
g418
atp1412
Rp1413
sS'spalettes'
p1414
g3
((lp1415
g408
atp1416
Rp1417
sS'left'
p1418
g3
((lp1419
g413
ag423
atp1420
Rp1421
sS'png_warning_parameter_signed'
p1422
g3
((lp1423
g418
atp1424
Rp1425
sS'bp_end'
p1426
g3
((lp1427
g423
atp1428
Rp1429
sS'png_set_interlace_handling'
p1430
g3
((lp1431
g418
atp1432
Rp1433
sS'int_file_gamma'
p1434
g3
((lp1435
g408
atp1436
Rp1437
sS'transforms'
p1438
g3
((lp1439
g408
atp1440
Rp1441
sS'zbuffer_size'
p1442
g3
((lp1443
g413
atp1444
Rp1445
sS'crit_action'
p1446
g3
((lp1447
g408
atp1448
Rp1449
sS'png_init_palette_transformations'
p1450
g3
((lp1451
g418
atp1452
Rp1453
sS'transformed_pixel_depth'
p1454
g3
((lp1455
g413
atp1456
Rp1457
sS'pcal_nparams'
p1458
g3
((lp1459
g413
atp1460
Rp1461
sS'png_image_write_to_stdio'
p1462
g3
((lp1463
g418
atp1464
Rp1465
sS'save'
p1466
g3
((lp1467
g423
ag408
atp1468
Rp1469
sS'end_fn'
p1470
g3
((lp1471
g413
ag408
atp1472
Rp1473
sS'prev_row'
p1474
g3
((lp1475
g413
ag408
atp1476
Rp1477
sS'trans_color'
p1478
g3
((lp1479
g413
ag423
ag408
atp1480
Rp1481
sS'png_reciprocal2'
p1482
g3
((lp1483
g418
atp1484
Rp1485
sS'png_get_pCAL'
p1486
g3
((lp1487
g418
atp1488
Rp1489
sS'png_create_png_struct'
p1490
g3
((lp1491
g418
atp1492
Rp1493
sS'background'
p1494
g3
((lp1495
g413
ag423
ag408
atp1496
Rp1497
sS'tst_row'
p1498
g3
((lp1499
g413
atp1500
Rp1501
sS'png_do_write_intrapixel'
p1502
g3
((lp1503
g418
atp1504
Rp1505
sS'png_write_image'
p1506
g3
((lp1507
g418
atp1508
Rp1509
sS'status_dots'
p1510
g3
((lp1511
g423
atp1512
Rp1513
sS'num_bytes'
p1514
g3
((lp1515
g423
ag408
atp1516
Rp1517
sS'interlace_method'
p1518
g3
((lp1519
g408
atp1520
Rp1521
sS'bpp'
p1522
g3
((lp1523
g423
ag408
atp1524
Rp1525
sS'pixel_depth'
p1526
g3
((lp1527
g413
ag423
atp1528
Rp1529
sS'png_get_interlace_type'
p1530
g3
((lp1531
g418
atp1532
Rp1533
sS'stepy'
p1534
g3
((lp1535
g423
atp1536
Rp1537
sS'stepx'
p1538
g3
((lp1539
g423
atp1540
Rp1541
sS'user_transform_depth'
p1542
g3
((lp1543
g413
ag408
atp1544
Rp1545
sS'error_message'
p1546
g3
((lp1547
g408
atp1548
Rp1549
sS'purpose_len'
p1550
g3
((lp1551
g423
atp1552
Rp1553
sS'png_zalloc'
p1554
g3
((lp1555
g418
atp1556
Rp1557
sS'save_size'
p1558
g3
((lp1559
g423
atp1560
Rp1561
sS'compression_type'
p1562
g3
((lp1563
g413
ag423
ag408
atp1564
Rp1565
sS'png_read_chunk_header'
p1566
g3
((lp1567
g418
atp1568
Rp1569
sS'fpin'
p1570
g3
((lp1571
g423
atp1572
Rp1573
sS'pcal_params'
p1574
g3
((lp1575
g413
atp1576
Rp1577
sS'png_decompress_chunk'
p1578
g3
((lp1579
g418
atp1580
Rp1581
sS'error_buf'
p1582
g3
((lp1583
g413
atp1584
Rp1585
sS'num_rows'
p1586
g3
((lp1587
g413
ag408
atp1588
Rp1589
sS'y_offset'
p1590
g3
((lp1591
g413
ag408
atp1592
Rp1593
sS'colormap'
p1594
g3
((lp1595
g413
ag423
ag408
atp1596
Rp1597
sS'png_set_sRGB'
p1598
g3
((lp1599
g418
atp1600
Rp1601
sS'tbuf'
p1602
g3
((lp1603
g423
atp1604
Rp1605
sS'text_len'
p1606
g3
((lp1607
g408
atp1608
Rp1609
sS'gamma_16_from_1'
p1610
g3
((lp1611
g413
ag423
atp1612
Rp1613
sS'for_write'
p1614
g3
((lp1615
g413
atp1616
Rp1617
sS'swap_alpha'
p1618
g3
((lp1619
g423
atp1620
Rp1621
sS'bound'
p1622
g3
((lp1623
g423
atp1624
Rp1625
sS'ppm'
p1626
g3
((lp1627
g408
atp1628
Rp1629
sS'right'
p1630
g3
((lp1631
g413
ag423
atp1632
Rp1633
sS'ishift'
p1634
g3
((lp1635
g423
atp1636
Rp1637
sS'jend'
p1638
g3
((lp1639
g423
atp1640
Rp1641
sS'png_write_IHDR'
p1642
g3
((lp1643
g418
atp1644
Rp1645
sS'png_get_x_offset_pixels'
p1646
g3
((lp1647
g418
atp1648
Rp1649
sS'buf_size'
p1650
g3
((lp1651
g423
atp1652
Rp1653
sS'png_app_warning'
p1654
g3
((lp1655
g418
atp1656
Rp1657
sS'png_reciprocal'
p1658
g3
((lp1659
g418
atp1660
Rp1661
sS'avail'
p1662
g3
((lp1663
g423
atp1664
Rp1665
sS'width'
p1666
g3
((lp1667
g413
ag423
ag408
atp1668
Rp1669
sS'back_bx'
p1670
g3
((lp1671
g423
atp1672
Rp1673
sS'outchannels'
p1674
g3
((lp1675
g423
atp1676
Rp1677
sS'xy1'
p1678
g3
((lp1679
g408
atp1680
Rp1681
sS'xy2'
p1682
g3
((lp1683
g408
atp1684
Rp1685
sS'bytes_per_pixel'
p1686
g3
((lp1687
g423
atp1688
Rp1689
sS'current_buffer'
p1690
g3
((lp1691
g413
atp1692
Rp1693
sS'png_build_8bit_table'
p1694
g3
((lp1695
g418
atp1696
Rp1697
sS'png_save_uint_16'
p1698
g3
((lp1699
g418
atp1700
Rp1701
sS'png_get_mem_ptr'
p1702
g3
((lp1703
g418
atp1704
Rp1705
sS'maxbits'
p1706
g3
((lp1707
g423
atp1708
Rp1709
sS'png_set_sCAL_s'
p1710
g3
((lp1711
g418
atp1712
Rp1713
sS'png_handle_PLTE'
p1714
g3
((lp1715
g418
atp1716
Rp1717
sS'png_default_error'
p1718
g3
((lp1719
g418
atp1720
Rp1721
sS'row_info'
p1722
g3
((lp1723
g423
ag408
atp1724
Rp1725
sS'truelen'
p1726
g3
((lp1727
g423
atp1728
Rp1729
sS'png_ptr'
p1730
g3
((lp1731
g413
ag423
ag408
atp1732
Rp1733
sS'sRGB_XYZ'
p1734
g3
((lp1735
g423
atp1736
Rp1737
sS'orig_key'
p1738
g3
((lp1739
g423
atp1740
Rp1741
sS'png_zlib_inflate'
p1742
g3
((lp1743
g418
atp1744
Rp1745
sS'gray_high'
p1746
g3
((lp1747
g423
atp1748
Rp1749
sS'png_read_transform_info'
p1750
g3
((lp1751
g418
atp1752
Rp1753
sS'have_shift'
p1754
g3
((lp1755
g423
atp1756
Rp1757
sS'check'
p1758
g3
((lp1759
g423
atp1760
Rp1761
sS'do_local_background'
p1762
g3
((lp1763
g423
atp1764
Rp1765
sS'nb'
p1766
g3
((lp1767
g423
atp1768
Rp1769
sS'png_write_info'
p1770
g3
((lp1771
g418
atp1772
Rp1773
sS'setting'
p1774
g3
((lp1775
g423
atp1776
Rp1777
sS'next_j'
p1778
g3
((lp1779
g423
atp1780
Rp1781
sS'test'
p1782
g3
((lp1783
g423
atp1784
Rp1785
sS'png_crc_read'
p1786
g3
((lp1787
g418
atp1788
Rp1789
sS'd_index'
p1790
g3
((lp1791
g423
atp1792
Rp1793
sS'usr_channels'
p1794
g3
((lp1795
g413
atp1796
Rp1797
sS'png_get_pixel_aspect_ratio'
p1798
g3
((lp1799
g418
atp1800
Rp1801
sS'tag_id'
p1802
g3
((lp1803
g423
atp1804
Rp1805
sS'intent'
p1806
g3
((lp1807
g413
ag423
ag408
atp1808
Rp1809
sS'new_max'
p1810
g3
((lp1811
g423
atp1812
Rp1813
sS'compression_method'
p1814
g3
((lp1815
g408
atp1816
Rp1817
sS'png_read_sig'
p1818
g3
((lp1819
g418
atp1820
Rp1821
sS'skip'
p1822
g3
((lp1823
g423
ag408
atp1824
Rp1825
sS'end_row'
p1826
g3
((lp1827
g423
atp1828
Rp1829
sS'uncompressed_length'
p1830
g3
((lp1831
g423
atp1832
Rp1833
sS'warning_or_error'
p1834
g3
((lp1835
g413
atp1836
Rp1837
sS'png_digit'
p1838
g3
((lp1839
g423
atp1840
Rp1841
sS'png_get_hIST'
p1842
g3
((lp1843
g418
atp1844
Rp1845
sS'pngtest_error'
p1846
g3
((lp1847
g418
atp1848
Rp1849
sS'png_data_freer'
p1850
g3
((lp1851
g418
atp1852
Rp1853
sS'green_high'
p1854
g3
((lp1855
g423
atp1856
Rp1857
sS'png_set_filter'
p1858
g3
((lp1859
g418
atp1860
Rp1861
sS'png_convert_from_struct_tm'
p1862
g3
((lp1863
g418
atp1864
Rp1865
sS'png_set_chunk_cache_max'
p1866
g3
((lp1867
g418
atp1868
Rp1869
sS'load3'
p1870
g3
((lp1871
g418
atp1872
Rp1873
sS'row_fn'
p1874
g3
((lp1875
g413
ag408
atp1876
Rp1877
sS'string'
p1878
g3
((lp1879
g408
atp1880
Rp1881
sS'optimize_cmf'
p1882
g3
((lp1883
g418
atp1884
Rp1885
sS'filter_to_do'
p1886
g3
((lp1887
g423
atp1888
Rp1889
sS'local_row'
p1890
g3
((lp1891
g413
atp1892
Rp1893
sS'test_one_file'
p1894
g3
((lp1895
g418
atp1896
Rp1897
sS'entries'
p1898
g3
((lp1899
g413
ag423
ag408
atp1900
Rp1901
sS'minute'
p1902
g3
((lp1903
g413
atp1904
Rp1905
sS'bytes_to_jump'
p1906
g3
((lp1907
g423
atp1908
Rp1909
sS'hlen'
p1910
g3
((lp1911
g423
atp1912
Rp1913
sS'png_XYZ_normalize'
p1914
g3
((lp1915
g418
atp1916
Rp1917
sS'level'
p1918
g3
((lp1919
g423
ag408
atp1920
Rp1921
sS'png_init_rgb_transformations'
p1922
g3
((lp1923
g418
atp1924
Rp1925
sS'p'
p1926
g3
((lp1927
g423
ag408
atp1928
Rp1929
sS'png_colorspace_set_rgb_coefficients'
p1930
g3
((lp1931
g418
atp1932
Rp1933
sS'add_elements'
p1934
g3
((lp1935
g408
atp1936
Rp1937
sS'user_png_ver'
p1938
g3
((lp1939
g408
atp1940
Rp1941
sS'png_do_encode_alpha'
p1942
g3
((lp1943
g418
atp1944
Rp1945
sS'filler'
p1946
g3
((lp1947
g413
ag423
ag408
atp1948
Rp1949
sS'is_broken'
p1950
g3
((lp1951
g413
atp1952
Rp1953
sS'current'
p1954
g3
((lp1955
g423
atp1956
Rp1957
sS'need_crc'
p1958
g3
((lp1959
g423
atp1960
Rp1961
sS'pcal_purpose'
p1962
g3
((lp1963
g413
atp1964
Rp1965
sS'png_set_bKGD'
p1966
g3
((lp1967
g418
atp1968
Rp1969
sS'png_get_y_offset_inches'
p1970
g3
((lp1971
g418
atp1972
Rp1973
sS'fmax'
p1974
g3
((lp1975
g423
atp1976
Rp1977
sS'png_create_info_struct'
p1978
g3
((lp1979
g418
atp1980
Rp1981
sS'change'
p1982
g3
((lp1983
g423
atp1984
Rp1985
sS'shift'
p1986
g3
((lp1987
g413
ag423
ag408
atp1988
Rp1989
sS'png_get_filter_type'
p1990
g3
((lp1991
g418
atp1992
Rp1993
sS'extra'
p1994
g3
((lp1995
g423
atp1996
Rp1997
sS'png_set_user_limits'
p1998
g3
((lp1999
g418
atp2000
Rp2001
sS'png_safe_warning'
p2002
g3
((lp2003
g418
atp2004
Rp2005
sS'wrote_question'
p2006
g3
((lp2007
g423
atp2008
Rp2009
sS'png_read_filter_row_avg4_sse2'
p2010
g3
((lp2011
g418
atp2012
Rp2013
sS'png_gamma_correct'
p2014
g3
((lp2015
g418
atp2016
Rp2017
sS'handled'
p2018
g3
((lp2019
g423
atp2020
Rp2021
sS'png_progressive_combine_row'
p2022
g3
((lp2023
g418
atp2024
Rp2025
sS'png_pass_yinc'
p2026
g3
((lp2027
g423
atp2028
Rp2029
sS'zstream_start'
p2030
g3
((lp2031
g413
atp2032
Rp2033
sS'memory'
p2034
g3
((lp2035
g413
ag423
ag408
atp2036
Rp2037
sS'msg'
p2038
g3
((lp2039
g413
ag423
atp2040
Rp2041
sS'png_ptr_ptr'
p2042
g3
((lp2043
g408
atp2044
Rp2045
sS'prev'
p2046
g3
((lp2047
g408
atp2048
Rp2049
sS'data_size'
p2050
g3
((lp2051
g408
atp2052
Rp2053
sS'png_setup_avg_row_only'
p2054
g3
((lp2055
g418
atp2056
Rp2057
sS'output_format'
p2058
g3
((lp2059
g423
atp2060
Rp2061
sS'chunk_name'
p2062
g3
((lp2063
g413
ag423
ag408
atp2064
Rp2065
sS'output_encoding'
p2066
g3
((lp2067
g423
atp2068
Rp2069
sS'png_set_gamma'
p2070
g3
((lp2071
g418
atp2072
Rp2073
sS'create_jmp_buf'
p2074
g3
((lp2075
g423
atp2076
Rp2077
sS'ierror'
p2078
g3
((lp2079
g423
atp2080
Rp2081
sS'png_dsort_struct'
p2082
g3
((lp2083
g407
atp2084
Rp2085
sS'png_read_filter_row_sub4_sse2'
p2086
g3
((lp2087
g418
atp2088
Rp2089
sS'values'
p2090
g3
((lp2091
g408
atp2092
Rp2093
sS'png_set_expand_gray_1_2_4_to_8'
p2094
g3
((lp2095
g418
atp2096
Rp2097
sS'colormap_processing'
p2098
g3
((lp2099
g413
atp2100
Rp2101
sS'trans'
p2102
g3
((lp2103
g423
ag408
atp2104
Rp2105
sS'nearest'
p2106
g3
((lp2107
g423
atp2108
Rp2109
sS'tag_length'
p2110
g3
((lp2111
g423
atp2112
Rp2113
sS'png_get_unknown_chunks'
p2114
g3
((lp2115
g418
atp2116
Rp2117
sS'max_by_2'
p2118
g3
((lp2119
g423
atp2120
Rp2121
sS'png_get_progressive_ptr'
p2122
g3
((lp2123
g418
atp2124
Rp2125
sS'allowed'
p2126
g3
((lp2127
g408
atp2128
Rp2129
sS'png_get_uint_31'
p2130
g3
((lp2131
g418
atp2132
Rp2133
sS'png_get_uint_32'
p2134
g3
((lp2135
g418
atp2136
Rp2137
sS'int_white_x'
p2138
g3
((lp2139
g408
atp2140
Rp2141
sS'do_background'
p2142
g3
((lp2143
g423
atp2144
Rp2145
sS'png_get_x_pixels_per_meter'
p2146
g3
((lp2147
g418
atp2148
Rp2149
sS's2'
p2150
g3
((lp2151
g423
atp2152
Rp2153
sS's1'
p2154
g3
((lp2155
g423
atp2156
Rp2157
sS's0'
p2158
g3
((lp2159
g423
atp2160
Rp2161
sS'next_in'
p2162
g3
((lp2163
g413
atp2164
Rp2165
sS'png_set_text_compression_strategy'
p2166
g3
((lp2167
g418
atp2168
Rp2169
sS'png_handle_sBIT'
p2170
g3
((lp2171
g418
atp2172
Rp2173
sS'whereami'
p2174
g3
((lp2175
g408
atp2176
Rp2177
sS'parameter'
p2178
g3
((lp2179
g423
atp2180
Rp2181
sS'tag_start'
p2182
g3
((lp2183
g423
atp2184
Rp2185
sS'max'
p2186
g3
((lp2187
g423
atp2188
Rp2189
sS'end_mask'
p2190
g3
((lp2191
g423
atp2192
Rp2193
sS'png_get_cHRM_XYZ_fixed'
p2194
g3
((lp2195
g418
atp2196
Rp2197
sS'zlib_strategy'
p2198
g3
((lp2199
g413
atp2200
Rp2201
sS'png_get_tIME'
p2202
g3
((lp2203
g418
atp2204
Rp2205
sS'data'
p2206
g3
((lp2207
g413
ag423
ag408
atp2208
Rp2209
sS'red_high'
p2210
g3
((lp2211
g423
atp2212
Rp2213
sS'sp'
p2214
g3
((lp2215
g423
atp2216
Rp2217
sS'flush_rows'
p2218
g3
((lp2219
g413
atp2220
Rp2221
sS'windowBits'
p2222
g3
((lp2223
g423
atp2224
Rp2225
sS'char_index'
p2226
g3
((lp2227
g423
atp2228
Rp2229
sS'png_set_tIME'
p2230
g3
((lp2231
g418
atp2232
Rp2233
sS'png_color_8_struct'
p2234
g3
((lp2235
g407
atp2236
Rp2237
sS'lsb'
p2238
g3
((lp2239
g423
atp2240
Rp2241
sS'pixels_per_byte'
p2242
g3
((lp2243
g423
atp2244
Rp2245
sS'iptr'
p2246
g3
((lp2247
g423
atp2248
Rp2249
sS'new_size'
p2250
g3
((lp2251
g423
ag408
atp2252
Rp2253
sS'error_fn'
p2254
g3
((lp2255
g413
ag408
atp2256
Rp2257
sS'gs_sig'
p2258
g3
((lp2259
g423
atp2260
Rp2261
sS'num_hist'
p2262
g3
((lp2263
g408
atp2264
Rp2265
sS'at_start'
p2266
g3
((lp2267
g408
atp2268
Rp2269
sS'zlib_window_bits'
p2270
g3
((lp2271
g413
atp2272
Rp2273
sS'key_len'
p2274
g3
((lp2275
g423
atp2276
Rp2277
sS'png_free_data'
p2278
g3
((lp2279
g418
atp2280
Rp2281
sS'main'
p2282
g3
((lp2283
g418
atp2284
Rp2285
sS'png_do_expand_16'
p2286
g3
((lp2287
g418
atp2288
Rp2289
sS'png_handle_tIME'
p2290
g3
((lp2291
g418
atp2292
Rp2293
sS'time_buffer'
p2294
g3
((lp2295
g413
atp2296
Rp2297
sS'png_set_invert_alpha'
p2298
g3
((lp2299
g418
atp2300
Rp2301
sS'info_fn'
p2302
g3
((lp2303
g413
ag408
atp2304
Rp2305
sS'png_write_sRGB'
p2306
g3
((lp2307
g418
atp2308
Rp2309
sS'name'
p2310
g3
((lp2311
g413
ag423
ag408
atp2312
Rp2313
sS'pixel_bytes'
p2314
g3
((lp2315
g423
atp2316
Rp2317
sS'png_push_have_row'
p2318
g3
((lp2319
g418
atp2320
Rp2321
sS'png_text_struct'
p2322
g3
((lp2323
g407
atp2324
Rp2325
sS'png_malloc_array_checked'
p2326
g3
((lp2327
g418
atp2328
Rp2329
sS'sig_bits'
p2330
g3
((lp2331
g408
atp2332
Rp2333
sS'png_write_flush'
p2334
g3
((lp2335
g418
atp2336
Rp2337
sS'blue_Y'
p2338
g3
((lp2339
g413
ag408
atp2340
Rp2341
sS'blue_X'
p2342
g3
((lp2343
g413
ag408
atp2344
Rp2345
sS'text_ptr'
p2346
g3
((lp2347
g423
ag408
atp2348
Rp2349
sS'full_row_length'
p2350
g3
((lp2351
g408
atp2352
Rp2353
sS'row_data_length'
p2354
g3
((lp2355
g408
atp2356
Rp2357
sS'year'
p2358
g3
((lp2359
g413
atp2360
Rp2361
sS'zlib_text_level'
p2362
g3
((lp2363
g413
atp2364
Rp2365
sS'ep'
p2366
g3
((lp2367
g423
atp2368
Rp2369
sS'lang_key_len'
p2370
g3
((lp2371
g423
atp2372
Rp2373
sS'outname'
p2374
g3
((lp2375
g423
ag408
atp2376
Rp2377
sS'png_read_png'
p2378
g3
((lp2379
g418
atp2380
Rp2381
sS'blue_y'
p2382
g3
((lp2383
g423
ag408
atp2384
Rp2385
sS'blue_x'
p2386
g3
((lp2387
g423
ag408
atp2388
Rp2389
sS'max_pixel_depth'
p2390
g3
((lp2391
g423
atp2392
Rp2393
sS'quantize_lookup'
p2394
g3
((lp2395
g408
atp2396
Rp2397
sS'png_create_write_struct_2'
p2398
g3
((lp2399
g418
atp2400
Rp2401
sS'png_get_user_transform_ptr'
p2402
g3
((lp2403
g418
atp2404
Rp2405
sS'png_formatted_warning'
p2406
g3
((lp2407
g418
atp2408
Rp2409
sS'endptr'
p2410
g3
((lp2411
g423
atp2412
Rp2413
sS'argv'
p2414
g3
((lp2415
g408
atp2416
Rp2417
sS'png_get_io_ptr'
p2418
g3
((lp2419
g418
atp2420
Rp2421
sS'byte'
p2422
g3
((lp2423
g408
atp2424
Rp2425
sS'argc'
p2426
g3
((lp2427
g408
atp2428
Rp2429
sS'sub_table'
p2430
g3
((lp2431
g423
atp2432
Rp2433
sS'compression'
p2434
g3
((lp2435
g413
ag408
atp2436
Rp2437
sS'png_write_destroy'
p2438
g3
((lp2439
g418
atp2440
Rp2441
sS'blue_1'
p2442
g3
((lp2443
g423
atp2444
Rp2445
sS'num_chunk_list'
p2446
g3
((lp2447
g413
atp2448
Rp2449
sS'gamma_16_to_1'
p2450
g3
((lp2451
g413
ag423
atp2452
Rp2453
sS'png_get_rowbytes'
p2454
g3
((lp2455
g418
atp2456
Rp2457
sS'first'
p2458
g3
((lp2459
g423
atp2460
Rp2461
sS'png_sPLT_struct'
p2462
g3
((lp2463
g407
atp2464
Rp2465
sS'total_len'
p2466
g3
((lp2467
g423
atp2468
Rp2469
sS'png_read_filter_row_paeth4_sse2'
p2470
g3
((lp2471
g418
atp2472
Rp2473
sS'back_rx'
p2474
g3
((lp2475
g423
atp2476
Rp2477
sS'old_big_row_buf_size'
p2478
g3
((lp2479
g413
atp2480
Rp2481
sS'xy'
p2482
g3
((lp2483
g423
ag408
atp2484
Rp2485
sS'idat_size'
p2486
g3
((lp2487
g413
ag423
atp2488
Rp2489
sS'is_invalid_depth'
p2490
g3
((lp2491
g423
atp2492
Rp2493
sS'display_row'
p2494
g3
((lp2495
g408
atp2496
Rp2497
sS'array'
p2498
g3
((lp2499
g408
atp2500
Rp2501
sS'background_color'
p2502
g3
((lp2503
g408
atp2504
Rp2505
sS'size'
p2506
g3
((lp2507
g413
ag423
ag408
atp2508
Rp2509
sS'free_jmp_buf'
p2510
g3
((lp2511
g423
atp2512
Rp2513
sS'params'
p2514
g3
((lp2515
g423
ag408
atp2516
Rp2517
sS'png_image_read_colormapped'
p2518
g3
((lp2519
g418
atp2520
Rp2521
sS'write_row_fn'
p2522
g3
((lp2523
g413
ag408
atp2524
Rp2525
sS'safe_jmpbuf'
p2526
g3
((lp2527
g423
atp2528
Rp2529
sS'padding'
p2530
g3
((lp2531
g423
atp2532
Rp2533
sS'png_set_progressive_read_fn'
p2534
g3
((lp2535
g418
atp2536
Rp2537
sS'png_colorspace_set_gamma'
p2538
g3
((lp2539
g418
atp2540
Rp2541
sS'png_create_read_struct'
p2542
g3
((lp2543
g418
atp2544
Rp2545
sS'png_destroy_gamma_table'
p2546
g3
((lp2547
g418
atp2548
Rp2549
sS'r'
p2550
g3
((lp2551
g423
atp2552
Rp2553
sS'png_set_swap_alpha'
p2554
g3
((lp2555
g418
atp2556
Rp2557
sS'preserve_alpha'
p2558
g3
((lp2559
g423
atp2560
Rp2561
sS'png_write_eXIf'
p2562
g3
((lp2563
g418
atp2564
Rp2565
sS'current_buffer_ptr'
p2566
g3
((lp2567
g413
atp2568
Rp2569
sS'argument'
p2570
g3
((lp2571
g408
atp2572
Rp2573
sS'zbuffer_list'
p2574
g3
((lp2575
g413
atp2576
Rp2577
sS'try_row'
p2578
g3
((lp2579
g413
atp2580
Rp2581
sS'png_benign_error'
p2582
g3
((lp2583
g418
atp2584
Rp2585
sS'num_entries'
p2586
g3
((lp2587
g423
atp2588
Rp2589
sS'png_get_rgb_to_gray_status'
p2590
g3
((lp2591
g418
atp2592
Rp2593
sS'image_height'
p2594
g3
((lp2595
g423
atp2596
Rp2597
sS'offset_x'
p2598
g3
((lp2599
g423
ag408
atp2600
Rp2601
sS'offset_y'
p2602
g3
((lp2603
g423
ag408
atp2604
Rp2605
sS'png_chunk_error'
p2606
g3
((lp2607
g418
atp2608
Rp2609
sS'channel'
p2610
g3
((lp2611
g423
atp2612
Rp2613
sS'png_start_read_image'
p2614
g3
((lp2615
g418
atp2616
Rp2617
sS'png_handle_tEXt'
p2618
g3
((lp2619
g418
atp2620
Rp2621
sS'multiple'
p2622
g3
((lp2623
g423
atp2624
Rp2625
sS'buffer'
p2626
g3
((lp2627
g413
ag423
ag408
atp2628
Rp2629
sS'palette'
p2630
g3
((lp2631
g413
ag423
ag408
atp2632
Rp2633
sS'filter_type'
p2634
g3
((lp2635
g413
ag423
ag408
atp2636
Rp2637
sS'png_color_struct'
p2638
g3
((lp2639
g407
atp2640
Rp2641
sS'png_push_have_info'
p2642
g3
((lp2643
g418
atp2644
Rp2645
sS'trans_alpha'
p2646
g3
((lp2647
g413
ag423
ag408
atp2648
Rp2649
sS'dp32'
p2650
g3
((lp2651
g423
atp2652
Rp2653
sS'png_read_info'
p2654
g3
((lp2655
g418
atp2656
Rp2657
sS'embedded_profile_len'
p2658
g3
((lp2659
g423
atp2660
Rp2661
sS'png_set_text_compression_window_bits'
p2662
g3
((lp2663
g418
atp2664
Rp2665
sS'gamma_to_1'
p2666
g3
((lp2667
g413
ag423
atp2668
Rp2669
sS'png_fixed_error'
p2670
g3
((lp2671
g418
atp2672
Rp2673
sS'png_sRGB_delta'
p2674
g3
((lp2675
g423
atp2676
Rp2677
sS'need_IHDR'
p2678
g3
((lp2679
g408
atp2680
Rp2681
sS'gtest'
p2682
g3
((lp2683
g423
atp2684
Rp2685
sS'png_set_shift'
p2686
g3
((lp2687
g418
atp2688
Rp2689
sS'png_push_save_buffer'
p2690
g3
((lp2691
g418
atp2692
Rp2693
sS'png_check_keyword'
p2694
g3
((lp2695
g418
atp2696
Rp2697
sS'png_do_expand'
p2698
g3
((lp2699
g418
atp2700
Rp2701
sS'user_chunk_ptr'
p2702
g3
((lp2703
g413
ag408
atp2704
Rp2705
sS'memory_bytes'
p2706
g3
((lp2707
g413
ag408
atp2708
Rp2709
sS'png_write_find_filter'
p2710
g3
((lp2711
g418
atp2712
Rp2713
sS'blue_high'
p2714
g3
((lp2715
g423
atp2716
Rp2717
sS'where'
p2718
g3
((lp2719
g423
ag408
atp2720
Rp2721
sS'png_combine_row'
p2722
g3
((lp2723
g418
atp2724
Rp2725
sS'png_reset_zstream'
p2726
g3
((lp2727
g418
atp2728
Rp2729
sS'png_colorspace_set_chromaticities'
p2730
g3
((lp2731
g418
atp2732
Rp2733
sS'png_realloc_array'
p2734
g3
((lp2735
g418
atp2736
Rp2737
sS'max_d'
p2738
g3
((lp2739
g423
atp2740
Rp2741
sS'png_set_filler'
p2742
g3
((lp2743
g418
atp2744
Rp2745
sS'usr_bit_depth'
p2746
g3
((lp2747
g413
atp2748
Rp2749
sS'hist'
p2750
g3
((lp2751
g413
ag423
ag408
atp2752
Rp2753
sS'png_set_compression_mem_level'
p2754
g3
((lp2755
g418
atp2756
Rp2757
sS'png_XYZ_from_xy'
p2758
g3
((lp2759
g418
atp2760
Rp2761
sS'comp'
p2762
g3
((lp2763
g423
ag408
atp2764
Rp2765
sS'save_buffer'
p2766
g3
((lp2767
g413
atp2768
Rp2769
sS'jb'
p2770
g3
((lp2771
g423
atp2772
Rp2773
sS'png_handle_IEND'
p2774
g3
((lp2775
g418
atp2776
Rp2777
sS'png_do_pack'
p2778
g3
((lp2779
g418
atp2780
Rp2781
sS'data_encoding'
p2782
g3
((lp2783
g423
atp2784
Rp2785
sS'png_write_hIST'
p2786
g3
((lp2787
g418
atp2788
Rp2789
sS'num_palette'
p2790
g3
((lp2791
g413
ag423
ag408
atp2792
Rp2793
sS'png_get_pixels_per_meter'
p2794
g3
((lp2795
g418
atp2796
Rp2797
sS'entrybuf'
p2798
g3
((lp2799
g423
atp2800
Rp2801
sS'pos'
p2802
g3
((lp2803
g423
ag408
atp2804
Rp2805
sS'file_srgb_intent'
p2806
g3
((lp2807
g408
atp2808
Rp2809
sS'png_get_io_state'
p2810
g3
((lp2811
g418
atp2812
Rp2813
sS'have_alpha'
p2814
g3
((lp2815
g423
atp2816
Rp2817
sS'png_set_error_fn'
p2818
g3
((lp2819
g418
atp2820
Rp2821
sS'png_malloc_array'
p2822
g3
((lp2823
g418
atp2824
Rp2825
sS'png_check_chunk_name'
p2826
g3
((lp2827
g418
atp2828
Rp2829
sS'y_pixels_per_unit'
p2830
g3
((lp2831
g413
ag408
atp2832
Rp2833
sS'png_get_int_32'
p2834
g3
((lp2835
g418
atp2836
Rp2837
sS'png_set_sRGB_gAMA_and_cHRM'
p2838
g3
((lp2839
g418
atp2840
Rp2841
sS'translate_gamma_flags'
p2842
g3
((lp2843
g418
atp2844
Rp2845
sS'num_new_palette'
p2846
g3
((lp2847
g423
atp2848
Rp2849
sS'png_get_IHDR'
p2850
g3
((lp2851
g418
atp2852
Rp2853
sS'png_write_info_before_PLTE'
p2854
g3
((lp2855
g418
atp2856
Rp2857
sS'png_XYZ'
p2858
g3
((lp2859
g407
atp2860
Rp2861
sS'num_weights'
p2862
g3
((lp2863
g408
atp2864
Rp2865
sS'png_malloc_base'
p2866
g3
((lp2867
g418
atp2868
Rp2869
sS'num_palette_max'
p2870
g3
((lp2871
g413
atp2872
Rp2873
sS'png_init_filter_functions_sse2'
p2874
g3
((lp2875
g418
atp2876
Rp2877
sS'iccp_profile'
p2878
g3
((lp2879
g413
atp2880
Rp2881
sS'end_points_xy'
p2882
g3
((lp2883
g413
atp2884
Rp2885
sS'set_file_encoding'
p2886
g3
((lp2887
g418
atp2888
Rp2889
sS'png_write_chunk'
p2890
g3
((lp2891
g418
atp2892
Rp2893
sS'bytes_to_copy'
p2894
g3
((lp2895
g423
atp2896
Rp2897
sS'decode_gamma'
p2898
g3
((lp2899
g418
atp2900
Rp2901
sS'new_array'
p2902
g3
((lp2903
g423
atp2904
Rp2905
sS'ascii'
p2906
g3
((lp2907
g408
atp2908
Rp2909
sS'png_set_compression_level'
p2910
g3
((lp2911
g418
atp2912
Rp2913
sS'user_pixel_depth'
p2914
g3
((lp2915
g423
atp2916
Rp2917
sS'save_buffer_max'
p2918
g3
((lp2919
g413
atp2920
Rp2921
sS'read_length'
p2922
g3
((lp2923
g423
atp2924
Rp2925
sS'png_read_destroy'
p2926
g3
((lp2927
g418
atp2928
Rp2929
sS'dp16'
p2930
g3
((lp2931
g423
atp2932
Rp2933
sS'png_check_chunk_length'
p2934
g3
((lp2935
g418
atp2936
Rp2937
sS'png_get_sCAL'
p2938
g3
((lp2939
g418
atp2940
Rp2941
sS'png_get_sCAL_s'
p2942
g3
((lp2943
g418
atp2944
Rp2945
sS'finish'
p2946
g3
((lp2947
g408
atp2948
Rp2949
sS'png_set_background_fixed'
p2950
g3
((lp2951
g418
atp2952
Rp2953
sS'write_vpAg_chunk'
p2954
g3
((lp2955
g418
atp2956
Rp2957
sS'png_colorspace_set_sRGB'
p2958
g3
((lp2959
g418
atp2960
Rp2961
sS'chunk_length'
p2962
g3
((lp2963
g423
ag408
atp2964
Rp2965
sS'local_buffer'
p2966
g3
((lp2967
g423
atp2968
Rp2969
sS'png_user_version_check'
p2970
g3
((lp2971
g418
atp2972
Rp2973
sS'png_set_text'
p2974
g3
((lp2975
g418
atp2976
Rp2977
sS'sRGB_xy'
p2978
g3
((lp2979
g423
atp2980
Rp2981
sS'png_get_compression_buffer_size'
p2982
g3
((lp2983
g418
atp2984
Rp2985
sS'png_get_uint_16'
p2986
g3
((lp2987
g418
atp2988
Rp2989
sS'image_memory_write'
p2990
g3
((lp2991
g418
atp2992
Rp2993
sS'png_set_expand_16'
p2994
g3
((lp2995
g418
atp2996
Rp2997
sS'zstream'
p2998
g3
((lp2999
g413
atp3000
Rp3001
sS'png_xy_from_XYZ'
p3002
g3
((lp3003
g418
atp3004
Rp3005
sS'status_pass'
p3006
g3
((lp3007
g423
atp3008
Rp3009
sS'old_array'
p3010
g3
((lp3011
g408
atp3012
Rp3013
sS'init_callback_info'
p3014
g3
((lp3015
g418
atp3016
Rp3017
sS'np'
p3018
g3
((lp3019
g423
atp3020
Rp3021
sS'maximum_pixel_depth'
p3022
g3
((lp3023
g413
atp3024
Rp3025
sS'png_get_current_pass_number'
p3026
g3
((lp3027
g418
atp3028
Rp3029
sS'zero_samples'
p3030
g3
((lp3031
g423
atp3032
Rp3033
sS'profile_len'
p3034
g3
((lp3035
g423
atp3036
Rp3037
sS'png_chunk_report'
p3038
g3
((lp3039
g418
atp3040
Rp3041
sS'color_inc'
p3042
g3
((lp3043
g423
atp3044
Rp3045
sS'png_handle_sPLT'
p3046
g3
((lp3047
g418
atp3048
Rp3049
sS't'
p3050
g3
((lp3051
g423
ag408
atp3052
Rp3053
sS'output'
p3054
g3
((lp3055
g413
ag423
ag408
atp3056
Rp3057
sS'num_green'
p3058
g3
((lp3059
g423
atp3060
Rp3061
sS'png_get_sPLT'
p3062
g3
((lp3063
g418
atp3064
Rp3065
sS'png_set_gray_to_rgb'
p3066
g3
((lp3067
g418
atp3068
Rp3069
sS'png_do_write_transformations'
p3070
g3
((lp3071
g418
atp3072
Rp3073
sS'first_row'
p3074
g3
((lp3075
g413
ag423
atp3076
Rp3077
sS'unknown_chunk'
p3078
g3
((lp3079
g413
atp3080
Rp3081
sS'exif'
p3082
g3
((lp3083
g413
ag423
ag408
atp3084
Rp3085
sS'freer'
p3086
g3
((lp3087
g408
atp3088
Rp3089
sS'sTER_mode'
p3090
g3
((lp3091
g413
atp3092
Rp3093
sS'do_filter'
p3094
g3
((lp3095
g413
atp3096
Rp3097
sS'png_set_PLTE'
p3098
g3
((lp3099
g418
atp3100
Rp3101
sS'png_read_buffer'
p3102
g3
((lp3103
g418
atp3104
Rp3105
sS'zlib_text_method'
p3106
g3
((lp3107
g413
atp3108
Rp3109
sS'png_get_cHRM'
p3110
g3
((lp3111
g418
atp3112
Rp3113
sS'uexp_b10'
p3114
g3
((lp3115
g423
atp3116
Rp3117
sS'power'
p3118
g3
((lp3119
g408
atp3120
Rp3121
sS'filter_weights'
p3122
g3
((lp3123
g408
atp3124
Rp3125
sS'png_get_cHRM_fixed'
p3126
g3
((lp3127
g418
atp3128
Rp3129
sS'png_set_read_user_transform_fn'
p3130
g3
((lp3131
g418
atp3132
Rp3133
sS'ob'
p3134
g3
((lp3135
g423
atp3136
Rp3137
sS'whitey'
p3138
g3
((lp3139
g413
atp3140
Rp3141
sS'whitex'
p3142
g3
((lp3143
g413
atp3144
Rp3145
sS'exif_length'
p3146
g3
((lp3147
g423
atp3148
Rp3149
sS'zlib_mem_level'
p3150
g3
((lp3151
g413
atp3152
Rp3153
sS'gamma_16_table'
p3154
g3
((lp3155
g413
ag423
atp3156
Rp3157
sS'png_get_oFFs'
p3158
g3
((lp3159
g418
atp3160
Rp3161
sS'int_red_Z'
p3162
g3
((lp3163
g408
atp3164
Rp3165
sS'whiteY'
p3166
g3
((lp3167
g423
atp3168
Rp3169
sS'whiteX'
p3170
g3
((lp3171
g423
atp3172
Rp3173
sS'start'
p3174
g3
((lp3175
g408
atp3176
Rp3177
sS'output_flush_fn'
p3178
g3
((lp3179
g413
ag408
atp3180
Rp3181
sS'nparams'
p3182
g3
((lp3183
g423
ag408
atp3184
Rp3185
sS'png_set_filter_heuristics'
p3186
g3
((lp3187
g418
atp3188
Rp3189
sS'png_read_start_row'
p3190
g3
((lp3191
g418
atp3192
Rp3193
sS'png_ascii_from_fixed'
p3194
g3
((lp3195
g418
atp3196
Rp3197
sS'adler'
p3198
g3
((lp3199
g413
ag408
atp3200
Rp3201
sS'png_do_rgb_to_gray'
p3202
g3
((lp3203
g418
atp3204
Rp3205
sS'pngtest_check_text_support'
p3206
g3
((lp3207
g418
atp3208
Rp3209
sS'colorspace'
p3210
g3
((lp3211
g413
ag408
atp3212
Rp3213
sS'png_write_chunk_data'
p3214
g3
((lp3215
g418
atp3216
Rp3217
sS'png_push_read_tEXt'
p3218
g3
((lp3219
g418
atp3220
Rp3221
sS'unknown_chunks'
p3222
g3
((lp3223
g413
atp3224
Rp3225
sS'old_buffer'
p3226
g3
((lp3227
g423
atp3228
Rp3229
sS'warning_fn'
p3230
g3
((lp3231
g413
ag408
atp3232
Rp3233
sS'png_write_rows'
p3234
g3
((lp3235
g418
atp3236
Rp3237
sS'write_chunks'
p3238
g3
((lp3239
g418
atp3240
Rp3241
sS'png_get_fixed_point'
p3242
g3
((lp3243
g418
atp3244
Rp3245
sS'file'
p3246
g3
((lp3247
g408
atp3248
Rp3249
sS'png_image_read_direct'
p3250
g3
((lp3251
g418
atp3252
Rp3253
sS'background_1'
p3254
g3
((lp3255
g413
atp3256
Rp3257
sS'zowner'
p3258
g3
((lp3259
g413
atp3260
Rp3261
sS'ptr_ptr'
p3262
g3
((lp3263
g408
atp3264
Rp3265
sS'png_write_image_16bit'
p3266
g3
((lp3267
g418
atp3268
Rp3269
sS'inname'
p3270
g3
((lp3271
g423
ag408
atp3272
Rp3273
sS'valid'
p3274
g3
((lp3275
g413
atp3276
Rp3277
sS'ttime'
p3278
g3
((lp3279
g408
atp3280
Rp3281
sS'back_1'
p3282
g3
((lp3283
g423
atp3284
Rp3285
sS'png_setup_sub_row'
p3286
g3
((lp3287
g418
atp3288
Rp3289
sS'do_local_compose'
p3290
g3
((lp3291
g423
atp3292
Rp3293
sS'red_low'
p3294
g3
((lp3295
g423
atp3296
Rp3297
sS'png_do_read_invert_alpha'
p3298
g3
((lp3299
g418
atp3300
Rp3301
sS'png_set_write_fn'
p3302
g3
((lp3303
g418
atp3304
Rp3305
sS'back_i'
p3306
g3
((lp3307
g423
atp3308
Rp3309
sS'save_buffer_ptr'
p3310
g3
((lp3311
g413
atp3312
Rp3313
sS'zlib_level'
p3314
g3
((lp3315
g413
atp3316
Rp3317
sS'back_b'
p3318
g3
((lp3319
g423
atp3320
Rp3321
sS'num_red'
p3322
g3
((lp3323
g423
atp3324
Rp3325
sS'mask'
p3326
g3
((lp3327
g423
ag408
atp3328
Rp3329
sS'back_g'
p3330
g3
((lp3331
g423
atp3332
Rp3333
sS'png_write_data'
p3334
g3
((lp3335
g418
atp3336
Rp3337
sS'exp_b10'
p3338
g3
((lp3339
g423
atp3340
Rp3341
sS'u'
p3342
g3
((lp3343
g423
atp3344
Rp3345
sS'gAMA'
p3346
g3
((lp3347
g408
atp3348
Rp3349
sS'back_r'
p3350
g3
((lp3351
g423
atp3352
Rp3353
sS'png_handle_unknown'
p3354
g3
((lp3355
g418
atp3356
Rp3357
sS'dptr'
p3358
g3
((lp3359
g423
atp3360
Rp3361
sS'png_set_eXIf'
p3362
g3
((lp3363
g418
atp3364
Rp3365
sS'month'
p3366
g3
((lp3367
g413
atp3368
Rp3369
sS'new_list'
p3370
g3
((lp3371
g423
atp3372
Rp3373
sS'png_setup_sub_row_only'
p3374
g3
((lp3375
g418
atp3376
Rp3377
sS'ptr'
p3378
g3
((lp3379
g423
ag408
atp3380
Rp3381
sS'png_default_write_data'
p3382
g3
((lp3383
g418
atp3384
Rp3385
sS'outlist'
p3386
g3
((lp3387
g423
atp3388
Rp3389
sS'units_len'
p3390
g3
((lp3391
g423
atp3392
Rp3393
sS'png_image_begin_read_from_memory'
p3394
g3
((lp3395
g418
atp3396
Rp3397
sS'png_write_sBIT'
p3398
g3
((lp3399
g418
atp3400
Rp3401
sS'vpAg'
p3402
g3
((lp3403
g423
atp3404
Rp3405
sS'read_user_chunk_callback'
p3406
g3
((lp3407
g418
atp3408
Rp3409
sS'png_read_filter_row_up'
p3410
g3
((lp3411
g418
atp3412
Rp3413
sS'png_image_write_to_file'
p3414
g3
((lp3415
g418
atp3416
Rp3417
sS'idat_limit'
p3418
g3
((lp3419
g423
atp3420
Rp3421
sS'new_name'
p3422
g3
((lp3423
g423
atp3424
Rp3425
sS'png_write_gAMA_fixed'
p3426
g3
((lp3427
g418
atp3428
Rp3429
sS'png_set_swap'
p3430
g3
((lp3431
g418
atp3432
Rp3433
sS'nelements'
p3434
g3
((lp3435
g408
atp3436
Rp3437
sS'png_colorspace_sync_info'
p3438
g3
((lp3439
g418
atp3440
Rp3441
sS'XYZ'
p3442
g3
((lp3443
g423
ag408
atp3444
Rp3445
sS'list'
p3446
g3
((lp3447
g423
ag408
atp3448
Rp3449
sS'png_write_chunk_header'
p3450
g3
((lp3451
g418
atp3452
Rp3453
sS'png_default_read_data'
p3454
g3
((lp3455
g418
atp3456
Rp3457
sS'png_set_strip_16'
p3458
g3
((lp3459
g418
atp3460
Rp3461
sS'x_pixels_per_unit'
p3462
g3
((lp3463
g413
ag408
atp3464
Rp3465
sS'png_get_copyright'
p3466
g3
((lp3467
g418
atp3468
Rp3469
sS'half_window_size'
p3470
g3
((lp3471
g423
atp3472
Rp3473
sS'convert_to_8_bit'
p3474
g3
((lp3475
g408
atp3476
Rp3477
sS'png_do_read_swap_alpha'
p3478
g3
((lp3479
g418
atp3480
Rp3481
sS'zero'
p3482
g3
((lp3483
g423
atp3484
Rp3485
sS'png_setup_avg_row'
p3486
g3
((lp3487
g418
atp3488
Rp3489
sS'pass'
p3490
g3
((lp3491
g413
ag423
ag408
atp3492
Rp3493
sS'memLevel'
p3494
g3
((lp3495
g423
atp3496
Rp3497
sS'png_read_row'
p3498
g3
((lp3499
g418
atp3500
Rp3501
sS'what'
p3502
g3
((lp3503
g408
atp3504
Rp3505
sS'uval'
p3506
g3
((lp3507
g423
atp3508
Rp3509
sS'sum'
p3510
g3
((lp3511
g423
atp3512
Rp3513
sS'zlib_method'
p3514
g3
((lp3515
g413
atp3516
Rp3517
sS'version'
p3518
g3
((lp3519
g413
atp3520
Rp3521
sS'row'
p3522
g3
((lp3523
g423
ag408
atp3524
Rp3525
sS'method'
p3526
g3
((lp3527
g423
ag408
atp3528
Rp3529
sS'png_set_packswap'
p3530
g3
((lp3531
g418
atp3532
Rp3533
sS'num_in'
p3534
g3
((lp3535
g423
atp3536
Rp3537
sS'num_trans'
p3538
g3
((lp3539
g413
ag423
ag408
atp3540
Rp3541
sS'component'
p3542
g3
((lp3543
g423
ag408
atp3544
Rp3545
sS'png_get_y_pixels_per_meter'
p3546
g3
((lp3547
g418
atp3548
Rp3549
sS'language_offset'
p3550
g3
((lp3551
g423
atp3552
Rp3553
sS'compressed'
p3554
g3
((lp3555
g423
atp3556
Rp3557
sS'make_rgb_colormap'
p3558
g3
((lp3559
g418
atp3560
Rp3561
sS'mult'
p3562
g3
((lp3563
g423
atp3564
Rp3565
sS'png_set_invalid'
p3566
g3
((lp3567
g418
atp3568
Rp3569
sS'png_muldiv_warn'
p3570
g3
((lp3571
g418
atp3572
Rp3573
sS'input_has_transparency'
p3574
g3
((lp3575
g423
atp3576
Rp3577
sS'divisor'
p3578
g3
((lp3579
g408
atp3580
Rp3581
sS'free_me'
p3582
g3
((lp3583
g413
ag408
atp3584
Rp3585
sS'reason'
p3586
g3
((lp3587
g408
atp3588
Rp3589
sS'png_safe_execute'
p3590
g3
((lp3591
g418
atp3592
Rp3593
sS'png_set_strip_alpha'
p3594
g3
((lp3595
g418
atp3596
Rp3597
sS'push_length'
p3598
g3
((lp3599
g413
atp3600
Rp3601
sS'tRNS'
p3602
g3
((lp3603
g423
atp3604
Rp3605
sS'options'
p3606
g3
((lp3607
g413
atp3608
Rp3609
sS'error_action'
p3610
g3
((lp3611
g408
atp3612
Rp3613
sS'verbose'
p3614
g3
((lp3615
g423
atp3616
Rp3617
sS'png_warning_parameter_unsigned'
p3618
g3
((lp3619
g418
atp3620
Rp3621
sS'entry_start'
p3622
g3
((lp3623
g423
atp3624
Rp3625
sS'textp'
p3626
g3
((lp3627
g423
atp3628
Rp3629
sS'png_convert_from_time_t'
p3630
g3
((lp3631
g418
atp3632
Rp3633
sS'png_write_complete_chunk'
p3634
g3
((lp3635
g418
atp3636
Rp3637
sS'png_set_pCAL'
p3638
g3
((lp3639
g418
atp3640
Rp3641
sS'png_get_rows'
p3642
g3
((lp3643
g418
atp3644
Rp3645
sS'itag'
p3646
g3
((lp3647
g423
atp3648
Rp3649
sS'g_sig'
p3650
g3
((lp3651
g423
atp3652
Rp3653
sS'png_write_tEXt'
p3654
g3
((lp3655
g418
atp3656
Rp3657
sS'old_ptr'
p3658
g3
((lp3659
g423
atp3660
Rp3661
sS'flag'
p3662
g3
((lp3663
g408
atp3664
Rp3665
sS'pngtest_warning'
p3666
g3
((lp3667
g418
atp3668
Rp3669
sS'profile_header'
p3670
g3
((lp3671
g423
atp3672
Rp3673
sS'png_get_x_offset_inches_fixed'
p3674
g3
((lp3675
g418
atp3676
Rp3677
sS'png_write_chunk_start'
p3678
g3
((lp3679
g418
atp3680
Rp3681
sS'hour'
p3682
g3
((lp3683
g413
atp3684
Rp3685
sS'png_set_pHYs'
p3686
g3
((lp3687
g418
atp3688
Rp3689
sS'load4'
p3690
g3
((lp3691
g418
atp3692
Rp3693
sS'v'
p3694
g3
((lp3695
g423
ag408
atp3696
Rp3697
sS'png_read_finish_row'
p3698
g3
((lp3699
g418
atp3700
Rp3701
sS'info_ptr_ptr'
p3702
g3
((lp3703
g408
atp3704
Rp3705
sS'maximum_colors'
p3706
g3
((lp3707
g408
atp3708
Rp3709
sS'png_color_16_struct'
p3710
g3
((lp3711
g407
atp3712
Rp3713
sS'sample_depth'
p3714
g3
((lp3715
g423
atp3716
Rp3717
sS'png_set_bgr'
p3718
g3
((lp3719
g418
atp3720
Rp3721
sS'png_write_oFFs'
p3722
g3
((lp3723
g418
atp3724
Rp3725
sS'statep'
p3726
g3
((lp3727
g408
atp3728
Rp3729
sS'avail_out'
p3730
g3
((lp3731
g413
ag423
ag408
atp3732
Rp3733
sS'read_data_fn'
p3734
g3
((lp3735
g413
ag408
atp3736
Rp3737
sS'read_user_transform_fn'
p3738
g3
((lp3739
g413
ag408
atp3740
Rp3741
sS'png_save_int_32'
p3742
g3
((lp3743
g418
atp3744
Rp3745
sS'background_gamma_type'
p3746
g3
((lp3747
g413
atp3748
Rp3749
sS'png_convert_to_rfc1123_buffer'
p3750
g3
((lp3751
g418
atp3752
Rp3753
sS'gamma_from_1'
p3754
g3
((lp3755
g413
ag423
atp3756
Rp3757
sS'onoff'
p3758
g3
((lp3759
g408
atp3760
Rp3761
sS'fp'
p3762
g3
((lp3763
g423
ag408
atp3764
Rp3765
sS'png_get_eXIf'
p3766
g3
((lp3767
g418
atp3768
Rp3769
sS'a'
p3770
g3
((lp3771
g423
ag408
atp3772
Rp3773
sS'blue_low'
p3774
g3
((lp3775
g423
atp3776
Rp3777
sS'png_init_read_transformations'
p3778
g3
((lp3779
g418
atp3780
Rp3781
sS'png_get_palette_max'
p3782
g3
((lp3783
g418
atp3784
Rp3785
sS'png_pass_ystart'
p3786
g3
((lp3787
g423
atp3788
Rp3789
sS'zlib_text_window_bits'
p3790
g3
((lp3791
g413
atp3792
Rp3793
sS'png_set_cHRM_fixed'
p3794
g3
((lp3795
g418
atp3796
Rp3797
sS'png_write_bKGD'
p3798
g3
((lp3799
g418
atp3800
Rp3801
sS'filters'
p3802
g3
((lp3803
g423
ag408
atp3804
Rp3805
sS'png_set_sig_bytes'
p3806
g3
((lp3807
g418
atp3808
Rp3809
sS'png_handle_sCAL'
p3810
g3
((lp3811
g418
atp3812
Rp3813
sS'fourbppswaptable'
p3814
g3
((lp3815
g423
atp3816
Rp3817
sS'mng_features'
p3818
g3
((lp3819
g408
atp3820
Rp3821
sS'png_get_io_chunk_type'
p3822
g3
((lp3823
g418
atp3824
Rp3825
sS'pal_ptr'
p3826
g3
((lp3827
g423
atp3828
Rp3829
sS'png_set_rgb_to_gray_fixed'
p3830
g3
((lp3831
g418
atp3832
Rp3833
sS'pend'
p3834
g3
((lp3835
g423
atp3836
Rp3837
sS'proflen'
p3838
g3
((lp3839
g423
ag408
atp3840
Rp3841
sS'png_colorspace'
p3842
g3
((lp3843
g407
atp3844
Rp3845
sS'png_set_unknown_chunks'
p3846
g3
((lp3847
g418
atp3848
Rp3849
sS'png_set_write_status_fn'
p3850
g3
((lp3851
g418
atp3852
Rp3853
sS'write_data_fn'
p3854
g3
((lp3855
g413
ag408
atp3856
Rp3857
sS'number'
p3858
g3
((lp3859
g423
ag408
atp3860
Rp3861
sS'units'
p3862
g3
((lp3863
g423
ag408
atp3864
Rp3865
sS'convert_to_Y'
p3866
g3
((lp3867
g423
atp3868
Rp3869
sS'iccp_name'
p3870
g3
((lp3871
g413
atp3872
Rp3873
sS'name_len'
p3874
g3
((lp3875
g423
atp3876
Rp3877
sS'png_format_buffer'
p3878
g3
((lp3879
g418
atp3880
Rp3881
sS'phys_unit_type'
p3882
g3
((lp3883
g413
atp3884
Rp3885
sS'entry_size'
p3886
g3
((lp3887
g423
atp3888
Rp3889
sS'png_write_end'
p3890
g3
((lp3891
g418
atp3892
Rp3893
sS'png_get_x_offset_microns'
p3894
g3
((lp3895
g418
atp3896
Rp3897
sS'png_get_compression_type'
p3898
g3
((lp3899
g418
atp3900
Rp3901
sS'divided_by'
p3902
g3
((lp3903
g408
atp3904
Rp3905
sS'bluey'
p3906
g3
((lp3907
g413
atp3908
Rp3909
sS'bluex'
p3910
g3
((lp3911
g413
atp3912
Rp3913
sS'readbuf'
p3914
g3
((lp3915
g423
atp3916
Rp3917
sS'png_read_filter_row_avg'
p3918
g3
((lp3919
g418
atp3920
Rp3921
sS'png_malloc_warn'
p3922
g3
((lp3923
g418
atp3924
Rp3925
sS'png_get_bKGD'
p3926
g3
((lp3927
g418
atp3928
Rp3929
sS'gray_shift'
p3930
g3
((lp3931
g423
atp3932
Rp3933
sS'multiplied_by'
p3934
g3
((lp3935
g408
atp3936
Rp3937
sS'owned_file'
p3938
g3
((lp3939
g413
atp3940
Rp3941
sS'png_set_mem_fn'
p3942
g3
((lp3943
g418
atp3944
Rp3945
sS'foreground'
p3946
g3
((lp3947
g408
atp3948
Rp3949
sS'passes'
p3950
g3
((lp3951
g423
atp3952
Rp3953
sS'png_push_read_zTXt'
p3954
g3
((lp3955
g418
atp3956
Rp3957
sS'base'
p3958
g3
((lp3959
g423
atp3960
Rp3961
sS'buffer_size'
p3962
g3
((lp3963
g413
ag423
ag408
atp3964
Rp3965
sS'png_image_read_colormap'
p3966
g3
((lp3967
g418
atp3968
Rp3969
sS'w'
p3970
g3
((lp3971
g423
atp3972
Rp3973
sS'keyword_length'
p3974
g3
((lp3975
g423
atp3976
Rp3977
sS'encoding'
p3978
g3
((lp3979
g408
atp3980
Rp3981
sS'output_gamma'
p3982
g3
((lp3983
g423
ag408
atp3984
Rp3985
sS'next_out'
p3986
g3
((lp3987
g413
ag408
atp3988
Rp3989
sS'done'
p3990
g3
((lp3991
g423
atp3992
Rp3993
sS'chunk_string'
p3994
g3
((lp3995
g423
ag408
atp3996
Rp3997
sS'vpag_chunk_data'
p3998
g3
((lp3999
g423
atp4000
Rp4001
sS'palette_lookup'
p4002
g3
((lp4003
g413
ag408
atp4004
Rp4005
sS'X0'
p4006
g3
((lp4007
g423
ag408
atp4008
Rp4009
sS'X1'
p4010
g3
((lp4011
g423
ag408
atp4012
Rp4013
sS'png_build_gamma_table'
p4014
g3
((lp4015
g418
atp4016
Rp4017
sS'scal_s_width'
p4018
g3
((lp4019
g413
atp4020
Rp4021
sS'option'
p4022
g3
((lp4023
g408
atp4024
Rp4025
sS'parm'
p4026
g3
((lp4027
g423
atp4028
Rp4029
sS'png_read_filter_row_sub3_sse2'
p4030
g3
((lp4031
g418
atp4032
Rp4033
sS'b'
p4034
g3
((lp4035
g423
ag408
atp4036
Rp4037
sS'png_check_fp_number'
p4038
g3
((lp4039
g418
atp4040
Rp4041
sS'lzsize'
p4042
g3
((lp4043
g423
atp4044
Rp4045
sS'jmp_buf_size'
p4046
g3
((lp4047
g413
ag408
atp4048
Rp4049
sS'png_set_hIST'
p4050
g3
((lp4051
g418
atp4052
Rp4053
sS'png_icc_tag_name'
p4054
g3
((lp4055
g418
atp4056
Rp4057
sS'str'
p4058
g3
((lp4059
g423
atp4060
Rp4061
sS'png_get_error_ptr'
p4062
g3
((lp4063
g418
atp4064
Rp4065
sS'png_image_read_composite'
p4066
g3
((lp4067
g418
atp4068
Rp4069
sS'iout'
p4070
g3
((lp4071
g423
atp4072
Rp4073
sS'read_user_callback'
p4074
g3
((lp4075
g418
atp4076
Rp4077
sS'file_name'
p4078
g3
((lp4079
g413
ag408
atp4080
Rp4081
sS'row_mask'
p4082
g3
((lp4083
g423
atp4084
Rp4085
sS'read_ptr'
p4086
g3
((lp4087
g423
atp4088
Rp4089
sS'png_set_sBIT'
p4090
g3
((lp4091
g418
atp4092
Rp4093
sS'unit_type'
p4094
g3
((lp4095
g423
ag408
atp4096
Rp4097
sS'zfree'
p4098
g3
((lp4099
g413
atp4100
Rp4101
sS'istop'
p4102
g3
((lp4103
g423
atp4104
Rp4105
sS'png_push_handle_zTXt'
p4106
g3
((lp4107
g418
atp4108
Rp4109
sS'palette_size'
p4110
g3
((lp4111
g423
atp4112
Rp4113
sS'png_convert_to_rfc1123'
p4114
g3
((lp4115
g418
atp4116
Rp4117
sS'png_app_error'
p4118
g3
((lp4119
g418
atp4120
Rp4121
sS'read_user_chunk_fn'
p4122
g3
((lp4123
g413
ag408
atp4124
Rp4125
sS'bit_depth'
p4126
g3
((lp4127
g413
ag423
ag408
atp4128
Rp4129
sS'png_image_read_background'
p4130
g3
((lp4131
g418
atp4132
Rp4133
sS'num_exif'
p4134
g3
((lp4135
g413
ag408
atp4136
Rp4137
sS'alpha'
p4138
g3
((lp4139
g413
ag423
ag408
atp4140
Rp4141
sS'file_gamma'
p4142
g3
((lp4143
g423
ag408
atp4144
Rp4145
sS'chunk_bytes'
p4146
g3
((lp4147
g408
atp4148
Rp4149
sS'info_format'
p4150
g3
((lp4151
g423
atp4152
Rp4153
sS'clead'
p4154
g3
((lp4155
g423
atp4156
Rp4157
sS'png_reset_crc'
p4158
g3
((lp4159
g418
atp4160
Rp4161
sS'wlen'
p4162
g3
((lp4163
g423
atp4164
Rp4165
sS'row_data'
p4166
g3
((lp4167
g408
atp4168
Rp4169
sS'png_set_unknown_chunk_location'
p4170
g3
((lp4171
g418
atp4172
Rp4173
sS'png_create_write_struct'
p4174
g3
((lp4175
g418
atp4176
Rp4177
sS'png_do_unpack'
p4178
g3
((lp4179
g418
atp4180
Rp4181
sS'png_text_compress'
p4182
g3
((lp4183
g418
atp4184
Rp4185
sS'png_get_pHYs'
p4186
g3
((lp4187
g418
atp4188
Rp4189
sS'png_set_cHRM'
p4190
g3
((lp4191
g418
atp4192
Rp4193
sS'png_set_alpha_mode_fixed'
p4194
g3
((lp4195
g418
atp4196
Rp4197
sS'png_read_filter_row_avg3_sse2'
p4198
g3
((lp4199
g418
atp4200
Rp4201
sS'half_z_window_size'
p4202
g3
((lp4203
g423
atp4204
Rp4205
sS'big_row_buf'
p4206
g3
((lp4207
g413
atp4208
Rp4209
sS'input_gamma_default'
p4210
g3
((lp4211
g423
atp4212
Rp4213
sS'png_image_free_function'
p4214
g3
((lp4215
g418
atp4216
Rp4217
sS'number_buf'
p4218
g3
((lp4219
g423
atp4220
Rp4221
sS'user_chunk_malloc_max'
p4222
g3
((lp4223
g413
ag408
atp4224
Rp4225
sS'crc'
p4226
g3
((lp4227
g413
ag423
atp4228
Rp4229
sS'x'
p4230
g3
((lp4231
g408
atp4232
Rp4233
sS'num_chunks_in'
p4234
g3
((lp4235
g408
atp4236
Rp4237
sS'interlace_type'
p4238
g3
((lp4239
g413
ag423
ag408
atp4240
Rp4241
sS'png_read_filter_row_sub'
p4242
g3
((lp4243
g418
atp4244
Rp4245
sS'arg'
p4246
g3
((lp4247
g408
atp4248
Rp4249
sS'png_pass_inc'
p4250
g3
((lp4251
g423
atp4252
Rp4253
sS'window_bits'
p4254
g3
((lp4255
g423
ag408
atp4256
Rp4257
sS'smallest'
p4258
g3
((lp4259
g423
atp4260
Rp4261
sS'png_do_read_transformations'
p4262
g3
((lp4263
g418
atp4264
Rp4265
sS'row_stride'
p4266
g3
((lp4267
g413
ag408
atp4268
Rp4269
sS'image_in'
p4270
g3
((lp4271
g408
atp4272
Rp4273
sS'res_x'
p4274
g3
((lp4275
g423
ag408
atp4276
Rp4277
sS'res_y'
p4278
g3
((lp4279
g423
ag408
atp4280
Rp4281
sS'png_get_header_ver'
p4282
g3
((lp4283
g418
atp4284
Rp4285
sS'png_get_color_type'
p4286
g3
((lp4287
g418
atp4288
Rp4289
sS'c'
p4290
g3
((lp4291
g423
ag408
atp4292
Rp4293
sS'png_do_read_intrapixel'
p4294
g3
((lp4295
g418
atp4296
Rp4297
sS'last'
p4298
g3
((lp4299
g423
atp4300
Rp4301
sS'png_image_error'
p4302
g3
((lp4303
g418
atp4304
Rp4305
sS'png_set_compression_method'
p4306
g3
((lp4307
g418
atp4308
Rp4309
sS'png_get_PLTE'
p4310
g3
((lp4311
g418
atp4312
Rp4313
sS'png_colorspace_set_xy_and_XYZ'
p4314
g3
((lp4315
g418
atp4316
Rp4317
sS'inlist'
p4318
g3
((lp4319
g423
atp4320
Rp4321
sS'png_do_strip_channel'
p4322
g3
((lp4323
g418
atp4324
Rp4325
sS'alphabyte'
p4326
g3
((lp4327
g423
atp4328
Rp4329
sS'is_negative'
p4330
g3
((lp4331
g423
atp4332
Rp4333
sS'newlength'
p4334
g3
((lp4335
g408
atp4336
Rp4337
sS'png_pass_start'
p4338
g3
((lp4339
g423
atp4340
Rp4341
sS'png_set_eXIf_1'
p4342
g3
((lp4343
g418
atp4344
Rp4345
sS'png_colorspace_check_xy'
p4346
g3
((lp4347
g418
atp4348
Rp4349
sS'png_muldiv'
p4350
g3
((lp4351
g418
atp4352
Rp4353
sS'pp'
p4354
g3
((lp4355
g423
ag408
atp4356
Rp4357
sS'pw'
p4358
g3
((lp4359
g423
atp4360
Rp4361
sS'png_get_user_width_max'
p4362
g3
((lp4363
g418
atp4364
Rp4365
sS'png_image_free'
p4366
g3
((lp4367
g418
atp4368
Rp4369
sS'strategy'
p4370
g3
((lp4371
g423
ag408
atp4372
Rp4373
sS'pb'
p4374
g3
((lp4375
g423
atp4376
Rp4377
sS'pc'
p4378
g3
((lp4379
g423
atp4380
Rp4381
sS'flush_dist'
p4382
g3
((lp4383
g413
atp4384
Rp4385
sS'pd'
p4386
g3
((lp4387
g423
atp4388
Rp4389
sS'precision'
p4390
g3
((lp4391
g408
atp4392
Rp4393
sS'tag_count'
p4394
g3
((lp4395
g423
atp4396
Rp4397
sS'png_set_iCCP'
p4398
g3
((lp4399
g418
atp4400
Rp4401
sS'error_parameters'
p4402
g3
((lp4403
g423
atp4404
Rp4405
sS'convert_gamma_value'
p4406
g3
((lp4407
g418
atp4408
Rp4409
sS'chunks_to_process'
p4410
g3
((lp4411
g423
atp4412
Rp4413
sS'png_image_write_memory'
p4414
g3
((lp4415
g418
atp4416
Rp4417
sS'png_do_gray_to_rgb'
p4418
g3
((lp4419
g418
atp4420
Rp4421
sS'palette_to_index'
p4422
g3
((lp4423
g413
atp4424
Rp4425
sS'error'
p4426
g3
((lp4427
g423
ag408
atp4428
Rp4429
sS'short_months'
p4430
g3
((lp4431
g423
atp4432
Rp4433
sS'errmsg'
p4434
g3
((lp4435
g423
atp4436
Rp4437
sS'twobppswaptable'
p4438
g3
((lp4439
g423
atp4440
Rp4441
sS'png_fixed_inches_from_microns'
p4442
g3
((lp4443
g418
atp4444
Rp4445
sS'png_do_unshift'
p4446
g3
((lp4447
g418
atp4448
Rp4449
sS'png_push_have_end'
p4450
g3
((lp4451
g418
atp4452
Rp4453
sS'write_sTER_chunk'
p4454
g3
((lp4455
g418
atp4456
Rp4457
sS'png_get_channels'
p4458
g3
((lp4459
g418
atp4460
Rp4461
sS'bad_character'
p4462
g3
((lp4463
g423
atp4464
Rp4465
sS'old_num_text'
p4466
g3
((lp4467
g423
atp4468
Rp4469
sS'lengthw'
p4470
g3
((lp4471
g423
atp4472
Rp4473
sS'png_do_check_palette_indexes'
p4474
g3
((lp4475
g418
atp4476
Rp4477
sS'is_ICC_signature'
p4478
g3
((lp4479
g418
atp4480
Rp4481
sS'png_write_compressed_data_out'
p4482
g3
((lp4483
g418
atp4484
Rp4485
sS'png_push_read_chunk'
p4486
g3
((lp4487
g418
atp4488
Rp4489
sS'ndigits'
p4490
g3
((lp4491
g423
atp4492
Rp4493
sS'png_handle_bKGD'
p4494
g3
((lp4495
g418
atp4496
Rp4497
sS'purpose'
p4498
g3
((lp4499
g423
ag408
atp4500
Rp4501
sS'iwidth'
p4502
g3
((lp4503
g413
ag423
atp4504
Rp4505
sS'png_set_tRNS_to_alpha'
p4506
g3
((lp4507
g418
atp4508
Rp4509
sS'png_get_signature'
p4510
g3
((lp4511
g418
atp4512
Rp4513
sS'flags'
p4514
g3
((lp4515
g413
ag408
atp4516
Rp4517
sS'png_set_alpha_mode'
p4518
g3
((lp4519
g418
atp4520
Rp4521
sS'y'
p4522
g3
((lp4523
g423
atp4524
Rp4525
sS'entry'
p4526
g3
((lp4527
g423
atp4528
Rp4529
sS'png_write_sCAL_s'
p4530
g3
((lp4531
g418
atp4532
Rp4533
sS'png_do_read_interlace'
p4534
g3
((lp4535
g418
atp4536
Rp4537
sS'write_user_transform_fn'
p4538
g3
((lp4539
g413
ag408
atp4540
Rp4541
sS'spalette'
p4542
g3
((lp4543
g408
atp4544
Rp4545
sS'chunks_to_ignore'
p4546
g3
((lp4547
g423
atp4548
Rp4549
sS'is_ICC_signature_char'
p4550
g3
((lp4551
g418
atp4552
Rp4553
sS'png_get_sRGB'
p4554
g3
((lp4555
g418
atp4556
Rp4557
sS'png_write_pCAL'
p4558
g3
((lp4559
g418
atp4560
Rp4561
sS'count_zero_samples'
p4562
g3
((lp4563
g418
atp4564
Rp4565
sS'location'
p4566
g3
((lp4567
g413
ag423
ag408
atp4568
Rp4569
sS'input'
p4570
g3
((lp4571
g413
ag408
atp4572
Rp4573
sS'remaining'
p4574
g3
((lp4575
g423
atp4576
Rp4577
sS'format'
p4578
g3
((lp4579
g413
ag423
ag408
atp4580
Rp4581
sS'zlib_set_window_bits'
p4582
g3
((lp4583
g413
atp4584
Rp4585
sS'unknown_chunks_num'
p4586
g3
((lp4587
g413
atp4588
Rp4589
sS'cur_palette'
p4590
g3
((lp4591
g413
atp4592
Rp4593
sS'd'
p4594
g3
((lp4595
g423
atp4596
Rp4597
sS'afirst'
p4598
g3
((lp4599
g423
atp4600
Rp4601
sS'trans_gray'
p4602
g3
((lp4603
g423
atp4604
Rp4605
sS'filtered_row'
p4606
g3
((lp4607
g408
atp4608
Rp4609
sS'png_set_background'
p4610
g3
((lp4611
g418
atp4612
Rp4613
sS'set_location'
p4614
g3
((lp4615
g418
atp4616
Rp4617
sS'png_push_handle_tEXt'
p4618
g3
((lp4619
g418
atp4620
Rp4621
sS'lang_len'
p4622
g3
((lp4623
g423
atp4624
Rp4625
sS'back'
p4626
g3
((lp4627
g423
ag408
atp4628
Rp4629
sS'zlib_set_level'
p4630
g3
((lp4631
g413
atp4632
Rp4633
sS'base_format'
p4634
g3
((lp4635
g423
atp4636
Rp4637
sS'output_len'
p4638
g3
((lp4639
g413
ag423
atp4640
Rp4641
sS'png_write_chunk_end'
p4642
g3
((lp4643
g418
atp4644
Rp4645
sS'png_fixed'
p4646
g3
((lp4647
g418
atp4648
Rp4649
sS'is_screen'
p4650
g3
((lp4651
g408
atp4652
Rp4653
sS'png_handle_oFFs'
p4654
g3
((lp4655
g418
atp4656
Rp4657
sS'png_set_text_compression_method'
p4658
g3
((lp4659
g418
atp4660
Rp4661
sS'png_set_longjmp_fn'
p4662
g3
((lp4663
g418
atp4664
Rp4665
sS'proc'
p4666
g3
((lp4667
g423
atp4668
Rp4669
sS'expand_tRNS'
p4670
g3
((lp4671
g423
atp4672
Rp4673
sS'blue_scale'
p4674
g3
((lp4675
g423
atp4676
Rp4677
sS'bc'
p4678
g3
((lp4679
g423
atp4680
Rp4681
sS'step'
p4682
g3
((lp4683
g423
atp4684
Rp4685
sS'bp'
p4686
g3
((lp4687
g423
atp4688
Rp4689
sS'num_to_check'
p4690
g3
((lp4691
g423
ag408
atp4692
Rp4693
sS'from'
p4694
g3
((lp4695
g408
atp4696
Rp4697
sS'true_bits'
p4698
g3
((lp4699
g408
atp4700
Rp4701
sS'green_low'
p4702
g3
((lp4703
g423
atp4704
Rp4705
sS'optimize'
p4706
g3
((lp4707
g423
atp4708
Rp4709
sS'png_setup_up_row'
p4710
g3
((lp4711
g418
atp4712
Rp4713
sS'background_gamma_code'
p4714
g3
((lp4715
g408
atp4716
Rp4717
sS'png_get_image_height'
p4718
g3
((lp4719
g418
atp4720
Rp4721
sS'bgr'
p4722
g3
((lp4723
g423
atp4724
Rp4725
sS'cmap'
p4726
g3
((lp4727
g423
atp4728
Rp4729
sS'ppi_from_ppm'
p4730
g3
((lp4731
g418
atp4732
Rp4733
sS'read_filter'
p4734
g3
((lp4735
g413
atp4736
Rp4737
sS'png_push_process_row'
p4738
g3
((lp4739
g418
atp4740
Rp4741
sS'gamma'
p4742
g3
((lp4743
g413
ag423
atp4744
Rp4745
sS'input_size_ptr'
p4746
g3
((lp4747
g408
atp4748
Rp4749
sS'index_to_palette'
p4750
g3
((lp4751
g413
atp4752
Rp4753
sS'hi_filler'
p4754
g3
((lp4755
g423
atp4756
Rp4757
sS'user_transform_ptr'
p4758
g3
((lp4759
g413
ag408
atp4760
Rp4761
sS'swidth'
p4762
g3
((lp4763
g423
ag408
atp4764
Rp4765
sS'zlib_set_method'
p4766
g3
((lp4767
g413
atp4768
Rp4769
sS'png_chunk_unknown_handling'
p4770
g3
((lp4771
g418
atp4772
Rp4773
sS'png_chunk_warning'
p4774
g3
((lp4775
g418
atp4776
Rp4777
sS'png_set_tRNS'
p4778
g3
((lp4779
g418
atp4780
Rp4781
sS'png_read_rows'
p4782
g3
((lp4783
g418
atp4784
Rp4785
sS'relaxed'
p4786
g3
((lp4787
g423
atp4788
Rp4789
sS'delta'
p4790
g3
((lp4791
g408
atp4792
Rp4793
sS'end_points_XYZ'
p4794
g3
((lp4795
g413
atp4796
Rp4797
sS'rgb_to_gray_coefficients_set'
p4798
g3
((lp4799
g413
atp4800
Rp4801
sS'up'
p4802
g3
((lp4803
g423
atp4804
Rp4805
sS'png_get_chunk_malloc_max'
p4806
g3
((lp4807
g418
atp4808
Rp4809
sS'msb'
p4810
g3
((lp4811
g423
atp4812
Rp4813
sS'png_get_text'
p4814
g3
((lp4815
g418
atp4816
Rp4817
sS'abs_i16'
p4818
g3
((lp4819
g418
atp4820
Rp4821
sS'm'
p4822
g3
((lp4823
g423
atp4824
Rp4825
sS'png_pow10'
p4826
g3
((lp4827
g418
atp4828
Rp4829
sS'green_y'
p4830
g3
((lp4831
g423
ag408
atp4832
Rp4833
sS'green_x'
p4834
g3
((lp4835
g423
ag408
atp4836
Rp4837
sS'make_ga_colormap'
p4838
g3
((lp4839
g418
atp4840
Rp4841
sS'eXIf_buf'
p4842
g3
((lp4843
g413
ag408
atp4844
Rp4845
sS'icc_check_length'
p4846
g3
((lp4847
g418
atp4848
Rp4849
sS'tptr'
p4850
g3
((lp4851
g423
atp4852
Rp4853
sS'green_Z'
p4854
g3
((lp4855
g413
ag408
atp4856
Rp4857
sS'green_Y'
p4858
g3
((lp4859
g413
ag408
atp4860
Rp4861
sS'green_X'
p4862
g3
((lp4863
g413
ag408
atp4864
Rp4865
sS'final_width'
p4866
g3
((lp4867
g423
atp4868
Rp4869
sS'png_process_some_data'
p4870
g3
((lp4871
g418
atp4872
Rp4873
sS'green_1'
p4874
g3
((lp4875
g423
atp4876
Rp4877
sS'png_colorspace_set_endpoints'
p4878
g3
((lp4879
g418
atp4880
Rp4881
sS'png_image_begin_read_from_stdio'
p4882
g3
((lp4883
g418
atp4884
Rp4885
sS'quantize_sort'
p4886
g3
((lp4887
g413
atp4888
Rp4889
sS'lang'
p4890
g3
((lp4891
g413
ag408
atp4892
Rp4893
sS's_inc'
p4894
g3
((lp4895
g423
atp4896
Rp4897
sS'e'
p4898
g3
((lp4899
g408
atp4900
Rp4901
sS'vpAg_width'
p4902
g3
((lp4903
g413
atp4904
Rp4905
sS'png_build_16bit_table'
p4906
g3
((lp4907
g418
atp4908
Rp4909
sS'png_image_read_header'
p4910
g3
((lp4911
g418
atp4912
Rp4913
sS'depth'
p4914
g3
((lp4915
g413
atp4916
Rp4917
sS'best_row'
p4918
g3
((lp4919
g423
atp4920
Rp4921
sS'gs'
p4922
g3
((lp4923
g423
atp4924
Rp4925
sS'png_get_header_version'
p4926
g3
((lp4927
g418
atp4928
Rp4929
sS'png_setup_up_row_only'
p4930
g3
((lp4931
g418
atp4932
Rp4933
sS'gc'
p4934
g3
((lp4935
g423
atp4936
Rp4937
sS'compose'
p4938
g3
((lp4939
g423
atp4940
Rp4941
sS'cdigits'
p4942
g3
((lp4943
g423
atp4944
Rp4945
sS'num_blue'
p4946
g3
((lp4947
g423
atp4948
Rp4949
sS'png_set_oFFs'
p4950
g3
((lp4951
g418
atp4952
Rp4953
sS'png_process_data_skip'
p4954
g3
((lp4955
g418
atp4956
Rp4957
sS'tIME_chunk_present'
p4958
g3
((lp4959
g423
atp4960
Rp4961
sS'have_md5'
p4962
g3
((lp4963
g413
atp4964
Rp4965
sS'z_cmf'
p4966
g3
((lp4967
g423
atp4968
Rp4969
sS'zlib_set_mem_level'
p4970
g3
((lp4971
g413
atp4972
Rp4973
sS'png_read_end'
p4974
g3
((lp4975
g418
atp4976
Rp4977
sS'png_push_handle_iTXt'
p4978
g3
((lp4979
g418
atp4980
Rp4981
sS'png_info_struct_size'
p4982
g3
((lp4983
g408
atp4984
Rp4985
sS'gamma_correction'
p4986
g3
((lp4987
g423
atp4988
Rp4989
sS'png_do_invert'
p4990
g3
((lp4991
g418
atp4992
Rp4993
sS'recip'
p4994
g3
((lp4995
g423
atp4996
Rp4997
sS'png_set_crc_action'
p4998
g3
((lp4999
g418
atp5000
Rp5001
sS'num_pass'
p5002
g3
((lp5003
g423
atp5004
Rp5005
sS'png_gamma_not_sRGB'
p5006
g3
((lp5007
g418
atp5008
Rp5009
sS'png_set_user_transform_info'
p5010
g3
((lp5011
g418
atp5012
Rp5013
sS'rp_end'
p5014
g3
((lp5015
g423
atp5016
Rp5017
sS'vpAg_height'
p5018
g3
((lp5019
g413
atp5020
Rp5021
sS'output_bytes'
p5022
g3
((lp5023
g413
atp5024
Rp5025
sS'tmpbuf'
p5026
g3
((lp5027
g423
atp5028
Rp5029
sS'index'
p5030
g3
((lp5031
g413
atp5032
Rp5033
sS'png_row_stride'
p5034
g3
((lp5035
g423
atp5036
Rp5037
sS'png_sRGB_table'
p5038
g3
((lp5039
g423
atp5040
Rp5041
sS'row_factor'
p5042
g3
((lp5043
g423
atp5044
Rp5045
sS'png_do_write_invert_alpha'
p5046
g3
((lp5047
g418
atp5048
Rp5049
sS'opaque'
p5050
g3
((lp5051
g413
atp5052
Rp5053
sS'scal_s_height'
p5054
g3
((lp5055
g413
atp5056
Rp5057
sS'old_row'
p5058
g3
((lp5059
g408
atp5060
Rp5061
sS'saved_error_buf'
p5062
g3
((lp5063
g423
atp5064
Rp5065
sS'png_warning'
p5066
g3
((lp5067
g418
atp5068
Rp5069
sS'png_handle_iTXt'
p5070
g3
((lp5071
g418
atp5072
Rp5073
sS'png_sRGB_checks'
p5074
g3
((lp5075
g423
atp5076
Rp5077
sS'prefix_size'
p5078
g3
((lp5079
g408
atp5080
Rp5081
sS'num_text'
p5082
g3
((lp5083
g413
ag423
ag408
atp5084
Rp5085
sS'len'
p5086
g3
((lp5087
g423
atp5088
Rp5089
sS'screen_gamma'
p5090
g3
((lp5091
g413
ag408
atp5092
Rp5093
sS'quantize_index'
p5094
g3
((lp5095
g413
atp5096
Rp5097
sS'png_sRGB_base'
p5098
g3
((lp5099
g423
atp5100
Rp5101
sS'warning_count'
p5102
g3
((lp5103
g423
atp5104
Rp5105
sS'iheight'
p5106
g3
((lp5107
g423
atp5108
Rp5109
sS'png_check_IHDR'
p5110
g3
((lp5111
g418
atp5112
Rp5113
sS'transformations'
p5114
g3
((lp5115
g413
ag408
atp5116
Rp5117
sS'sshift'
p5118
g3
((lp5119
g423
atp5120
Rp5121
sS'redy'
p5122
g3
((lp5123
g413
atp5124
Rp5125
sS'redx'
p5126
g3
((lp5127
g413
atp5128
Rp5129
sS'write_info_ptr'
p5130
g3
((lp5131
g423
atp5132
Rp5133
sS'png_create_colormap_entry'
p5134
g3
((lp5135
g418
atp5136
Rp5137
sS'process_mode'
p5138
g3
((lp5139
g413
atp5140
Rp5141
sS'pcal_X0'
p5142
g3
((lp5143
g413
atp5144
Rp5145
sS'pcal_X1'
p5146
g3
((lp5147
g413
atp5148
Rp5149
sS'input_row'
p5150
g3
((lp5151
g423
atp5152
Rp5153
sS'png_do_packswap'
p5154
g3
((lp5155
g418
atp5156
Rp5157
sS'png_handle_zTXt'
p5158
g3
((lp5159
g418
atp5160
Rp5161
sS'png_set_gAMA'
p5162
g3
((lp5163
g418
atp5164
Rp5165
sS'png_set_sCAL'
p5166
g3
((lp5167
g418
atp5168
Rp5169
sS'next'
p5170
g3
((lp5171
g413
ag423
atp5172
Rp5173
sS'my_user_chunk_data'
p5174
g3
((lp5175
g423
atp5176
Rp5177
sS'png_struct_def'
p5178
g3
((lp5179
g407
atp5180
Rp5181
sS'end_info_ptr'
p5182
g3
((lp5183
g423
atp5184
Rp5185
sS'int_blue_y'
p5186
g3
((lp5187
g408
atp5188
Rp5189
sS'int_blue_x'
p5190
g3
((lp5191
g408
atp5192
Rp5193
sS'cmap_entries'
p5194
g3
((lp5195
g423
atp5196
Rp5197
sS'png_set_scale_16'
p5198
g3
((lp5199
g418
atp5200
Rp5201
sS'iin'
p5202
g3
((lp5203
g423
atp5204
Rp5205
sS'override_file_gamma'
p5206
g3
((lp5207
g408
atp5208
Rp5209
sS'png_format_number'
p5210
g3
((lp5211
g418
atp5212
Rp5213
sS'png_colorspace_sync'
p5214
g3
((lp5215
g418
atp5216
Rp5217
sS'f'
p5218
g3
((lp5219
g423
atp5220
Rp5221
sS'read_info_ptr'
p5222
g3
((lp5223
g423
atp5224
Rp5225
sS'int_blue_Y'
p5226
g3
((lp5227
g408
atp5228
Rp5229
sS'int_blue_X'
p5230
g3
((lp5231
g408
atp5232
Rp5233
sS'int_blue_Z'
p5234
g3
((lp5235
g408
atp5236
Rp5237
sS'unknowns'
p5238
g3
((lp5239
g423
ag408
atp5240
Rp5241
sS'png_error'
p5242
g3
((lp5243
g418
atp5244
Rp5245
sS'x_offset'
p5246
g3
((lp5247
g413
ag408
atp5248
Rp5249
sS'big_prev_row'
p5250
g3
((lp5251
g413
atp5252
Rp5253
sS'control'
p5254
g3
((lp5255
g423
atp5256
Rp5257
sS'pcal_units'
p5258
g3
((lp5259
g413
atp5260
Rp5261
sS'info_ptr'
p5262
g3
((lp5263
g413
ag423
ag408
atp5264
Rp5265
sS'png_permit_mng_features'
p5266
g3
((lp5267
g418
atp5268
Rp5269
sS'tag'
p5270
g3
((lp5271
g423
ag408
atp5272
Rp5273
sS'white_y'
p5274
g3
((lp5275
g423
ag408
atp5276
Rp5277
sS'white_x'
p5278
g3
((lp5279
g423
ag408
atp5280
Rp5281
sS'foreground_encoding'
p5282
g3
((lp5283
g408
atp5284
Rp5285
sS'int_white_y'
p5286
g3
((lp5287
g408
atp5288
Rp5289
sS'png_get_libpng_ver'
p5290
g3
((lp5291
g418
atp5292
Rp5293
sS'png_get_pHYs_dpi'
p5294
g3
((lp5295
g418
atp5296
Rp5297
sS'sig'
p5298
g3
((lp5299
g408
atp5300
Rp5301
sS'max_palette_length'
p5302
g3
((lp5303
g423
atp5304
Rp5305
sS'profile'
p5306
g3
((lp5307
g423
ag408
atp5308
Rp5309
sS'longjmp_fn'
p5310
g3
((lp5311
g413
ag408
atp5312
Rp5313
sS'png_unknown_chunk_t'
p5314
g3
((lp5315
g407
atp5316
Rp5317
sS'tIME_string'
p5318
g3
((lp5319
g423
atp5320
Rp5321
sS'png_destroy_png_struct'
p5322
g3
((lp5323
g418
atp5324
Rp5325
sS'tm_mday'
p5326
g3
((lp5327
g413
atp5328
Rp5329
sS'write_row_callback'
p5330
g3
((lp5331
g418
atp5332
Rp5333
sS'retval'
p5334
g3
((lp5335
g423
atp5336
Rp5337
sS'png_read_data'
p5338
g3
((lp5339
g418
atp5340
Rp5341
sS'png_icc_check_length'
p5342
g3
((lp5343
g418
atp5344
Rp5345
sS'int_red_y'
p5346
g3
((lp5347
g408
atp5348
Rp5349
sS'out_size'
p5350
g3
((lp5351
g408
atp5352
Rp5353
sS'int_red_x'
p5354
g3
((lp5355
g408
atp5356
Rp5357
sS'prefix_len'
p5358
g3
((lp5359
g423
ag408
atp5360
Rp5361
sS'dt'
p5362
g3
((lp5363
g423
atp5364
Rp5365
sS'le'
p5366
g3
((lp5367
g423
atp5368
Rp5369
sS'new_text'
p5370
g3
((lp5371
g423
atp5372
Rp5373
sS'old_num_chunks'
p5374
g3
((lp5375
g423
atp5376
Rp5377
sS'lo'
p5378
g3
((lp5379
g423
atp5380
Rp5381
sS'png_icc_check_header'
p5382
g3
((lp5383
g418
atp5384
Rp5385
sS'lp'
p5386
g3
((lp5387
g423
atp5388
Rp5389
sS'png_do_write_swap_alpha'
p5390
g3
((lp5391
g418
atp5392
Rp5393
sS'onebppswaptable'
p5394
g3
((lp5395
g423
atp5396
Rp5397
sS'image'
p5398
g3
((lp5399
g413
ag423
ag408
atp5400
Rp5401
sS'png_inflate_claim'
p5402
g3
((lp5403
g418
atp5404
Rp5405
sS'element_size'
p5406
g3
((lp5407
g408
atp5408
Rp5409
sS'png_free'
p5410
g3
((lp5411
g418
atp5412
Rp5413
sS'day'
p5414
g3
((lp5415
g413
atp5416
Rp5417
sS'png_xy'
p5418
g3
((lp5419
g407
atp5420
Rp5421
sS'png_crc_finish'
p5422
g3
((lp5423
g418
atp5424
Rp5425
sS'tran'
p5426
g3
((lp5427
g408
atp5428
Rp5429
sS'mode'
p5430
g3
((lp5431
g413
ag423
ag408
atp5432
Rp5433
sS'buffer_length'
p5434
g3
((lp5435
g408
atp5436
Rp5437
sS'output_size_ptr'
p5438
g3
((lp5439
g408
atp5440
Rp5441
sS'chunk'
p5442
g3
((lp5443
g408
atp5444
Rp5445
sS'spare_byte'
p5446
g3
((lp5447
g413
atp5448
Rp5449
sS'frequency'
p5450
g3
((lp5451
g413
atp5452
Rp5453
sS'png_set_sPLT'
p5454
g3
((lp5455
g418
atp5456
Rp5457
sS'jmp_buf_ptr'
p5458
g3
((lp5459
g413
atp5460
Rp5461
sS'splt_palettes'
p5462
g3
((lp5463
g413
atp5464
Rp5465
sS'out'
p5466
g3
((lp5467
g423
ag408
atp5468
Rp5469
sS'res'
p5470
g3
((lp5471
g423
ag408
atp5472
Rp5473
sS'req'
p5474
g3
((lp5475
g423
atp5476
Rp5477
sS'png_inflate'
p5478
g3
((lp5479
g418
atp5480
Rp5481
sS'red'
p5482
g3
((lp5483
g413
ag423
ag408
atp5484
Rp5485
sS'int_red_Y'
p5486
g3
((lp5487
g408
atp5488
Rp5489
sS'int_red_X'
p5490
g3
((lp5491
g408
atp5492
Rp5493
sS'dmax'
p5494
g3
((lp5495
g423
atp5496
Rp5497
sS'val'
p5498
g3
((lp5499
g423
ag408
atp5500
Rp5501
sS'g'
p5502
g3
((lp5503
g423
ag408
atp5504
Rp5505
sS'png_read_filter_row_paeth3_sse2'
p5506
g3
((lp5507
g418
atp5508
Rp5509
sS'keep'
p5510
g3
((lp5511
g423
ag408
atp5512
Rp5513
sS'length'
p5514
g3
((lp5515
g413
ag423
ag408
atp5516
Rp5517
sS'png_default_warning'
p5518
g3
((lp5519
g418
atp5520
Rp5521
sS's_end'
p5522
g3
((lp5523
g423
atp5524
Rp5525
sS'owner'
p5526
g3
((lp5527
g408
atp5528
Rp5529
sS'fpout'
p5530
g3
((lp5531
g423
atp5532
Rp5533
sS'png_set_compression_window_bits'
p5534
g3
((lp5535
g418
atp5536
Rp5537
sS'strict'
p5538
g3
((lp5539
g423
atp5540
Rp5541
sS'data_length'
p5542
g3
((lp5543
g423
atp5544
Rp5545
sS'png_sPLT_entry_struct'
p5546
g3
((lp5547
g407
atp5548
Rp5549
sS'png_write_sig'
p5550
g3
((lp5551
g418
atp5552
Rp5553
sS'file_encoding'
p5554
g3
((lp5555
g413
atp5556
Rp5557
sS'tm_min'
p5558
g3
((lp5559
g413
atp5560
Rp5561
sS'current_buffer_size'
p5562
g3
((lp5563
g413
atp5564
Rp5565
sS'read_size'
p5566
g3
((lp5567
g408
atp5568
Rp5569
sS'listp'
p5570
g3
((lp5571
g408
atp5572
Rp5573
sS'png_write_PLTE'
p5574
g3
((lp5575
g418
atp5576
Rp5577
sS'XYZtemp'
p5578
g3
((lp5579
g423
atp5580
Rp5581
sS'png_destroy_info_struct'
p5582
g3
((lp5583
g418
atp5584
Rp5585
sS'png_crc_error'
p5586
g3
((lp5587
g418
atp5588
Rp5589
sS'step_row'
p5590
g3
((lp5591
g423
atp5592
Rp5593
sS'result'
p5594
g3
((lp5595
g423
atp5596
Rp5597
sS'int_green_Y'
p5598
g3
((lp5599
g408
atp5600
Rp5601
sS'int_green_X'
p5602
g3
((lp5603
g408
atp5604
Rp5605
sS'int_green_Z'
p5606
g3
((lp5607
g408
atp5608
Rp5609
sS'need'
p5610
g3
((lp5611
g408
atp5612
Rp5613
sS'png_info_init_3'
p5614
g3
((lp5615
g418
atp5616
Rp5617
sS'png_text_compress_init'
p5618
g3
((lp5619
g418
atp5620
Rp5621
sS'png_image_write_to_memory'
p5622
g3
((lp5623
g418
atp5624
Rp5625
sS'num_chunks'
p5626
g3
((lp5627
g423
ag408
atp5628
Rp5629
sS'int_green_y'
p5630
g3
((lp5631
g408
atp5632
Rp5633
sS'int_green_x'
p5634
g3
((lp5635
g408
atp5636
Rp5637
sS'png_image_write_main'
p5638
g3
((lp5639
g418
atp5640
Rp5641
sS'end_info_ptr_ptr'
p5642
g3
((lp5643
g408
atp5644
Rp5645
sS'png_image_finish_read'
p5646
g3
((lp5647
g418
atp5648
Rp5649
sS'read_buffer_size'
p5650
g3
((lp5651
g413
atp5652
Rp5653
sS'make_gray_colormap'
p5654
g3
((lp5655
g418
atp5656
Rp5657
sS'png_write_iCCP'
p5658
g3
((lp5659
g418
atp5660
Rp5661
sS'png_colorspace_check_XYZ'
p5662
g3
((lp5663
g418
atp5664
Rp5665
sS'png_push_read_sig'
p5666
g3
((lp5667
g418
atp5668
Rp5669
sS'text'
p5670
g3
((lp5671
g413
ag423
ag408
atp5672
Rp5673
sS'terminate'
p5674
g3
((lp5675
g408
atp5676
Rp5677
sS'png_set_text_compression_level'
p5678
g3
((lp5679
g418
atp5680
Rp5681
sS'scal_unit'
p5682
g3
((lp5683
g413
atp5684
Rp5685
sS'error_ptr'
p5686
g3
((lp5687
g413
ag408
atp5688
Rp5689
sS'png_image_memory_read'
p5690
g3
((lp5691
g418
atp5692
Rp5693
sS'gamma_to_linear'
p5694
g3
((lp5695
g413
atp5696
Rp5697
sS'png_cache_unknown_chunk'
p5698
g3
((lp5699
g418
atp5700
Rp5701
sS'png_set_read_status_fn'
p5702
g3
((lp5703
g418
atp5704
Rp5705
sS'png_create_read_struct_2'
p5706
g3
((lp5707
g418
atp5708
Rp5709
sS'free_fn'
p5710
g3
((lp5711
g413
ag408
atp5712
Rp5713
sS'color_type'
p5714
g3
((lp5715
g413
ag423
ag408
atp5716
Rp5717
sS'png_image_write_init'
p5718
g3
((lp5719
g418
atp5720
Rp5721
sS'nrows'
p5722
g3
((lp5723
g408
atp5724
Rp5725
sS'gray'
p5726
g3
((lp5727
g413
ag423
atp5728
Rp5729
sS'h'
p5730
g3
((lp5731
g423
atp5732
Rp5733
sS'profile_length'
p5734
g3
((lp5735
g423
ag408
atp5736
Rp5737
sS'png_read_image'
p5738
g3
((lp5739
g418
atp5740
Rp5741
sS'png_time_struct'
p5742
g3
((lp5743
g407
atp5744
Rp5745
sS'png_nonconst_ptr'
p5746
g3
((lp5747
g408
atp5748
Rp5749
sS'png_malloc'
p5750
g3
((lp5751
g418
atp5752
Rp5753
sS'max_text'
p5754
g3
((lp5755
g413
ag423
atp5756
Rp5757
sS'text_length'
p5758
g3
((lp5759
g413
ag423
atp5760
Rp5761
sS'png_get_bit_depth'
p5762
g3
((lp5763
g418
atp5764
Rp5765
sS'offset_unit_type'
p5766
g3
((lp5767
g413
atp5768
Rp5769
sS'png_setup_paeth_row'
p5770
g3
((lp5771
g418
atp5772
Rp5773
sS'gray16'
p5774
g3
((lp5775
g423
atp5776
Rp5777
sS'mng_features_permitted'
p5778
g3
((lp5779
g413
ag408
atp5780
Rp5781
sS'state'
p5782
g3
((lp5783
g423
atp5784
Rp5785
sS'png_get_y_offset_inches_fixed'
p5786
g3
((lp5787
g418
atp5788
Rp5789
sS'mem_ptr'
p5790
g3
((lp5791
g413
ag408
atp5792
Rp5793
sS'crc_bytes'
p5794
g3
((lp5795
g423
atp5796
Rp5797
sS'key'
p5798
g3
((lp5799
g413
ag423
ag408
atp5800
Rp5801
sS'background_gamma'
p5802
g3
((lp5803
g413
ag408
atp5804
Rp5805
sS'write_unknown_chunks'
p5806
g3
((lp5807
g418
atp5808
Rp5809
sS'png_image_read_init'
p5810
g3
((lp5811
g418
atp5812
Rp5813
sS'png_sig_cmp'
p5814
g3
((lp5815
g418
atp5816
Rp5817
sS'row_buf'
p5818
g3
((lp5819
g413
ag423
atp5820
Rp5821
sS'heuristic_method'
p5822
g3
((lp5823
g408
atp5824
Rp5825
sS'ch'
p5826
g3
((lp5827
g423
atp5828
Rp5829
sS'cn'
p5830
g3
((lp5831
g423
atp5832
Rp5833
sS'png_push_check_crc'
p5834
g3
((lp5835
g418
atp5836
Rp5837
sS'png_build_16to8_table'
p5838
g3
((lp5839
g418
atp5840
Rp5841
sS'png_rtran_ok'
p5842
g3
((lp5843
g418
atp5844
Rp5845
sS'table'
p5846
g3
((lp5847
g423
atp5848
Rp5849
sS'cp'
p5850
g3
((lp5851
g423
atp5852
Rp5853
sS's_start'
p5854
g3
((lp5855
g423
atp5856
Rp5857
sS'scal_width'
p5858
g3
((lp5859
g423
atp5860
Rp5861
sS'if_then_else'
p5862
g3
((lp5863
g418
atp5864
Rp5865
sS'png_longjmp'
p5866
g3
((lp5867
g418
atp5868
Rp5869
sS'iccp_proflen'
p5870
g3
((lp5871
g413
atp5872
Rp5873
sS'png_do_bgr'
p5874
g3
((lp5875
g418
atp5876
Rp5877
sS'png_set_gamma_fixed'
p5878
g3
((lp5879
g418
atp5880
Rp5881
sS'save_buffer_size'
p5882
g3
((lp5883
g413
atp5884
Rp5885
sS'finished'
p5886
g3
((lp5887
g423
atp5888
Rp5889
sS'png_set_palette_to_rgb'
p5890
g3
((lp5891
g418
atp5892
Rp5893
sS'rgb_error'
p5894
g3
((lp5895
g423
atp5896
Rp5897
sS'mod_time'
p5898
g3
((lp5899
g413
ag423
ag408
atp5900
Rp5901
sS'png_setup_paeth_row_only'
p5902
g3
((lp5903
g418
atp5904
Rp5905
sS'outrow'
p5906
g3
((lp5907
g423
atp5908
Rp5909
sS'read_row_fn'
p5910
g3
((lp5911
g413
ag408
atp5912
Rp5913
sS'png_handle_cHRM'
p5914
g3
((lp5915
g418
atp5916
Rp5917
sS'value'
p5918
g3
((lp5919
g423
ag408
atp5920
Rp5921
sS'sTER'
p5922
g3
((lp5923
g423
atp5924
Rp5925
sS'png_get_valid'
p5926
g3
((lp5927
g418
atp5928
Rp5929
sS'user_width_max'
p5930
g3
((lp5931
g413
ag408
atp5932
Rp5933
sS'png_compression_buffer'
p5934
g3
((lp5935
g407
atp5936
Rp5937
sS'chunk_tag'
p5938
g3
((lp5939
g423
atp5940
Rp5941
sS'D50_nCIEXYZ'
p5942
g3
((lp5943
g423
atp5944
Rp5945
sS'total_bits'
p5946
g3
((lp5947
g423
atp5948
Rp5949
sS'png_read_IDAT_data'
p5950
g3
((lp5951
g418
atp5952
Rp5953
sS'png_set_read_user_chunk_fn'
p5954
g3
((lp5955
g418
atp5956
Rp5957
sS'ptime'
p5958
g3
((lp5959
g408
atp5960
Rp5961
sS'gamma_value'
p5962
g3
((lp5963
g408
atp5964
Rp5965
sS'png_handle_as_unknown'
p5966
g3
((lp5967
g418
atp5968
Rp5969
sS'png_set_text_compression_mem_level'
p5970
g3
((lp5971
g418
atp5972
Rp5973
sS'png_write_tRNS'
p5974
g3
((lp5975
g418
atp5976
Rp5977
sS'avg'
p5978
g3
((lp5979
g423
atp5980
Rp5981
sS'png_push_read_IDAT'
p5982
g3
((lp5983
g418
atp5984
Rp5985
sS'avail_in'
p5986
g3
((lp5987
g413
ag423
atp5988
Rp5989
sS'png_handle_pCAL'
p5990
g3
((lp5991
g418
atp5992
Rp5993
sS'png_set_rgb_to_gray'
p5994
g3
((lp5995
g418
atp5996
Rp5997
sS'min_k'
p5998
g3
((lp5999
g423
atp6000
Rp6001
sS'min_d'
p6002
g3
((lp6003
g423
atp6004
Rp6005
sS'rendering_intent'
p6006
g3
((lp6007
g413
atp6008
Rp6009
sS'scrn_gamma'
p6010
g3
((lp6011
g408
atp6012
Rp6013
sS'inbuf'
p6014
g3
((lp6015
g423
atp6016
Rp6017
sS'png_write_png'
p6018
g3
((lp6019
g418
atp6020
Rp6021
sS'tm_hour'
p6022
g3
((lp6023
g413
atp6024
Rp6025
sS'xy_test'
p6026
g3
((lp6027
g423
atp6028
Rp6029
sS'back_alpha'
p6030
g3
((lp6031
g423
atp6032
Rp6033
sS'input_has_alpha'
p6034
g3
((lp6035
g423
atp6036
Rp6037
sS'max_dl'
p6038
g3
((lp6039
g423
atp6040
Rp6041
sS'i'
p6042
g3
((lp6043
g423
ag408
atp6044
Rp6045
sS'num_pal'
p6046
g3
((lp6047
g408
atp6048
Rp6049
sS'filler_loc'
p6050
g3
((lp6051
g408
atp6052
Rp6053
sS'user_height_max'
p6054
g3
((lp6055
g413
ag408
atp6056
Rp6057
sS'gray_low'
p6058
g3
((lp6059
g423
atp6060
Rp6061
sS'png_set_rows'
p6062
g3
((lp6063
g418
atp6064
Rp6065
sS'status_dots_requested'
p6066
g3
((lp6067
g423
atp6068
Rp6069
sS'row_pointers'
p6070
g3
((lp6071
g413
ag408
atp6072
Rp6073
sS'p_end'
p6074
g3
((lp6075
g423
atp6076
Rp6077
sS'dummy_ptr'
p6078
g3
((lp6079
g423
atp6080
Rp6081
sS'add'
p6082
g3
((lp6083
g423
ag408
atp6084
Rp6085
sS'prefix_length'
p6086
g3
((lp6087
g423
atp6088
Rp6089
sS'png_signature'
p6090
g3
((lp6091
g423
atp6092
Rp6093
sS'user_chunk_cache_max'
p6094
g3
((lp6095
g413
ag408
atp6096
Rp6097
sS'store4'
p6098
g3
((lp6099
g418
atp6100
Rp6101
sS'store3'
p6102
g3
((lp6103
g418
atp6104
Rp6105
sS'rgb_to_gray_green_coeff'
p6106
g3
((lp6107
g413
atp6108
Rp6109
sS'png_colorspace_set_ICC'
p6110
g3
((lp6111
g418
atp6112
Rp6113
sS'write_16bit'
p6114
g3
((lp6115
g423
atp6116
Rp6117
sS'png_warning_parameter'
p6118
g3
((lp6119
g418
atp6120
Rp6121
sS'height'
p6122
g3
((lp6123
g413
ag423
ag408
atp6124
Rp6125
sS'png_image_size'
p6126
g3
((lp6127
g418
atp6128
Rp6129
sS'png_set_keep_unknown_chunks'
p6130
g3
((lp6131
g418
atp6132
Rp6133
sS'new_iccp_name'
p6134
g3
((lp6135
g423
atp6136
Rp6137
sS'shift_dec'
p6138
g3
((lp6139
g423
atp6140
Rp6141
sS'png_write_sPLT'
p6142
g3
((lp6143
g418
atp6144
Rp6145
sS'png_do_expand_palette'
p6146
g3
((lp6147
g418
atp6148
Rp6149
sS'flush'
p6150
g3
((lp6151
g408
atp6152
Rp6153
sS'safe_length'
p6154
g3
((lp6155
g423
atp6156
Rp6157
sS'tmp'
p6158
g3
((lp6159
g423
atp6160
Rp6161
sS'png_read_finish_IDAT'
p6162
g3
((lp6163
g418
atp6164
Rp6165
sS'green_int'
p6166
g3
((lp6167
g423
atp6168
Rp6169
sS'colormap_entries'
p6170
g3
((lp6171
g413
atp6172
Rp6173
sS'progressive_ptr'
p6174
g3
((lp6175
g408
atp6176
Rp6177
sS'png_set_cHRM_XYZ'
p6178
g3
((lp6179
g418
atp6180
Rp6181
sS'make_gray_file_colormap'
p6182
g3
((lp6183
g418
atp6184
Rp6185
sS'malloc_fn'
p6186
g3
((lp6187
g413
ag408
atp6188
Rp6189
sS'info_rowbytes'
p6190
g3
((lp6191
g413
atp6192
Rp6193
sS'num_out'
p6194
g3
((lp6195
g423
atp6196
Rp6197
sS'dshift'
p6198
g3
((lp6199
g423
atp6200
Rp6201
sS'png_image_begin_read_from_file'
p6202
g3
((lp6203
g418
atp6204
Rp6205
sS'png_ascii_from_fp'
p6206
g3
((lp6207
g418
atp6208
Rp6209
sS'offset'
p6210
g3
((lp6211
g423
atp6212
Rp6213
sS'outbuf'
p6214
g3
((lp6215
g423
atp6216
Rp6217
sS'rgb_to_gray_status'
p6218
g3
((lp6219
g413
atp6220
Rp6221
sS'png_set_filter_heuristics_fixed'
p6222
g3
((lp6223
g418
atp6224
Rp6225
sS'aindex'
p6226
g3
((lp6227
g423
atp6228
Rp6229
sS'end_byte'
p6230
g3
((lp6231
g423
atp6232
Rp6233
sS'num_filters'
p6234
g3
((lp6235
g423
atp6236
Rp6237
sS'sbit'
p6238
g3
((lp6239
g408
atp6240
Rp6241
sS'png_compress_IDAT'
p6242
g3
((lp6243
g418
atp6244
Rp6245
sS'png_get_y_offset_pixels'
p6246
g3
((lp6247
g418
atp6248
Rp6249
sS'new_key'
p6250
g3
((lp6251
g423
ag408
atp6252
Rp6253
sS'blue_Z'
p6254
g3
((lp6255
g413
ag408
atp6256
Rp6257
sS'png_colormap_compose'
p6258
g3
((lp6259
g418
atp6260
Rp6261
sS'chunklength'
p6262
g3
((lp6263
g408
atp6264
Rp6265
sS'io_state'
p6266
g3
((lp6267
g413
atp6268
Rp6269
sS'splt_palettes_num'
p6270
g3
((lp6271
g413
atp6272
Rp6273
sS'full_quantize'
p6274
g3
((lp6275
g408
atp6276
Rp6277
sS'row_width'
p6278
g3
((lp6279
g423
atp6280
Rp6281
sS'pa'
p6282
g3
((lp6283
g423
atp6284
Rp6285
sS'num_unknowns'
p6286
g3
((lp6287
g423
ag408
atp6288
Rp6289
sS'function'
p6290
g3
((lp6291
g408
atp6292
Rp6293
sS'png_write_image_8bit'
p6294
g3
((lp6295
g418
atp6296
Rp6297
sS'png_gamma_threshold'
p6298
g3
((lp6299
g418
atp6300
Rp6301
sS'histogram'
p6302
g3
((lp6303
g408
atp6304
Rp6305
sS'png_set_compression_strategy'
p6306
g3
((lp6307
g418
atp6308
Rp6309
sS'hi'
p6310
g3
((lp6311
g423
atp6312
Rp6313
sS'igamma'
p6314
g3
((lp6315
g423
atp6316
Rp6317
sS'png_do_chop'
p6318
g3
((lp6319
g418
atp6320
Rp6321
sS'buf'
p6322
g3
((lp6323
g423
ag408
atp6324
Rp6325
sS'count'
p6326
g3
((lp6327
g423
ag408
atp6328
Rp6329
sS'png_get_tRNS'
p6330
g3
((lp6331
g418
atp6332
Rp6333
sS'temp'
p6334
g3
((lp6335
g423
atp6336
Rp6337
sS'j'
p6338
g3
((lp6339
g423
atp6340
Rp6341
sS'sp32'
p6342
g3
((lp6343
g423
atp6344
Rp6345
sS'limit'
p6346
g3
((lp6347
g423
atp6348
Rp6349
sS'num_passes'
p6350
g3
((lp6351
g423
atp6352
Rp6353
sS'display'
p6354
g3
((lp6355
g423
ag408
atp6356
Rp6357
sS'z_cinfo'
p6358
g3
((lp6359
g423
atp6360
Rp6361
sS'output_row'
p6362
g3
((lp6363
g423
atp6364
Rp6365
sS'png_gamma_8bit_correct'
p6366
g3
((lp6367
g418
atp6368
Rp6369
sS'png_set_sCAL_fixed'
p6370
g3
((lp6371
g418
atp6372
Rp6373
sS'chunk_list'
p6374
g3
((lp6375
g413
ag408
atp6376
Rp6377
sS'png_free_default'
p6378
g3
((lp6379
g418
atp6380
Rp6381
sS'png_safe_error'
p6382
g3
((lp6383
g418
atp6384
Rp6385
sS'bufsize'
p6386
g3
((lp6387
g408
atp6388
Rp6389
sS'png_set_gAMA_fixed'
p6390
g3
((lp6391
g418
atp6392
Rp6393
sS'png_flush'
p6394
g3
((lp6395
g418
atp6396
Rp6397
sS'png_write_row'
p6398
g3
((lp6399
g418
atp6400
Rp6401
sS'need_expand'
p6402
g3
((lp6403
g408
atp6404
Rp6405
sS'png_destroy_write_struct'
p6406
g3
((lp6407
g418
atp6408
Rp6409
sS'zlib_text_strategy'
p6410
g3
((lp6411
g413
atp6412
Rp6413
sS'kerror'
p6414
g3
((lp6415
g423
atp6416
Rp6417
sS'png_handle_iCCP'
p6418
g3
((lp6419
g418
atp6420
Rp6421
sS'tm_mon'
p6422
g3
((lp6423
g413
atp6424
Rp6425
sS'lmins'
p6426
g3
((lp6427
g423
ag408
atp6428
Rp6429
sS'png_set_write_user_transform_fn'
p6430
g3
((lp6431
g418
atp6432
Rp6433
sS'png_do_shift'
p6434
g3
((lp6435
g418
atp6436
Rp6437
sS'png_get_image_width'
p6438
g3
((lp6439
g418
atp6440
Rp6441
sS'png_push_handle_unknown'
p6442
g3
((lp6443
g418
atp6444
Rp6445
sS'png_icc_set_sRGB'
p6446
g3
((lp6447
g418
atp6448
Rp6449
sS'image_memory_flush'
p6450
g3
((lp6451
g418
atp6452
Rp6453
sS'vpAg_units'
p6454
g3
((lp6455
g413
atp6456
Rp6457
sS'params_len'
p6458
g3
((lp6459
g423
atp6460
Rp6461
sS'usr_width'
p6462
g3
((lp6463
g413
atp6464
Rp6465
sS'png_malloc_default'
p6466
g3
((lp6467
g418
atp6468
Rp6469
sS'found_dots'
p6470
g3
((lp6471
g423
atp6472
Rp6473
sS'space'
p6474
g3
((lp6475
g423
atp6476
Rp6477
sS'png_get_gAMA'
p6478
g3
((lp6479
g418
atp6480
Rp6481
sS'IDAT_read_size'
p6482
g3
((lp6483
g413
atp6484
Rp6485
sS'png_deflate_claim'
p6486
g3
((lp6487
g418
atp6488
Rp6489
ssS'static_attribute'
p6490
g2
(g3
tp6491
Rp6492
S'comment'
p6493
g3
((lp6494
S'comment_token'
p6495
atp6496
Rp6497
sS'predecessor'
p6498
g3
((lp6499
S'has_parent'
p6500
atp6501
Rp6502
sS'target application'
p6503
g3
((lp6504
S'PROBLEM_DOMAIN'
p6505
atp6506
Rp6507
sS'defined'
p6508
g3
((lp6509
S'is_defined_file'
p6510
atp6511
Rp6512
sS'parameter types'
p6513
g3
((lp6514
S'param_type'
p6515
atp6516
Rp6517
sS'address'
p6518
g3
((lp6519
S'address'
p6520
atp6521
Rp6522
sS'defined in'
p6523
g3
((lp6524
g6510
atp6525
Rp6526
sS'primitive data type'
p6527
g3
((lp6528
S'type'
p6529
atp6530
Rp6531
sS'used'
p6532
g3
((lp6533
S'isRead_file_line'
p6534
aS'is_called_file'
p6535
atp6536
Rp6537
sS'file'
p6538
g3
((lp6539
S'file'
p6540
atp6541
Rp6542
sS'descendant'
p6543
g3
((lp6544
S'has_child'
p6545
atp6546
Rp6547
sS'pointer'
p6548
g3
((lp6549
S'is_pointer'
p6550
atp6551
Rp6552
sS'id'
p6553
g3
((lp6554
S'id'
p6555
atp6556
Rp6557
sS'size'
p6558
g3
((lp6559
S'size'
p6560
atp6561
Rp6562
sS'child class'
p6563
g3
((lp6564
S'is_subclass_of'
p6565
atp6566
Rp6567
sS'application specific'
p6568
g3
((lp6569
g6505
atp6570
Rp6571
sS'invoked'
p6572
g3
((lp6573
g6535
atp6574
Rp6575
sS'display_name'
p6576
g3
((lp6577
S'display_name'
p6578
atp6579
Rp6580
sS'belongs to'
p6581
g3
((lp6582
g6510
atp6583
Rp6584
sS'parent function'
p6585
g3
((lp6586
g6500
atp6587
Rp6588
sS'friend of'
p6589
g3
((lp6590
S'is_friend_of'
p6591
atp6592
Rp6593
sS'called in'
p6594
g3
((lp6595
g6535
atp6596
Rp6597
sS'task specific'
p6598
g3
((lp6599
g6505
atp6600
Rp6601
sS'subclass'
p6602
g3
((lp6603
g6565
atp6604
Rp6605
sS'access_specifier'
p6606
g3
((lp6607
S'access_specifier'
p6608
atp6609
Rp6610
sS'access'
p6611
g3
((lp6612
g6534
atp6613
Rp6614
sS'friend function'
p6615
g3
((lp6616
g6591
atp6617
Rp6618
sS'call'
p6619
g3
((lp6620
g6535
atp6621
Rp6622
sS'usr'
p6623
g3
((lp6624
S'usr'
p6625
atp6626
Rp6627
sS'call expression'
p6628
g3
((lp6629
g6535
atp6630
Rp6631
sS'scope'
p6632
g3
((lp6633
S'storage_class'
p6634
atp6635
Rp6636
sS'isDecl'
p6637
g3
((lp6638
S'isDecl'
p6639
atp6640
Rp6641
sS'defined file'
p6642
g3
((lp6643
g6510
atp6644
Rp6645
sS'type'
p6646
g3
((lp6647
S'type'
p6648
atp6649
Rp6650
sS'funcargs'
p6651
g3
((lp6652
S'funcargs'
p6653
atp6654
Rp6655
sS'return value'
p6656
g3
((lp6657
S'return_type'
p6658
atp6659
Rp6660
sS'call location'
p6661
g3
((lp6662
S'isCall_file_line'
p6663
atp6664
Rp6665
sS'lex_parent_id'
p6666
g3
((lp6667
S'lex_parent_id'
p6668
atp6669
Rp6670
sS'return'
p6671
g3
((lp6672
g6658
atp6673
Rp6674
sS'parent'
p6675
g3
((lp6676
g6500
atp6677
Rp6678
sS'primitive type'
p6679
g3
((lp6680
g6529
atp6681
Rp6682
sS'application domain'
p6683
g3
((lp6684
g6505
atp6685
Rp6686
sS'friend class'
p6687
g3
((lp6688
g6591
atp6689
Rp6690
sS'multi inheritance'
p6691
g3
((lp6692
S'multiple_inheritance'
p6693
atp6694
Rp6695
sS'range.end'
p6696
g3
((lp6697
S'range.end'
p6698
atp6699
Rp6700
sS'line'
p6701
g3
((lp6702
S'line'
p6703
atp6704
Rp6705
sS'pointers'
p6706
g3
((lp6707
g6550
atp6708
Rp6709
sS'visibility'
p6710
g3
((lp6711
g6634
atp6712
Rp6713
sS'def_id'
p6714
g3
((lp6715
S'def_id'
p6716
atp6717
Rp6718
sS'linkage_kind'
p6719
g3
((lp6720
S'linkage_kind'
p6721
atp6722
Rp6723
sS'offset'
p6724
g3
((lp6725
S'offset'
p6726
atp6727
Rp6728
sS'data type'
p6729
g3
((lp6730
g6529
atp6731
Rp6732
sS'return_type'
p6733
g3
((lp6734
S'return_type'
p6735
atp6736
Rp6737
sS'present'
p6738
g3
((lp6739
g6510
atp6740
Rp6741
sS'successor'
p6742
g3
((lp6743
g6545
atp6744
Rp6745
sS'spelling'
p6746
g3
((lp6747
S'spelling'
p6748
atp6749
Rp6750
sS'child'
p6751
g3
((lp6752
g6545
atp6753
Rp6754
sS'name'
p6755
g3
((lp6756
S'spelling'
p6757
atp6758
Rp6759
sS'linkage_name'
p6760
g3
((lp6761
S'linkage_name'
p6762
atp6763
Rp6764
sS'datatype'
p6765
g3
((lp6766
g6529
atp6767
Rp6768
sS'range.start'
p6769
g3
((lp6770
S'range.start'
p6771
atp6772
Rp6773
sS'return type'
p6774
g3
((lp6775
g6658
atp6776
Rp6777
sS'called'
p6778
g3
((lp6779
g6535
atp6780
Rp6781
sS'isDef'
p6782
g3
((lp6783
S'isDef'
p6784
atp6785
Rp6786
sS'arrays'
p6787
g3
((lp6788
S'is_array'
p6789
atp6790
Rp6791
sS'storage_class'
p6792
g3
((lp6793
S'storage_class'
p6794
atp6795
Rp6796
sS'storage class'
p6797
g3
((lp6798
g6634
atp6799
Rp6800
sS'signature'
p6801
g3
((lp6802
g6529
atp6803
Rp6804
sS'accessed'
p6805
g3
((lp6806
g6534
ag6535
atp6807
Rp6808
sS'abstract type'
p6809
g3
((lp6810
g6529
atp6811
Rp6812
sS'col'
p6813
g3
((lp6814
S'col'
p6815
atp6816
Rp6817
sS'application task'
p6818
g3
((lp6819
g6505
atp6820
Rp6821
ssS'dynamic_attribute'
p6822
g2
(g3
tp6823
Rp6824
S'CALLERNAME'
p6825
g3
((lp6826
g6825
atp6827
Rp6828
sS'synchronous'
p6829
g3
((lp6830
S'SYNCS'
p6831
atp6832
Rp6833
sS'write count'
p6834
g3
((lp6835
S'WRITECOUNT'
p6836
atp6837
Rp6838
sS'thread id'
p6839
g3
((lp6840
S'THREADID'
p6841
atp6842
Rp6843
sg6572
g3
((lp6844
S'CALLEENAME'
p6845
atp6846
Rp6847
sS'thread number'
p6848
g3
((lp6849
g6841
atp6850
Rp6851
sS'write'
p6852
g3
((lp6853
g6836
aS'NONLOCALWRITE'
p6854
atp6855
Rp6856
sS'written'
p6857
g3
((lp6858
g6836
ag6854
atp6859
Rp6860
sS'invoker'
p6861
g3
((lp6862
g6825
atp6863
Rp6864
sS'thread access'
p6865
g3
((lp6866
g6841
atp6867
Rp6868
sS'updated'
p6869
g3
((lp6870
g6836
ag6854
atp6871
Rp6872
sg6845
g3
((lp6873
g6845
atp6874
Rp6875
sS'thread-id'
p6876
g3
((lp6877
g6841
atp6878
Rp6879
sS'read'
p6880
g3
((lp6881
S'READCOUNT'
p6882
aS'NONLOCALREAD'
p6883
atp6884
Rp6885
sS'child function'
p6886
g3
((lp6887
g6845
atp6888
Rp6889
sS'update'
p6890
g3
((lp6891
g6836
ag6854
atp6892
Rp6893
sS'read-write'
p6894
g3
((lp6895
g6882
ag6836
ag6883
ag6854
atp6896
Rp6897
sS'read write'
p6898
g3
((lp6899
g6882
ag6836
ag6883
ag6854
atp6900
Rp6901
sS'threads'
p6902
g3
((lp6903
g6841
atp6904
Rp6905
sS'thread'
p6906
g3
((lp6907
g6841
atp6908
Rp6909
sS'caller'
p6910
g3
((lp6911
g6825
atp6912
Rp6913
sS'return value'
p6914
g3
((lp6915
S'RETVAL'
p6916
atp6917
Rp6918
sS'read count'
p6919
g3
((lp6920
g6882
atp6921
Rp6922
sS'callee'
p6923
g3
((lp6924
g6845
atp6925
Rp6926
sg6778
g3
((lp6927
g6845
atp6928
Rp6929
ssS'values'
p6930
g2
(g3
tp6931
Rp6932
S'const png_uint_16 [256]'
p6933
g3
((lp6934
S'type'
p6935
atp6936
Rp6937
sS'png_XYZ'
p6938
g3
((lp6939
S'type'
p6940
atp6941
Rp6942
sS'png_uint_32 (png_const_structrp, png_inforp, png_bytep *)'
p6943
g3
((lp6944
S'type'
p6945
atp6946
Rp6947
sS'const png_xy *'
p6948
g3
((lp6949
S'type'
p6950
atp6951
Rp6952
sS'int (png_const_structrp, png_colorspacerp, png_const_charp, png_uint_32, png_const_bytep, int)'
p6953
g3
((lp6954
S'type'
p6955
atp6956
Rp6957
sS'unsigned int (png_bytep, unsigned int, png_const_bytep, int)'
p6958
g3
((lp6959
S'type'
p6960
atp6961
Rp6962
sS'void (png_structp)'
p6963
g3
((lp6964
S'type'
p6965
atp6966
Rp6967
sS'void (png_structrp, int, png_const_charp, png_const_charp, png_const_charp, png_const_charp)'
p6968
g3
((lp6969
S'type'
p6970
atp6971
Rp6972
sS'voidpf'
p6973
g3
((lp6974
S'return_type'
p6975
aS'type'
p6976
atp6977
Rp6978
sS'png_row_info'
p6979
g3
((lp6980
S'type'
p6981
atp6982
Rp6983
sS'void (png_structrp, png_bytep, png_bytep)'
p6984
g3
((lp6985
S'type'
p6986
atp6987
Rp6988
sS'char [24]'
p6989
g3
((lp6990
S'type'
p6991
atp6992
Rp6993
sS'void (png_image_read_control *, png_uint_32, png_uint_32, png_uint_32, png_uint_32, png_uint_32, int)'
p6994
g3
((lp6995
S'type'
p6996
atp6997
Rp6998
sS'void (png_structrp, png_FILE_p)'
p6999
g3
((lp7000
S'type'
p7001
atp7002
Rp7003
sS'voidp'
p7004
g3
((lp7005
S'type'
p7006
atp7007
Rp7008
sS'uLong'
p7009
g3
((lp7010
S'type'
p7011
atp7012
Rp7013
sS'int *'
p7014
g3
((lp7015
S'type'
p7016
atp7017
Rp7018
sS'int (png_voidp)'
p7019
g3
((lp7020
S'type'
p7021
atp7022
Rp7023
sS'png_alloc_size_t *'
p7024
g3
((lp7025
S'type'
p7026
atp7027
Rp7028
sS'const char *'
p7029
g3
((lp7030
S'type'
p7031
atp7032
Rp7033
sS'png_uint_32 (png_const_structrp, png_const_inforp, double *, double *, double *, double *, double *, double *, double *, double *, double *)'
p7034
g3
((lp7035
S'type'
p7036
atp7037
Rp7038
sS'png_uint_16p *'
p7039
g3
((lp7040
S'type'
p7041
atp7042
Rp7043
sS'png_fixed_point (png_const_structrp, png_const_inforp)'
p7044
g3
((lp7045
S'type'
p7046
atp7047
Rp7048
sS'png_const_voidp'
p7049
g3
((lp7050
S'type'
p7051
atp7052
Rp7053
sS'void (png_const_structrp, png_inforp, png_uint_32, png_bytep)'
p7054
g3
((lp7055
S'type'
p7056
atp7057
Rp7058
sS'void'
p7059
g3
((lp7060
S'return_type'
p7061
atp7062
Rp7063
sS'png_uint_32 (png_const_structrp, png_inforp, png_charpp, int *, png_bytepp, png_uint_32 *)'
p7064
g3
((lp7065
S'type'
p7066
atp7067
Rp7068
sS'void (png_structrp, size_t)'
p7069
g3
((lp7070
S'type'
p7071
atp7072
Rp7073
sS'png_user_chunk_ptr'
p7074
g3
((lp7075
S'type'
p7076
atp7077
Rp7078
sS'void (png_structrp, int, int, png_const_fixed_point_p, png_const_fixed_point_p)'
p7079
g3
((lp7080
S'type'
p7081
atp7082
Rp7083
sS'struct png_sPLT_struct'
p7084
g3
((lp7085
S'type'
p7086
atp7087
Rp7088
sS'void (png_structrp, int, png_fixed_point)'
p7089
g3
((lp7090
S'type'
p7091
atp7092
Rp7093
sS'void (png_structrp, png_row_infop, png_bytep, png_const_bytep, int)'
p7094
g3
((lp7095
S'type'
p7096
atp7097
Rp7098
sS'void (png_imagep)'
p7099
g3
((lp7100
S'type'
p7101
atp7102
Rp7103
sS'void (png_const_structrp, png_inforp, png_const_timep)'
p7104
g3
((lp7105
S'type'
p7106
atp7107
Rp7108
sS'struct png_sPLT_entry_struct'
p7109
g3
((lp7110
S'type'
p7111
atp7112
Rp7113
sS'int [2]'
p7114
g3
((lp7115
S'type'
p7116
atp7117
Rp7118
sS'png_byte [4]'
p7119
g3
((lp7120
S'type'
p7121
atp7122
Rp7123
sS'png_uint_32 (png_const_structrp, png_const_bytep)'
p7124
g3
((lp7125
S'type'
p7126
atp7127
Rp7128
sS'int (png_const_charp, size_t)'
p7129
g3
((lp7130
S'type'
p7131
atp7132
Rp7133
sS'int (png_const_structrp, png_colorspacerp, const png_xy *, int)'
p7134
g3
((lp7135
S'type'
p7136
atp7137
Rp7138
sS'png_const_inforp'
p7139
g3
((lp7140
S'type'
p7141
atp7142
Rp7143
sS'void (png_row_infop, png_bytep, png_uint_32, png_uint_32)'
p7144
g3
((lp7145
S'type'
p7146
atp7147
Rp7148
sS'png_uint_32 (png_const_structrp, png_const_inforp, int *, double *, double *)'
p7149
g3
((lp7150
S'type'
p7151
atp7152
Rp7153
sS'png_fixed_point (png_fixed_point, png_fixed_point)'
p7154
g3
((lp7155
S'type'
p7156
atp7157
Rp7158
sS'void (png_const_structrp, char (*)[32], png_const_charp)'
p7159
g3
((lp7160
S'type'
p7161
atp7162
Rp7163
sS'void (png_structrp, png_const_inforp, unsigned int)'
p7164
g3
((lp7165
S'type'
p7166
atp7167
Rp7168
sS'const png_byte [30]'
p7169
g3
((lp7170
S'type'
p7171
atp7172
Rp7173
sS'png_structpp'
p7174
g3
((lp7175
S'type'
p7176
atp7177
Rp7178
sS'int (png_imagep, FILE *, int, const void *, png_int_32, const void *)'
p7179
g3
((lp7180
S'type'
p7181
atp7182
Rp7183
sS'png_uint_16 (unsigned int, png_fixed_point)'
p7184
g3
((lp7185
S'type'
p7186
atp7187
Rp7188
sS'png_controlp'
p7189
g3
((lp7190
S'type'
p7191
atp7192
Rp7193
sS'const char [12][4]'
p7194
g3
((lp7195
S'type'
p7196
atp7197
Rp7198
sS'int (png_const_structrp, png_colorspacerp, const png_xy *, const png_XYZ *, int)'
p7199
g3
((lp7200
S'type'
p7201
atp7202
Rp7203
sS'void (png_structrp, png_voidp, png_rw_ptr)'
p7204
g3
((lp7205
S'type'
p7206
atp7207
Rp7208
sS'const png_XYZ'
p7209
g3
((lp7210
S'type'
p7211
atp7212
Rp7213
sS'void (png_structrp, png_inforp, png_uint_32, int)'
p7214
g3
((lp7215
S'type'
p7216
atp7217
Rp7218
sS'void (png_structrp, png_const_color_8p)'
p7219
g3
((lp7220
S'type'
p7221
atp7222
Rp7223
sS'void (png_const_structrp, png_inforp, png_const_charp, int, png_const_bytep, png_uint_32)'
p7224
g3
((lp7225
S'type'
p7226
atp7227
Rp7228
sS'png_uint_16pp'
p7229
g3
((lp7230
S'type'
p7231
atp7232
Rp7233
sS'void (png_structp, png_bytep, size_t)'
p7234
g3
((lp7235
S'type'
p7236
atp7237
Rp7238
sS'void (png_const_structrp, png_inforp, int, png_const_charp, png_const_charp)'
p7239
g3
((lp7240
S'type'
p7241
atp7242
Rp7243
sS'void (png_structrp, png_uint_32, size_t)'
p7244
g3
((lp7245
S'type'
p7246
atp7247
Rp7248
sS'int (png_alloc_size_t)'
p7249
g3
((lp7250
S'type'
p7251
atp7252
Rp7253
sS'png_byte *'
p7254
g3
((lp7255
S'type'
p7256
atp7257
Rp7258
sS'struct png_color_8_struct'
p7259
g3
((lp7260
S'type'
p7261
atp7262
Rp7263
sS'void (png_structrp, png_user_transform_ptr)'
p7264
g3
((lp7265
S'type'
p7266
atp7267
Rp7268
sS'png_control'
p7269
g3
((lp7270
S'type'
p7271
atp7272
Rp7273
sS'void (png_const_structrp, png_inforp, png_const_textp, int)'
p7274
g3
((lp7275
S'type'
p7276
atp7277
Rp7278
sS'int (png_XYZ *)'
p7279
g3
((lp7280
S'type'
p7281
atp7282
Rp7283
sS'struct png_text_struct'
p7284
g3
((lp7285
S'type'
p7286
atp7287
Rp7288
sS'void (png_structrp, png_int_32, png_int_32, int)'
p7289
g3
((lp7290
S'type'
p7291
atp7292
Rp7293
sS'png_infop (png_const_structrp)'
p7294
g3
((lp7295
S'type'
p7296
atp7297
Rp7298
sS'void (png_structrp, png_inforp, png_const_bytep, int, png_const_color_16p)'
p7299
g3
((lp7300
S'type'
p7301
atp7302
Rp7303
sS'char (png_uint_32)'
p7304
g3
((lp7305
S'type'
p7306
atp7307
Rp7308
sS'png_byte [81]'
p7309
g3
((lp7310
S'type'
p7311
atp7312
Rp7313
sS'void (png_structpp, png_infopp)'
p7314
g3
((lp7315
S'type'
p7316
atp7317
Rp7318
sS'int (png_const_charp, size_t, int *, png_size_tp)'
p7319
g3
((lp7320
S'type'
p7321
atp7322
Rp7323
sS'png_error_ptr'
p7324
g3
((lp7325
S'type'
p7326
atp7327
Rp7328
sS'size_t (png_charp, size_t, size_t, png_const_charp)'
p7329
g3
((lp7330
S'type'
p7331
atp7332
Rp7333
sS'png_byte [7]'
p7334
g3
((lp7335
S'type'
p7336
atp7337
Rp7338
sS'void (png_structrp, png_bytep, png_uint_32)'
p7339
g3
((lp7340
S'type'
p7341
atp7342
Rp7343
sS'const char [17]'
p7344
g3
((lp7345
S'type'
p7346
atp7347
Rp7348
sS'void (char *, png_uint_32)'
p7349
g3
((lp7350
S'type'
p7351
atp7352
Rp7353
sS'size_t (png_const_structrp)'
p7354
g3
((lp7355
S'type'
p7356
atp7357
Rp7358
sS'void (png_const_structrp, png_bytep, png_const_bytep)'
p7359
g3
((lp7360
S'type'
p7361
atp7362
Rp7363
sS'png_const_timep'
p7364
g3
((lp7365
S'type'
p7366
atp7367
Rp7368
sS'void (png_const_structrp, png_const_charp) __attribute__((noreturn))'
p7369
g3
((lp7370
S'type'
p7371
atp7372
Rp7373
sS'void (png_structrp, png_bytep, int)'
p7374
g3
((lp7375
S'type'
p7376
atp7377
Rp7378
sS'void (png_structrp, png_uint_32, png_const_bytep, size_t)'
p7379
g3
((lp7380
S'type'
p7381
atp7382
Rp7383
sS'png_byte (unsigned int, png_fixed_point)'
p7384
g3
((lp7385
S'type'
p7386
atp7387
Rp7388
sS'int (png_imagep, png_const_colorp, void *, png_int_32, void *)'
p7389
g3
((lp7390
S'type'
p7391
atp7392
Rp7393
sS'int (png_struct *, png_unknown_chunkp)'
p7394
g3
((lp7395
S'type'
p7396
atp7397
Rp7398
sS'png_uint_32 (png_const_structrp, png_inforp, png_uint_16p *)'
p7399
g3
((lp7400
S'type'
p7401
atp7402
Rp7403
sS'void (png_structrp, png_const_charp, png_const_charp, size_t)'
p7404
g3
((lp7405
S'type'
p7406
atp7407
Rp7408
sS'png_byte [9]'
p7409
g3
((lp7410
S'type'
p7411
atp7412
Rp7413
sS'char [5]'
p7414
g3
((lp7415
S'type'
p7416
atp7417
Rp7418
sS'void (png_structrp, compression_state *)'
p7419
g3
((lp7420
S'type'
p7421
atp7422
Rp7423
sS'png_fixed_point (png_structrp, png_const_bytep)'
p7424
g3
((lp7425
S'type'
p7426
atp7427
Rp7428
sS'png_timep'
p7429
g3
((lp7430
S'type'
p7431
atp7432
Rp7433
sS'png_infop'
p7434
g3
((lp7435
S'return_type'
p7436
aS'type'
p7437
atp7438
Rp7439
sS'void (png_bytep, png_int_32)'
p7440
g3
((lp7441
S'type'
p7442
atp7443
Rp7444
sS'int (png_structrp, png_uint_32, compression_state *, png_uint_32)'
p7445
g3
((lp7446
S'type'
p7447
atp7448
Rp7449
sS'int (png_XYZ *, const png_xy *)'
p7450
g3
((lp7451
S'type'
p7452
atp7453
Rp7454
sS'volatile png_imagep'
p7455
g3
((lp7456
S'type'
p7457
atp7458
Rp7459
sS'void (png_row_infop, png_bytep, png_const_color_8p)'
p7460
g3
((lp7461
S'type'
p7462
atp7463
Rp7464
sS'void (png_structp, png_const_charp) __attribute__((noreturn))'
p7465
g3
((lp7466
S'type'
p7467
atp7468
Rp7469
sS'png_user_transform_ptr'
p7470
g3
((lp7471
S'type'
p7472
atp7473
Rp7474
sS'char [128]'
p7475
g3
((lp7476
S'type'
p7477
atp7478
Rp7479
sS'void (png_const_structrp, png_inforp)'
p7480
g3
((lp7481
S'type'
p7482
atp7483
Rp7484
sS'void (png_row_infop, png_bytep, png_const_color_16p)'
p7485
g3
((lp7486
S'type'
p7487
atp7488
Rp7489
sS'png_uint_16'
p7490
g3
((lp7491
S'return_type'
p7492
aS'type'
p7493
atp7494
Rp7495
sS'int (png_const_structrp, png_inforp, png_unknown_chunkpp)'
p7496
g3
((lp7497
S'type'
p7498
atp7499
Rp7500
sS'void (png_const_structrp, png_inforp, png_const_uint_16p)'
p7501
g3
((lp7502
S'type'
p7503
atp7504
Rp7505
sS'png_timep *'
p7506
g3
((lp7507
S'type'
p7508
atp7509
Rp7510
sS'png_uint_32 (png_const_structrp, png_const_inforp, int *)'
p7511
g3
((lp7512
S'type'
p7513
atp7514
Rp7515
sS'png_const_doublep'
p7516
g3
((lp7517
S'type'
p7518
atp7519
Rp7520
sS'png_fixed_point_p'
p7521
g3
((lp7522
S'type'
p7523
atp7524
Rp7525
sS'size_t (png_const_structrp, png_const_inforp)'
p7526
g3
((lp7527
S'type'
p7528
atp7529
Rp7530
sS'int (png_const_structrp, png_inforp, png_sPLT_tpp)'
p7531
g3
((lp7532
S'type'
p7533
atp7534
Rp7535
sS'void (png_structrp, png_const_color_16p, int, int, png_fixed_point)'
p7536
g3
((lp7537
S'type'
p7538
atp7539
Rp7540
sS'time_t'
p7541
g3
((lp7542
S'type'
p7543
atp7544
Rp7545
sS'void (png_const_structrp, png_inforp, int, png_fixed_point, png_fixed_point)'
p7546
g3
((lp7547
S'type'
p7548
atp7549
Rp7550
sS'png_inforp'
p7551
g3
((lp7552
S'type'
p7553
atp7554
Rp7555
sS'png_byte (png_const_structrp, png_const_inforp)'
p7556
g3
((lp7557
S'type'
p7558
atp7559
Rp7560
sS'int (png_imagep, FILE *)'
p7561
g3
((lp7562
S'type'
p7563
atp7564
Rp7565
sS'png_structp (png_const_charp, png_voidp, png_error_ptr, png_error_ptr)'
p7566
g3
((lp7567
S'type'
p7568
atp7569
Rp7570
sS'int (png_xy *, const png_XYZ *)'
p7571
g3
((lp7572
S'type'
p7573
atp7574
Rp7575
sS'char [18]'
p7576
g3
((lp7577
S'type'
p7578
atp7579
Rp7580
sS'void (png_const_structrp, png_voidp)'
p7581
g3
((lp7582
S'type'
p7583
atp7584
Rp7585
sS'png_textp'
p7586
g3
((lp7587
S'type'
p7588
atp7589
Rp7590
sS'void (png_structrp, png_const_timep)'
p7591
g3
((lp7592
S'type'
p7593
atp7594
Rp7595
sS'__m128i (__m128i)'
p7596
g3
((lp7597
S'type'
p7598
atp7599
Rp7600
sS'int (png_const_structrp, png_colorspacerp, int)'
p7601
g3
((lp7602
S'type'
p7603
atp7604
Rp7605
sS'const png_byte [256]'
p7606
g3
((lp7607
S'type'
p7608
atp7609
Rp7610
sS'double *'
p7611
g3
((lp7612
S'type'
p7613
atp7614
Rp7615
sS'png_byte [1024]'
p7616
g3
((lp7617
S'type'
p7618
atp7619
Rp7620
sS'void (png_structrp, png_const_sPLT_tp)'
p7621
g3
((lp7622
S'type'
p7623
atp7624
Rp7625
sS'void (png_const_structrp, png_const_charp, int)'
p7626
g3
((lp7627
S'type'
p7628
atp7629
Rp7630
sS'char *'
p7631
g3
((lp7632
S'type'
p7633
atp7634
Rp7635
sS'void (png_structrp, int, png_fixed_point, png_fixed_point)'
p7636
g3
((lp7637
S'type'
p7638
atp7639
Rp7640
sS'struct png_colorspace'
p7641
g3
((lp7642
S'type'
p7643
atp7644
Rp7645
sS'png_uint_32 (void)'
p7646
g3
((lp7647
S'type'
p7648
atp7649
Rp7650
sS'size_t'
p7651
g3
((lp7652
S'return_type'
p7653
aS'type'
p7654
atp7655
Rp7656
sS'png_color'
p7657
g3
((lp7658
S'type'
p7659
atp7660
Rp7661
sS'int (size_t, size_t)'
p7662
g3
((lp7663
S'type'
p7664
atp7665
Rp7666
sS'struct png_dsort_struct'
p7667
g3
((lp7668
S'type'
p7669
atp7670
Rp7671
sS'void (char (*)[32], int, int, png_int_32)'
p7672
g3
((lp7673
S'type'
p7674
atp7675
Rp7676
sS'void (png_structrp, png_bytep, size_t)'
p7677
g3
((lp7678
S'type'
p7679
atp7680
Rp7681
sS'png_fixed_point'
p7682
g3
((lp7683
S'return_type'
p7684
aS'type'
p7685
atp7686
Rp7687
sS'const void *'
p7688
g3
((lp7689
S'type'
p7690
atp7691
Rp7692
sS'png_text'
p7693
g3
((lp7694
S'type'
p7695
atp7696
Rp7697
sS'png_int_32 *'
p7698
g3
((lp7699
S'type'
p7700
atp7701
Rp7702
sS'const png_byte [7]'
p7703
g3
((lp7704
S'type'
p7705
atp7706
Rp7707
sS'png_voidp (png_const_structrp, png_const_voidp, int, int, size_t)'
p7708
g3
((lp7709
S'type'
p7710
atp7711
Rp7712
sS'png_colorspace'
p7713
g3
((lp7714
S'type'
p7715
atp7716
Rp7717
sS'png_byte [3]'
p7718
g3
((lp7719
S'type'
p7720
atp7721
Rp7722
sS'png_bytep (png_structrp, png_alloc_size_t, int)'
p7723
g3
((lp7724
S'type'
p7725
atp7726
Rp7727
sS'png_free_ptr'
p7728
g3
((lp7729
S'type'
p7730
atp7731
Rp7732
sS'png_dsortpp'
p7733
g3
((lp7734
S'type'
p7735
atp7736
Rp7737
sS'png_uint_32 (png_const_structrp, png_const_inforp, png_uint_32 *, png_bytep *)'
p7738
g3
((lp7739
S'type'
p7740
atp7741
Rp7742
sS'png_unknown_chunk'
p7743
g3
((lp7744
S'type'
p7745
atp7746
Rp7747
sS'png_const_charp'
p7748
g3
((lp7749
S'return_type'
p7750
aS'type'
p7751
atp7752
Rp7753
sS'int (png_const_structrp, png_const_bytep, uLong)'
p7754
g3
((lp7755
S'type'
p7756
atp7757
Rp7758
sS'png_FILE_p'
p7759
g3
((lp7760
S'type'
p7761
atp7762
Rp7763
sS'png_alloc_size_t (png_structrp)'
p7764
g3
((lp7765
S'type'
p7766
atp7767
Rp7768
sS'const png_byte [12]'
p7769
g3
((lp7770
S'type'
p7771
atp7772
Rp7773
sS'void (png_const_structrp, png_inforp, double)'
p7774
g3
((lp7775
S'type'
p7776
atp7777
Rp7778
sS'png_xy'
p7779
g3
((lp7780
S'type'
p7781
atp7782
Rp7783
sS'png_compression_bufferp *'
p7784
g3
((lp7785
S'type'
p7786
atp7787
Rp7788
sS'int (png_const_structrp, png_colorspacerp, png_const_charp, png_uint_32, png_const_bytep)'
p7789
g3
((lp7790
S'type'
p7791
atp7792
Rp7793
sS'void (png_const_structrp, png_inforp, double, double, double, double, double, double, double, double)'
p7794
g3
((lp7795
S'type'
p7796
atp7797
Rp7798
sS'void (png_structrp, png_uint_32, png_uint_32, int, int, int, int, int)'
p7799
g3
((lp7800
S'type'
p7801
atp7802
Rp7803
sS'void (png_const_structrp, png_charp, size_t, double, unsigned int)'
p7804
g3
((lp7805
S'type'
p7806
atp7807
Rp7808
sS'void (png_structrp, png_const_bytep)'
p7809
g3
((lp7810
S'type'
p7811
atp7812
Rp7813
sS'png_fixed_point (png_const_structrp, png_fixed_point, png_int_32, png_int_32)'
p7814
g3
((lp7815
S'type'
p7816
atp7817
Rp7818
sS'void (png_row_infop, png_bytep, png_const_bytep, png_const_bytep)'
p7819
g3
((lp7820
S'type'
p7821
atp7822
Rp7823
sS'void (png_const_infop)'
p7824
g3
((lp7825
S'type'
p7826
atp7827
Rp7828
sS'const png_uint_16 [512]'
p7829
g3
((lp7830
S'type'
p7831
atp7832
Rp7833
sS'png_const_structrp'
p7834
g3
((lp7835
S'type'
p7836
atp7837
Rp7838
sS'png_uint_32 (png_const_structrp, png_const_inforp, png_int_32 *, png_int_32 *, int *)'
p7839
g3
((lp7840
S'type'
p7841
atp7842
Rp7843
sS'static'
p7844
g3
((lp7845
S'storage_class'
p7846
atp7847
Rp7848
sS'void (png_structrp, png_uint_32)'
p7849
g3
((lp7850
S'type'
p7851
atp7852
Rp7853
sS'void (png_structrp, png_colorp, int, int, png_const_uint_16p, int)'
p7854
g3
((lp7855
S'type'
p7856
atp7857
Rp7858
sS'size_t (png_structrp, int)'
p7859
g3
((lp7860
S'type'
p7861
atp7862
Rp7863
sS'int (png_fixed_point_p, png_fixed_point, png_int_32, png_int_32)'
p7864
g3
((lp7865
S'type'
p7866
atp7867
Rp7868
sS'void (png_const_structrp, png_inforp, png_uint_32, int)'
p7869
g3
((lp7870
S'type'
p7871
atp7872
Rp7873
sS'png_byte [8]'
p7874
g3
((lp7875
S'type'
p7876
atp7877
Rp7878
sS'void (png_structrp, int, double)'
p7879
g3
((lp7880
S'type'
p7881
atp7882
Rp7883
sS'void (png_const_structrp, png_inforp, int, double, double)'
p7884
g3
((lp7885
S'type'
p7886
atp7887
Rp7888
sS'uInt'
p7889
g3
((lp7890
S'type'
p7891
atp7892
Rp7893
sS'struct png_color_struct'
p7894
g3
((lp7895
S'type'
p7896
atp7897
Rp7898
sS'char [64]'
p7899
g3
((lp7900
S'type'
p7901
atp7902
Rp7903
sS'png_uint_32 (png_const_structrp, png_const_inforp, png_fixed_point *)'
p7904
g3
((lp7905
S'type'
p7906
atp7907
Rp7908
sS'int (png_const_structrp, png_colorspacerp, png_const_charp, png_alloc_size_t, png_const_charp)'
p7909
g3
((lp7910
S'type'
p7911
atp7912
Rp7913
sS'int (png_structrp, png_uint_32, png_alloc_size_t)'
p7914
g3
((lp7915
S'type'
p7916
atp7917
Rp7918
sS'void (png_const_structrp, png_inforp, png_fixed_point)'
p7919
g3
((lp7920
S'type'
p7921
atp7922
Rp7923
sS'png_uint_32 (png_const_structrp, png_const_inforp, double *, double *, double *, double *, double *, double *, double *, double *)'
p7924
g3
((lp7925
S'type'
p7926
atp7927
Rp7928
sS'png_struct'
p7929
g3
((lp7930
S'type'
p7931
atp7932
Rp7933
sS'png_byte [32]'
p7934
g3
((lp7935
S'type'
p7936
atp7937
Rp7938
sS'png_uint_32 (png_const_structrp, png_const_inforp, png_fixed_point *, png_fixed_point *, png_fixed_point *, png_fixed_point *, png_fixed_point *, png_fixed_point *, png_fixed_point *, png_fixed_point *, png_fixed_point *)'
p7939
g3
((lp7940
S'type'
p7941
atp7942
Rp7943
sS'int (png_structrp, png_row_infop, png_bytep)'
p7944
g3
((lp7945
S'type'
p7946
atp7947
Rp7948
sS'png_uint_32 (png_const_bytep)'
p7949
g3
((lp7950
S'type'
p7951
atp7952
Rp7953
sS'void (png_structp, png_textp, int)'
p7954
g3
((lp7955
S'type'
p7956
atp7957
Rp7958
sS'png_fixed_point (png_structrp, png_fixed_point, int)'
p7959
g3
((lp7960
S'type'
p7961
atp7962
Rp7963
sS'void (png_structrp, png_write_status_ptr)'
p7964
g3
((lp7965
S'type'
p7966
atp7967
Rp7968
sS'unsigned int'
p7969
g3
((lp7970
S'return_type'
p7971
aS'type'
p7972
atp7973
Rp7974
sS'int (png_fixed_point)'
p7975
g3
((lp7976
S'type'
p7977
atp7978
Rp7979
sS'void (png_row_infop, png_bytep, int, png_uint_32)'
p7980
g3
((lp7981
S'type'
p7982
atp7983
Rp7984
sS'const png_byte [90]'
p7985
g3
((lp7986
S'type'
p7987
atp7988
Rp7989
sS'png_progressive_info_ptr'
p7990
g3
((lp7991
S'type'
p7992
atp7993
Rp7994
sS'png_charp (png_const_charp, png_charp, int, png_alloc_size_t)'
p7995
g3
((lp7996
S'type'
p7997
atp7998
Rp7999
sS'void (png_timep, time_t)'
p8000
g3
((lp8001
S'type'
p8002
atp8003
Rp8004
sS'void (png_const_structrp, png_inforp, png_const_color_8p)'
p8005
g3
((lp8006
S'type'
p8007
atp8008
Rp8009
sS'int (*)(png_voidp)'
p8010
g3
((lp8011
S'type'
p8012
atp8013
Rp8014
sS'png_progressive_row_ptr'
p8015
g3
((lp8016
S'type'
p8017
atp8018
Rp8019
sS'png_uint_16p'
p8020
g3
((lp8021
S'type'
p8022
atp8023
Rp8024
sS'struct user_chunk_data'
p8025
g3
((lp8026
S'type'
p8027
atp8028
Rp8029
sS'png_charpp'
p8030
g3
((lp8031
S'type'
p8032
atp8033
Rp8034
sS'png_bytepp (png_const_structrp, png_const_inforp)'
p8035
g3
((lp8036
S'type'
p8037
atp8038
Rp8039
sS'png_const_unknown_chunkp'
p8040
g3
((lp8041
S'type'
p8042
atp8043
Rp8044
sS'void (png_structrp, png_const_inforp)'
p8045
g3
((lp8046
S'type'
p8047
atp8048
Rp8049
sS'png_malloc_ptr'
p8050
g3
((lp8051
S'type'
p8052
atp8053
Rp8054
sS'png_const_structp'
p8055
g3
((lp8056
S'type'
p8057
atp8058
Rp8059
sS'void (png_structrp, png_const_charp, png_const_bytep)'
p8060
g3
((lp8061
S'type'
p8062
atp8063
Rp8064
sS'int (png_structrp, png_uint_32)'
p8065
g3
((lp8066
S'type'
p8067
atp8068
Rp8069
sS'png_image_write_control *'
p8070
g3
((lp8071
S'type'
p8072
atp8073
Rp8074
sS'int (char *, png_const_timep)'
p8075
g3
((lp8076
S'type'
p8077
atp8078
Rp8079
sS'png_sPLT_tp'
p8080
g3
((lp8081
S'type'
p8082
atp8083
Rp8084
sS'png_uint_32 (png_const_structrp, png_const_inforp, int *, png_charpp, png_charpp)'
p8085
g3
((lp8086
S'type'
p8087
atp8088
Rp8089
sS'struct png_info_def'
p8090
g3
((lp8091
S'type'
p8092
atp8093
Rp8094
sS'png_size_tp'
p8095
g3
((lp8096
S'type'
p8097
atp8098
Rp8099
sS'void (png_structrp, png_const_charp, png_const_charp, int)'
p8100
g3
((lp8101
S'type'
p8102
atp8103
Rp8104
sS'char [192]'
p8105
g3
((lp8106
S'type'
p8107
atp8108
Rp8109
sS'int (png_structrp, png_bytep, uInt, png_uint_32p, png_bytep, png_alloc_size_t *, int)'
p8110
g3
((lp8111
S'type'
p8112
atp8113
Rp8114
sS'size_t (png_structrp, png_uint_32, size_t, size_t)'
p8115
g3
((lp8116
S'type'
p8117
atp8118
Rp8119
sS'png_int_32 (png_const_bytep)'
p8120
g3
((lp8121
S'type'
p8122
atp8123
Rp8124
sS'void (png_structrp, png_inforp, png_const_colorp, int)'
p8125
g3
((lp8126
S'type'
p8127
atp8128
Rp8129
sS'int (png_const_structrp, png_colorspacerp, const png_XYZ *, int)'
p8130
g3
((lp8131
S'type'
p8132
atp8133
Rp8134
sS'void (png_structrp, int)'
p8135
g3
((lp8136
S'type'
p8137
atp8138
Rp8139
sS'png_image_write_control'
p8140
g3
((lp8141
S'type'
p8142
atp8143
Rp8144
sS'void (png_structrp, int, int, png_const_doublep, png_const_doublep)'
p8145
g3
((lp8146
S'type'
p8147
atp8148
Rp8149
sS'void (png_structrp, png_bytepp, png_uint_32)'
p8150
g3
((lp8151
S'type'
p8152
atp8153
Rp8154
sS'void (png_const_structrp, png_inforp, png_const_unknown_chunkp, int)'
p8155
g3
((lp8156
S'type'
p8157
atp8158
Rp8159
sS'png_const_fixed_point_p'
p8160
g3
((lp8161
S'type'
p8162
atp8163
Rp8164
sS'png_uint_16 (png_structrp, unsigned int, png_fixed_point)'
p8165
g3
((lp8166
S'type'
p8167
atp8168
Rp8169
sS'double'
p8170
g3
((lp8171
S'return_type'
p8172
aS'type'
p8173
atp8174
Rp8175
sS'void (png_structrp, png_bytepp, png_bytepp, png_uint_32)'
p8176
g3
((lp8177
S'type'
p8178
atp8179
Rp8180
sS'void (png_structrp, png_row_infop, png_bytep, png_const_colorp, png_const_bytep, int)'
p8181
g3
((lp8182
S'type'
p8183
atp8184
Rp8185
sS'png_color_16p *'
p8186
g3
((lp8187
S'type'
p8188
atp8189
Rp8190
sS'__m128i'
p8191
g3
((lp8192
S'return_type'
p8193
aS'type'
p8194
atp8195
Rp8196
sS'void (char (*)[32], int, int, png_alloc_size_t)'
p8197
g3
((lp8198
S'type'
p8199
atp8200
Rp8201
sS'png_const_bytep (png_const_structrp, png_const_inforp)'
p8202
g3
((lp8203
S'type'
p8204
atp8205
Rp8206
sS'void (png_const_structrp, png_inforp, png_fixed_point, png_fixed_point, png_fixed_point, png_fixed_point, png_fixed_point, png_fixed_point, png_fixed_point, png_fixed_point, png_fixed_point)'
p8207
g3
((lp8208
S'type'
p8209
atp8210
Rp8211
sS'png_uint_32 [4]'
p8212
g3
((lp8213
S'type'
p8214
atp8215
Rp8216
sS'png_uint_32 (png_structrp)'
p8217
g3
((lp8218
S'type'
p8219
atp8220
Rp8221
sS'void (png_structrp, png_bytepp, png_fixed_point)'
p8222
g3
((lp8223
S'type'
p8224
atp8225
Rp8226
sS'png_textp *'
p8227
g3
((lp8228
S'type'
p8229
atp8230
Rp8231
sS'void (png_structrp, png_voidp, png_progressive_info_ptr, png_progressive_row_ptr, png_progressive_end_ptr)'
p8232
g3
((lp8233
S'type'
p8234
atp8235
Rp8236
sS'png_unknown_chunkp'
p8237
g3
((lp8238
S'type'
p8239
atp8240
Rp8241
sS'int (png_const_structrp, png_const_bytep)'
p8242
g3
((lp8243
S'type'
p8244
atp8245
Rp8246
sS'struct png_xy'
p8247
g3
((lp8248
S'type'
p8249
atp8250
Rp8251
sS'void (png_structrp, int, int)'
p8252
g3
((lp8253
S'type'
p8254
atp8255
Rp8256
sS'void (png_const_structrp, png_const_charp)'
p8257
g3
((lp8258
S'type'
p8259
atp8260
Rp8261
sS'void (png_image_write_control *)'
p8262
g3
((lp8263
S'type'
p8264
atp8265
Rp8266
sS'void (png_const_structrp, png_charp, size_t, png_fixed_point)'
p8267
g3
((lp8268
S'type'
p8269
atp8270
Rp8271
sS'void (png_structrp, png_const_color_16p, int, int, double)'
p8272
g3
((lp8273
S'type'
p8274
atp8275
Rp8276
sS'void (png_const_structrp, png_inforp, double, double, double, double, double, double, double, double, double)'
p8277
g3
((lp8278
S'type'
p8279
atp8280
Rp8281
sS'void (int, png_colorp)'
p8282
g3
((lp8283
S'type'
p8284
atp8285
Rp8286
sS'void (png_const_structrp, png_inforp, int)'
p8287
g3
((lp8288
S'type'
p8289
atp8290
Rp8291
sS'int (const char *, const char *)'
p8292
g3
((lp8293
S'type'
p8294
atp8295
Rp8296
sS'const png_xy'
p8297
g3
((lp8298
S'type'
p8299
atp8300
Rp8301
sS'png_alloc_size_t *restrict'
p8302
g3
((lp8303
S'type'
p8304
atp8305
Rp8306
sS'png_const_color_16p'
p8307
g3
((lp8308
S'type'
p8309
atp8310
Rp8311
sS'void (png_row_infop, png_bytep, png_const_bytep)'
p8312
g3
((lp8313
S'type'
p8314
atp8315
Rp8316
sS'void (png_const_structrp, png_inforp, png_bytepp)'
p8317
g3
((lp8318
S'type'
p8319
atp8320
Rp8321
sS'png_byte [80]'
p8322
g3
((lp8323
S'type'
p8324
atp8325
Rp8326
sS'void (png_structrp, png_voidp, png_rw_ptr, png_flush_ptr)'
p8327
g3
((lp8328
S'type'
p8329
atp8330
Rp8331
sS'void (png_const_structrp, png_inforp, png_int_32, png_int_32, int)'
p8332
g3
((lp8333
S'type'
p8334
atp8335
Rp8336
sS'png_byte [6]'
p8337
g3
((lp8338
S'type'
p8339
atp8340
Rp8341
sS'void (png_structrp, int, png_const_charp, png_const_charp)'
p8342
g3
((lp8343
S'type'
p8344
atp8345
Rp8346
sS'char [29]'
p8347
g3
((lp8348
S'type'
p8349
atp8350
Rp8351
sS'int (png_structrp, png_uint_32, int, png_const_bytep, png_uint_32p, png_bytep, png_alloc_size_t *)'
p8352
g3
((lp8353
S'type'
p8354
atp8355
Rp8356
sS'png_color_8p *'
p8357
g3
((lp8358
S'type'
p8359
atp8360
Rp8361
sS'int (png_imagep, png_const_voidp, size_t)'
p8362
g3
((lp8363
S'type'
p8364
atp8365
Rp8366
sS'void (png_const_structrp, png_inforp, png_fixed_point, png_fixed_point, png_fixed_point, png_fixed_point, png_fixed_point, png_fixed_point, png_fixed_point, png_fixed_point)'
p8367
g3
((lp8368
S'type'
p8369
atp8370
Rp8371
sS'png_image_read_control *'
p8372
g3
((lp8373
S'type'
p8374
atp8375
Rp8376
sS'struct png_compression_buffer'
p8377
g3
((lp8378
S'type'
p8379
atp8380
Rp8381
sS'png_color_16'
p8382
g3
((lp8383
S'type'
p8384
atp8385
Rp8386
sS'int (png_imagep, int (*)(png_voidp), png_voidp)'
p8387
g3
((lp8388
S'type'
p8389
atp8390
Rp8391
sS'void (png_bytep, png_alloc_size_t)'
p8392
g3
((lp8393
S'type'
p8394
atp8395
Rp8396
sS'int (png_image_read_control *)'
p8397
g3
((lp8398
S'type'
p8399
atp8400
Rp8401
sS'int (png_fixed_point, png_fixed_point)'
p8402
g3
((lp8403
S'type'
p8404
atp8405
Rp8406
sS'png_time'
p8407
g3
((lp8408
S'type'
p8409
atp8410
Rp8411
sS'void (png_structrp, png_inforp)'
p8412
g3
((lp8413
S'type'
p8414
atp8415
Rp8416
sS'__m128i (const void *)'
p8417
g3
((lp8418
S'type'
p8419
atp8420
Rp8421
sS'Public'
p8422
g3
((lp8423
S'access_specifier'
p8424
atp8425
Rp8426
sS'jmp_buf *'
p8427
g3
((lp8428
S'return_type'
p8429
aS'type'
p8430
atp8431
Rp8432
sS'png_image_read_control'
p8433
g3
((lp8434
S'type'
p8435
atp8436
Rp8437
sS'void (png_const_structrp, png_uint_32, png_uint_32, int, int, int, int, int)'
p8438
g3
((lp8439
S'type'
p8440
atp8441
Rp8442
sS'int (png_imagep, void *, png_alloc_size_t *restrict, int, const void *, png_int_32, const void *)'
p8443
g3
((lp8444
S'type'
p8445
atp8446
Rp8447
sS'png_const_infop'
p8448
g3
((lp8449
S'type'
p8450
atp8451
Rp8452
sS'void (png_const_structrp, png_uint_32)'
p8453
g3
((lp8454
S'type'
p8455
atp8456
Rp8457
sS'struct (anonymous at /data/user-home/srijoni/spandan/MTPSMARTKT/utopia/smartKT/projects/libpng/png.c:2245:14)'
p8458
g3
((lp8459
S'type'
p8460
atp8461
Rp8462
sS'png_byte (png_const_structrp, int)'
p8463
g3
((lp8464
S'type'
p8465
atp8466
Rp8467
sS'png_rw_ptr'
p8468
g3
((lp8469
S'type'
p8470
atp8471
Rp8472
sS'void (png_structrp, png_const_bytep, png_const_color_16p, int, int)'
p8473
g3
((lp8474
S'type'
p8475
atp8476
Rp8477
sS'void (png_const_structrp, png_colorspacerp, png_const_bytep, uLong)'
p8478
g3
((lp8479
S'type'
p8480
atp8481
Rp8482
sS'void (png_structrp, const png_xy *)'
p8483
g3
((lp8484
S'type'
p8485
atp8486
Rp8487
sS'void (png_structrp, double, double)'
p8488
g3
((lp8489
S'type'
p8490
atp8491
Rp8492
sS'png_bytepp'
p8493
g3
((lp8494
S'return_type'
p8495
aS'type'
p8496
atp8497
Rp8498
sS'void (png_structrp, int, double, double)'
p8499
g3
((lp8500
S'type'
p8501
atp8502
Rp8503
sS'int (const png_xy *, const png_xy *, int)'
p8504
g3
((lp8505
S'type'
p8506
atp8507
Rp8508
sS'png_voidp'
p8509
g3
((lp8510
S'return_type'
p8511
aS'type'
p8512
atp8513
Rp8514
sS'size_t (png_structrp, size_t, size_t)'
p8515
g3
((lp8516
S'type'
p8517
atp8518
Rp8519
sS'png_uint_32 (png_const_structrp, png_inforp, png_charp *, png_int_32 *, png_int_32 *, int *, int *, png_charp *, png_charpp *)'
p8520
g3
((lp8521
S'type'
p8522
atp8523
Rp8524
sS'void (png_row_infop, png_bytep)'
p8525
g3
((lp8526
S'type'
p8527
atp8528
Rp8529
sS'void (png_structrp, png_bytepp)'
p8530
g3
((lp8531
S'type'
p8532
atp8533
Rp8534
sS'png_uint_32 (png_const_structrp)'
p8535
g3
((lp8536
S'type'
p8537
atp8538
Rp8539
sS'png_colorspacerp'
p8540
g3
((lp8541
S'type'
p8542
atp8543
Rp8544
sS'png_color_8p'
p8545
g3
((lp8546
S'type'
p8547
atp8548
Rp8549
sS'int (png_imagep, const char *)'
p8550
g3
((lp8551
S'type'
p8552
atp8553
Rp8554
sS'compression_state *'
p8555
g3
((lp8556
S'type'
p8557
atp8558
Rp8559
sS'void (png_const_structrp, png_charp, png_const_charp)'
p8560
g3
((lp8561
S'type'
p8562
atp8563
Rp8564
sS'Byte [132]'
p8565
g3
((lp8566
S'type'
p8567
atp8568
Rp8569
sS'void (png_structrp, png_inforp, png_bytep, size_t)'
p8570
g3
((lp8571
S'type'
p8572
atp8573
Rp8574
sS'png_byte'
p8575
g3
((lp8576
S'return_type'
p8577
aS'type'
p8578
atp8579
Rp8580
sS'struct png_compression_buffer *'
p8581
g3
((lp8582
S'type'
p8583
atp8584
Rp8585
sS'png_read_status_ptr'
p8586
g3
((lp8587
S'type'
p8588
atp8589
Rp8590
sS'int (png_const_bytep, size_t, size_t)'
p8591
g3
((lp8592
S'type'
p8593
atp8594
Rp8595
sS'png_const_color_8p'
p8596
g3
((lp8597
S'type'
p8598
atp8599
Rp8600
sS'png_structp (png_const_charp, png_voidp, png_error_ptr, png_error_ptr, png_voidp, png_malloc_ptr, png_free_ptr)'
p8601
g3
((lp8602
S'type'
p8603
atp8604
Rp8605
sS'void (png_structrp, png_inforp, int, png_voidp)'
p8606
g3
((lp8607
S'type'
p8608
atp8609
Rp8610
sS'png_alloc_size_t'
p8611
g3
((lp8612
S'return_type'
p8613
aS'type'
p8614
atp8615
Rp8616
sS'void (png_const_structrp, png_bytep, int)'
p8617
g3
((lp8618
S'type'
p8619
atp8620
Rp8621
sS'double (int)'
p8622
g3
((lp8623
S'type'
p8624
atp8625
Rp8626
sS'void (png_structp, png_const_charp)'
p8627
g3
((lp8628
S'type'
p8629
atp8630
Rp8631
sS'void (png_structrp, png_uint_32, png_uint_32)'
p8632
g3
((lp8633
S'type'
p8634
atp8635
Rp8636
sS'png_const_colorp'
p8637
g3
((lp8638
S'type'
p8639
atp8640
Rp8641
sS'void (png_const_structrp, png_inforp, png_bytep)'
p8642
g3
((lp8643
S'type'
p8644
atp8645
Rp8646
sS'int (png_structrp, int)'
p8647
g3
((lp8648
S'type'
p8649
atp8650
Rp8651
sS'png_compression_bufferp'
p8652
g3
((lp8653
S'type'
p8654
atp8655
Rp8656
sS'void (png_structp, png_row_infop, png_bytep)'
p8657
g3
((lp8658
S'type'
p8659
atp8660
Rp8661
sS'jmp_buf'
p8662
g3
((lp8663
S'type'
p8664
atp8665
Rp8666
sS'png_charp'
p8667
g3
((lp8668
S'return_type'
p8669
aS'type'
p8670
atp8671
Rp8672
sS'png_byte [10]'
p8673
g3
((lp8674
S'type'
p8675
atp8676
Rp8677
sS'void (png_structrp, png_row_infop)'
p8678
g3
((lp8679
S'type'
p8680
atp8681
Rp8682
sS'void (png_structrp, png_voidp, png_error_ptr, png_error_ptr)'
p8683
g3
((lp8684
S'type'
p8685
atp8686
Rp8687
sS'png_uint_32 (png_const_structrp, png_inforp, png_color_8p *)'
p8688
g3
((lp8689
S'type'
p8690
atp8691
Rp8692
sS'int [4]'
p8693
g3
((lp8694
S'type'
p8695
atp8696
Rp8697
sS'void (png_structrp, png_charp, png_int_32, png_int_32, int, int, png_const_charp, png_charpp)'
p8698
g3
((lp8699
S'type'
p8700
atp8701
Rp8702
sS'void (png_infopp, size_t)'
p8703
g3
((lp8704
S'type'
p8705
atp8706
Rp8707
sS'void (png_structp, int)'
p8708
g3
((lp8709
S'type'
p8710
atp8711
Rp8712
sS'void (png_structrp, png_bytep)'
p8713
g3
((lp8714
S'type'
p8715
atp8716
Rp8717
sS'png_byte [2]'
p8718
g3
((lp8719
S'type'
p8720
atp8721
Rp8722
sS'const unsigned int [7]'
p8723
g3
((lp8724
S'type'
p8725
atp8726
Rp8727
sS'png_colorp'
p8728
g3
((lp8729
S'type'
p8730
atp8731
Rp8732
sS'png_uint_32 (png_const_structrp, png_inforp, png_colorp *, int *)'
p8733
g3
((lp8734
S'type'
p8735
atp8736
Rp8737
sS'void (png_row_infop, png_bytep, png_uint_32)'
p8738
g3
((lp8739
S'type'
p8740
atp8741
Rp8742
sS'png_progressive_end_ptr'
p8743
g3
((lp8744
S'type'
p8745
atp8746
Rp8747
sS'void (png_const_structrp, png_inforp, png_uint_32, png_uint_32, int)'
p8748
g3
((lp8749
S'type'
p8750
atp8751
Rp8752
sS'void (png_structp, png_uint_32, int)'
p8753
g3
((lp8754
S'type'
p8755
atp8756
Rp8757
sS'png_XYZ *'
p8758
g3
((lp8759
S'type'
p8760
atp8761
Rp8762
sS'png_structrp'
p8763
g3
((lp8764
S'type'
p8765
atp8766
Rp8767
sS'png_charpp *'
p8768
g3
((lp8769
S'type'
p8770
atp8771
Rp8772
sS'void (png_row_infop, png_bytep, png_structrp)'
p8773
g3
((lp8774
S'type'
p8775
atp8776
Rp8777
sS'const Bytef *'
p8778
g3
((lp8779
S'type'
p8780
atp8781
Rp8782
sS'void (png_image_read_control *)'
p8783
g3
((lp8784
S'type'
p8785
atp8786
Rp8787
sS'Byte [1024]'
p8788
g3
((lp8789
S'type'
p8790
atp8791
Rp8792
sS'png_struct *'
p8793
g3
((lp8794
S'type'
p8795
atp8796
Rp8797
sS'void (png_structrp, png_const_bytep, size_t)'
p8798
g3
((lp8799
S'type'
p8800
atp8801
Rp8802
sS'struct png_dsort_struct *'
p8803
g3
((lp8804
S'type'
p8805
atp8806
Rp8807
sS'png_infopp'
p8808
g3
((lp8809
S'type'
p8810
atp8811
Rp8812
sS'png_uint_32 (png_const_structrp, png_inforp, png_timep *)'
p8813
g3
((lp8814
S'type'
p8815
atp8816
Rp8817
sS'png_uint_32 (png_const_structrp, png_const_inforp)'
p8818
g3
((lp8819
S'type'
p8820
atp8821
Rp8822
sS'png_row_infop'
p8823
g3
((lp8824
S'type'
p8825
atp8826
Rp8827
sS'png_const_sPLT_tp'
p8828
g3
((lp8829
S'type'
p8830
atp8831
Rp8832
sS'FILE *'
p8833
g3
((lp8834
S'type'
p8835
atp8836
Rp8837
sS'void (char (*)[32], int, png_const_charp)'
p8838
g3
((lp8839
S'type'
p8840
atp8841
Rp8842
sS'void (png_structrp, png_const_colorp, png_uint_32)'
p8843
g3
((lp8844
S'type'
p8845
atp8846
Rp8847
sS'int (png_structrp, int, int)'
p8848
g3
((lp8849
S'type'
p8850
atp8851
Rp8852
sS'char [256]'
p8853
g3
((lp8854
S'type'
p8855
atp8856
Rp8857
sS'png_warning_parameters'
p8858
g3
((lp8859
S'type'
p8860
atp8861
Rp8862
sS'png_int_32 (png_const_structrp, png_const_inforp)'
p8863
g3
((lp8864
S'type'
p8865
atp8866
Rp8867
sS'char [214]'
p8868
g3
((lp8869
S'type'
p8870
atp8871
Rp8872
sS'void (png_const_structrp, png_inforp, int, int)'
p8873
g3
((lp8874
S'type'
p8875
atp8876
Rp8877
sS'void (png_bytep, png_uint_32)'
p8878
g3
((lp8879
S'type'
p8880
atp8881
Rp8882
sS'int (png_imagep, png_const_charp)'
p8883
g3
((lp8884
S'type'
p8885
atp8886
Rp8887
sS'void (void *, __m128i)'
p8888
g3
((lp8889
S'type'
p8890
atp8891
Rp8892
sS'png_fixed_point (png_structrp, double)'
p8893
g3
((lp8894
S'type'
p8895
atp8896
Rp8897
sS'__m128i (__m128i, __m128i, __m128i)'
p8898
g3
((lp8899
S'type'
p8900
atp8901
Rp8902
sS'char [196]'
p8903
g3
((lp8904
S'type'
p8905
atp8906
Rp8907
sS'png_sPLT_entryp'
p8908
g3
((lp8909
S'type'
p8910
atp8911
Rp8912
sS'png_voidp (png_const_structrp, png_alloc_size_t)'
p8913
g3
((lp8914
S'type'
p8915
atp8916
Rp8917
sS'png_uint_32 (png_const_structrp, png_inforp, png_bytep *, int *, png_color_16p *)'
p8918
g3
((lp8919
S'type'
p8920
atp8921
Rp8922
sS'png_voidp (png_const_structrp)'
p8923
g3
((lp8924
S'type'
p8925
atp8926
Rp8927
sS'png_const_uint_16pp'
p8928
g3
((lp8929
S'type'
p8930
atp8931
Rp8932
sS'Bytef *'
p8933
g3
((lp8934
S'type'
p8935
atp8936
Rp8937
sS'void (png_const_structrp, png_inforp, png_const_sPLT_tp, int)'
p8938
g3
((lp8939
S'type'
p8940
atp8941
Rp8942
sS'png_byte [5]'
p8943
g3
((lp8944
S'type'
p8945
atp8946
Rp8947
sS'const __m128i'
p8948
g3
((lp8949
S'type'
p8950
atp8951
Rp8952
sS'png_uint_32 (png_const_structrp, png_const_inforp, png_uint_32)'
p8953
g3
((lp8954
S'type'
p8955
atp8956
Rp8957
sS'png_fixed_point (png_const_structrp, double, png_const_charp)'
p8958
g3
((lp8959
S'type'
p8960
atp8961
Rp8962
sS'png_uint_16 [256]'
p8963
g3
((lp8964
S'type'
p8965
atp8966
Rp8967
sS'voidpf (voidpf, uInt, uInt)'
p8968
g3
((lp8969
S'type'
p8970
atp8971
Rp8972
sS'png_byte (png_const_structrp)'
p8973
g3
((lp8974
S'type'
p8975
atp8976
Rp8977
sS'png_unknown_chunkpp'
p8978
g3
((lp8979
S'type'
p8980
atp8981
Rp8982
sS'png_const_bytep'
p8983
g3
((lp8984
S'return_type'
p8985
aS'type'
p8986
atp8987
Rp8988
sS'int (png_const_structrp, png_colorspacerp, png_const_charp, png_uint_32)'
p8989
g3
((lp8990
S'type'
p8991
atp8992
Rp8993
sS'png_const_uint_16p'
p8994
g3
((lp8995
S'type'
p8996
atp8997
Rp8998
sS'const png_uint_32 [2][3][3]'
p8999
g3
((lp9000
S'type'
p9001
atp9002
Rp9003
sS'void (png_const_structrp, int) __attribute__((noreturn))'
p9004
g3
((lp9005
S'type'
p9006
atp9007
Rp9008
sS'extern'
p9009
g3
((lp9010
S'storage_class'
p9011
atp9012
Rp9013
sS'png_uint_32 (png_const_structrp, png_const_inforp, png_uint_32 *, png_uint_32 *, int *, int *, int *, int *, int *)'
p9014
g3
((lp9015
S'type'
p9016
atp9017
Rp9018
sS'png_bytep *'
p9019
g3
((lp9020
S'type'
p9021
atp9022
Rp9023
sS'int (png_const_structp, png_const_infop)'
p9024
g3
((lp9025
S'type'
p9026
atp9027
Rp9028
sS'png_int_32'
p9029
g3
((lp9030
S'return_type'
p9031
aS'type'
p9032
atp9033
Rp9034
sS'int (png_const_structrp, png_inforp, png_const_textp, int)'
p9035
g3
((lp9036
S'type'
p9037
atp9038
Rp9039
sS'char *[]'
p9040
g3
((lp9041
S'type'
p9042
atp9043
Rp9044
sS'void (png_const_structrp, png_inforp, png_uint_32, png_uint_32, int, int, int, int, int)'
p9045
g3
((lp9046
S'type'
p9047
atp9048
Rp9049
sS'struct png_time_struct'
p9050
g3
((lp9051
S'type'
p9052
atp9053
Rp9054
sS'char [81]'
p9055
g3
((lp9056
S'type'
p9057
atp9058
Rp9059
sS'void (png_structrp)'
p9060
g3
((lp9061
S'type'
p9062
atp9063
Rp9064
sS'png_color [256]'
p9065
g3
((lp9066
S'type'
p9067
atp9068
Rp9069
sS'void (png_const_structrp, png_inforp, png_const_color_16p)'
p9070
g3
((lp9071
S'type'
p9072
atp9073
Rp9074
sS'int (png_structrp, png_uint_32, png_uint_32, png_alloc_size_t *, int)'
p9075
g3
((lp9076
S'type'
p9077
atp9078
Rp9079
sS'png_const_textp'
p9080
g3
((lp9081
S'type'
p9082
atp9083
Rp9084
sS'png_uint_32 *'
p9085
g3
((lp9086
S'type'
p9087
atp9088
Rp9089
sS'png_uint_32'
p9090
g3
((lp9091
S'return_type'
p9092
aS'type'
p9093
atp9094
Rp9095
sS'void (png_timep, const struct tm *)'
p9096
g3
((lp9097
S'type'
p9098
atp9099
Rp9100
sS'unsigned int (png_image_read_control *, png_uint_32, int)'
p9101
g3
((lp9102
S'type'
p9103
atp9104
Rp9105
sS'png_uint_32 (png_const_structrp, png_inforp, png_color_16p *)'
p9106
g3
((lp9107
S'type'
p9108
atp9109
Rp9110
sS'void (png_structrp, png_alloc_size_t)'
p9111
g3
((lp9112
S'type'
p9113
atp9114
Rp9115
sS'void (png_structrp, png_const_bytep, png_const_bytep, size_t)'
p9116
g3
((lp9117
S'type'
p9118
atp9119
Rp9120
sS'const struct tm *'
p9121
g3
((lp9122
S'type'
p9123
atp9124
Rp9125
sS'png_imagep'
p9126
g3
((lp9127
S'type'
p9128
atp9129
Rp9130
sS'png_uint_32 (png_const_structrp, png_const_inforp, png_fixed_point *, png_fixed_point *, png_fixed_point *, png_fixed_point *, png_fixed_point *, png_fixed_point *, png_fixed_point *, png_fixed_point *)'
p9131
g3
((lp9132
S'type'
p9133
atp9134
Rp9135
sS'png_structp'
p9136
g3
((lp9137
S'return_type'
p9138
aS'type'
p9139
atp9140
Rp9141
sS'int (png_const_structrp, png_inforp, png_textp *, int *)'
p9142
g3
((lp9143
S'type'
p9144
atp9145
Rp9146
sS'void (compression_state *, png_const_bytep, png_alloc_size_t)'
p9147
g3
((lp9148
S'type'
p9149
atp9150
Rp9151
sS'void (png_structrp, png_const_color_16p, int)'
p9152
g3
((lp9153
S'type'
p9154
atp9155
Rp9156
sS'png_uint_32p'
p9157
g3
((lp9158
S'type'
p9159
atp9160
Rp9161
sS'png_fixed_point *'
p9162
g3
((lp9163
S'type'
p9164
atp9165
Rp9166
sS'png_flush_ptr'
p9167
g3
((lp9168
S'type'
p9169
atp9170
Rp9171
sS'png_const_charp (png_const_structrp)'
p9172
g3
((lp9173
S'type'
p9174
atp9175
Rp9176
sS'void (png_row_infop, png_bytep, int)'
p9177
g3
((lp9178
S'type'
p9179
atp9180
Rp9181
sS'void (png_structrp, png_voidp, png_malloc_ptr, png_free_ptr)'
p9182
g3
((lp9183
S'type'
p9184
atp9185
Rp9186
sS'png_uint_32 (png_structrp, png_uint_32)'
p9187
g3
((lp9188
S'type'
p9189
atp9190
Rp9191
sS'void (png_structrp, png_const_uint_16p, int)'
p9192
g3
((lp9193
S'type'
p9194
atp9195
Rp9196
sS'png_byte (png_uint_32, png_uint_32, png_uint_32)'
p9197
g3
((lp9198
S'type'
p9199
atp9200
Rp9201
sS'int (png_const_structrp, png_uint_32)'
p9202
g3
((lp9203
S'type'
p9204
atp9205
Rp9206
sS'int (png_imagep)'
p9207
g3
((lp9208
S'type'
p9209
atp9210
Rp9211
sS'struct png_unknown_chunk_t'
p9212
g3
((lp9213
S'type'
p9214
atp9215
Rp9216
sS'const png_uint_32 [2][3][6]'
p9217
g3
((lp9218
S'type'
p9219
atp9220
Rp9221
sS'png_uint_32 (png_image_read_control *, png_uint_32, int, png_uint_32, png_uint_32, int)'
p9222
g3
((lp9223
S'type'
p9224
atp9225
Rp9226
sS'png_bytep'
p9227
g3
((lp9228
S'return_type'
p9229
aS'type'
p9230
atp9231
Rp9232
sS'png_uint_16 (png_const_bytep)'
p9233
g3
((lp9234
S'type'
p9235
atp9236
Rp9237
sS'struct png_row_info_struct'
p9238
g3
((lp9239
S'type'
p9240
atp9241
Rp9242
sS'png_byte [1]'
p9243
g3
((lp9244
S'type'
p9245
atp9246
Rp9247
sS'void (png_structrp, png_read_status_ptr)'
p9248
g3
((lp9249
S'type'
p9250
atp9251
Rp9252
sS'void (png_structrp, png_const_bytep, png_uint_32)'
p9253
g3
((lp9254
S'type'
p9255
atp9256
Rp9257
sS'pngtest_error_parameters *'
p9258
g3
((lp9259
S'type'
p9260
atp9261
Rp9262
sS'int (png_structrp, png_const_charp)'
p9263
g3
((lp9264
S'type'
p9265
atp9266
Rp9267
sS'free_func'
p9268
g3
((lp9269
S'type'
p9270
atp9271
Rp9272
sS'z_stream'
p9273
g3
((lp9274
S'type'
p9275
atp9276
Rp9277
sS'void (png_structrp, png_uint_16pp *, unsigned int, png_fixed_point)'
p9278
g3
((lp9279
S'type'
p9280
atp9281
Rp9282
sS'void (png_structrp, int, png_const_bytep, int)'
p9283
g3
((lp9284
S'type'
p9285
atp9286
Rp9287
sS'void (png_structrp, png_voidp, png_user_chunk_ptr)'
p9288
g3
((lp9289
S'type'
p9290
atp9291
Rp9292
sS'void (png_structrp, png_compression_bufferp *)'
p9293
g3
((lp9294
S'type'
p9295
atp9296
Rp9297
sS'png_const_uint_32p'
p9298
g3
((lp9299
S'type'
p9300
atp9301
Rp9302
sS'int (png_structrp)'
p9303
g3
((lp9304
S'type'
p9305
atp9306
Rp9307
sS'png_byte [13]'
p9308
g3
((lp9309
S'type'
p9310
atp9311
Rp9312
sS'png_byte [64]'
p9313
g3
((lp9314
S'type'
p9315
atp9316
Rp9317
sS'int (png_imagep, const char *, int, const void *, png_int_32, const void *)'
p9318
g3
((lp9319
S'type'
p9320
atp9321
Rp9322
sS'void (png_const_structrp, png_infopp)'
p9323
g3
((lp9324
S'type'
p9325
atp9326
Rp9327
sS'struct png_color_16_struct'
p9328
g3
((lp9329
S'type'
p9330
atp9331
Rp9332
sS'float (png_const_structrp, png_const_inforp)'
p9333
g3
((lp9334
S'type'
p9335
atp9336
Rp9337
sS'png_uint_32 (png_uint_32)'
p9338
g3
((lp9339
S'type'
p9340
atp9341
Rp9342
sS'struct user_chunk_data *'
p9343
g3
((lp9344
S'type'
p9345
atp9346
Rp9347
sS'void (png_structrp, png_uint_32, int)'
p9348
g3
((lp9349
S'type'
p9350
atp9351
Rp9352
sS'ptrdiff_t'
p9353
g3
((lp9354
S'type'
p9355
atp9356
Rp9357
sS'void (png_structrp, png_bytep, png_alloc_size_t)'
p9358
g3
((lp9359
S'type'
p9360
atp9361
Rp9362
sS'pngtest_error_parameters'
p9363
g3
((lp9364
S'type'
p9365
atp9366
Rp9367
sS'void (png_structrp, png_fixed_point, png_fixed_point)'
p9368
g3
((lp9369
S'type'
p9370
atp9371
Rp9372
sS'const png_XYZ *'
p9373
g3
((lp9374
S'type'
p9375
atp9376
Rp9377
sS'float'
p9378
g3
((lp9379
S'return_type'
p9380
atp9381
Rp9382
sS'default_auto'
p9383
g3
((lp9384
S'storage_class'
p9385
atp9386
Rp9387
sS'png_sPLT_t'
p9388
g3
((lp9389
S'type'
p9390
atp9391
Rp9392
sS'png_const_charp (png_structrp, png_const_timep)'
p9393
g3
((lp9394
S'type'
p9395
atp9396
Rp9397
sS'char [220]'
p9398
g3
((lp9399
S'type'
p9400
atp9401
Rp9402
sS'int (int, char **)'
p9403
g3
((lp9404
S'type'
p9405
atp9406
Rp9407
sS'void (voidpf, voidpf)'
p9408
g3
((lp9409
S'type'
p9410
atp9411
Rp9412
sS'png_xy *'
p9413
g3
((lp9414
S'type'
p9415
atp9416
Rp9417
sS'png_compression_buffer *'
p9418
g3
((lp9419
S'type'
p9420
atp9421
Rp9422
sS'png_uint_32 (png_const_structrp, png_const_inforp, int *, png_fixed_point *, png_fixed_point *)'
p9423
g3
((lp9424
S'type'
p9425
atp9426
Rp9427
sS'png_uint_16pp *'
p9428
g3
((lp9429
S'type'
p9430
atp9431
Rp9432
sS'png_color_16p'
p9433
g3
((lp9434
S'type'
p9435
atp9436
Rp9437
sS'char [10]'
p9438
g3
((lp9439
S'type'
p9440
atp9441
Rp9442
sS'void (png_bytep, unsigned int)'
p9443
g3
((lp9444
S'type'
p9445
atp9446
Rp9447
sS'png_fixed_point (png_fixed_point)'
p9448
g3
((lp9449
S'type'
p9450
atp9451
Rp9452
sS'png_byte [256]'
p9453
g3
((lp9454
S'type'
p9455
atp9456
Rp9457
sS'png_voidp (png_const_structrp, int, size_t)'
p9458
g3
((lp9459
S'type'
p9460
atp9461
Rp9462
sS'png_charp *'
p9463
g3
((lp9464
S'type'
p9465
atp9466
Rp9467
sS'png_uint_32 (png_structrp, png_const_charp, png_bytep)'
p9468
g3
((lp9469
S'type'
p9470
atp9471
Rp9472
sS'volatile png_voidp'
p9473
g3
((lp9474
S'type'
p9475
atp9476
Rp9477
sS'volatile int'
p9478
g3
((lp9479
S'type'
p9480
atp9481
Rp9482
sS'png_write_status_ptr'
p9483
g3
((lp9484
S'type'
p9485
atp9486
Rp9487
sS'png_byte [82]'
p9488
g3
((lp9489
S'type'
p9490
atp9491
Rp9492
sS'void (png_structrp, png_voidp, int, int)'
p9493
g3
((lp9494
S'type'
p9495
atp9496
Rp9497
sS'png_color_8'
p9498
g3
((lp9499
S'type'
p9500
atp9501
Rp9502
sS'png_fixed_point (png_const_structrp, png_int_32)'
p9503
g3
((lp9504
S'type'
p9505
atp9506
Rp9507
sS'jmp_buf *(png_structrp, png_longjmp_ptr, size_t)'
p9508
g3
((lp9509
S'type'
p9510
atp9511
Rp9512
sS'compression_state'
p9513
g3
((lp9514
S'type'
p9515
atp9516
Rp9517
sS'struct png_XYZ'
p9518
g3
((lp9519
S'type'
p9520
atp9521
Rp9522
sS'int (png_xy *, png_XYZ *)'
p9523
g3
((lp9524
S'type'
p9525
atp9526
Rp9527
sS'void *'
p9528
g3
((lp9529
S'type'
p9530
atp9531
Rp9532
sS'const char [10]'
p9533
g3
((lp9534
S'type'
p9535
atp9536
Rp9537
sS'int (png_structp, struct user_chunk_data *, int)'
p9538
g3
((lp9539
S'type'
p9540
atp9541
Rp9542
sS'png_colorp *'
p9543
g3
((lp9544
S'type'
p9545
atp9546
Rp9547
sS'int'
p9548
g3
((lp9549
S'return_type'
p9550
aS'type'
p9551
atp9552
Rp9553
sS'png_image'
p9554
g3
((lp9555
S'type'
p9556
atp9557
Rp9558
sS'char'
p9559
g3
((lp9560
S'return_type'
p9561
atp9562
Rp9563
sS'png_longjmp_ptr'
p9564
g3
((lp9565
S'type'
p9566
atp9567
Rp9568
sS'void (png_structrp, png_const_bytep, png_alloc_size_t, int)'
p9569
g3
((lp9570
S'type'
p9571
atp9572
Rp9573
sS'png_uint_32 (png_const_structrp, png_const_inforp, double *)'
p9574
g3
((lp9575
S'type'
p9576
atp9577
Rp9578
sS'void (png_structp, unsigned int)'
p9579
g3
((lp9580
S'type'
p9581
atp9582
Rp9583
sS'void (png_const_structrp, png_colorspacerp, png_fixed_point)'
p9584
g3
((lp9585
S'type'
p9586
atp9587
Rp9588
sS'void (png_structrp, png_fixed_point)'
p9589
g3
((lp9590
S'type'
p9591
atp9592
Rp9593
sS'void (png_structrp, png_const_color_8p, int)'
p9594
g3
((lp9595
S'type'
p9596
atp9597
Rp9598
sS'const struct (anonymous struct at /data/user-home/srijoni/spandan/MTPSMARTKT/utopia/smartKT/projects/libpng/png.c:2245:14) [7]'
p9599
g3
((lp9600
S'type'
p9601
atp9602
Rp9603
sS'void (*[4])(png_row_infop, png_bytep, png_const_bytep)'
p9604
g3
((lp9605
S'type'
p9606
atp9607
Rp9608
sS'struct png_control'
p9609
g3
((lp9610
S'type'
p9611
atp9612
Rp9613
sS'const char [16]'
p9614
g3
((lp9615
S'type'
p9616
atp9617
Rp9618
sS'void (png_structrp, png_uint_32, png_uint_32, int)'
p9619
g3
((lp9620
S'type'
p9621
atp9622
Rp9623
sS'const png_byte [512]'
p9624
g3
((lp9625
S'type'
p9626
atp9627
Rp9628
sS'void (png_const_structrp, png_inforp, int, png_uint_32)'
p9629
g3
((lp9630
S'type'
p9631
atp9632
Rp9633
sS'png_uint_32 (png_const_structrp, png_const_inforp, png_uint_32 *, png_uint_32 *, int *)'
p9634
g3
((lp9635
S'type'
p9636
atp9637
Rp9638
sS'png_sPLT_tpp'
p9639
g3
((lp9640
S'type'
p9641
atp9642
Rp9643
sS'png_dsortp'
p9644
g3
((lp9645
S'type'
p9646
atp9647
Rp9648
sS'struct png_struct_def'
p9649
g3
((lp9650
S'type'
p9651
atp9652
Rp9653
sS'struct tm *'
p9654
g3
((lp9655
S'type'
p9656
atp9657
Rp9658
sS'alloc_func'
p9659
g3
((lp9660
S'type'
p9661
atp9662
Rp9663
sS'void (png_structrp, png_inforp, png_uint_32)'
p9664
g3
((lp9665
S'type'
p9666
atp9667
Rp9668
sS'int (png_const_structrp, png_colorspacerp, png_fixed_point, int)'
p9669
g3
((lp9670
S'type'
p9671
atp9672
Rp9673
sS'png_alloc_size_t (png_const_structrp)'
p9674
g3
((lp9675
S'type'
p9676
atp9677
Rp9678
sS'void (png_const_structrp, png_inforp, png_const_charp, png_int_32, png_int_32, int, int, png_const_charp, png_charpp)'
p9679
g3
((lp9680
S'type'
p9681
atp9682
Rp9683
sS'void (png_structpp, png_infopp, png_infopp)'
p9684
g3
((lp9685
S'type'
p9686
atp9687
Rp9688
ssS'common_word'
p9689
g2
(g3
tp9690
Rp9691
S'Functions'
p9692
g3
((lp9693
S'FunctionDecl'
p9694
aS'CXXMethod'
p9695
aS'CXXConstructor'
p9696
atp9697
Rp9698
sS'methods'
p9699
g3
((lp9700
g9694
ag9695
ag9696
atp9701
Rp9702
sS'global variables'
p9703
g3
((lp9704
S'UnionDecl'
p9705
aS'StructDecl'
p9706
aS'VarDecl'
p9707
aS'EnumDecl'
p9708
atp9709
Rp9710
sS'variables'
p9711
g3
((lp9712
g9706
ag9707
aS'ParmDecl'
p9713
ag9708
ag9705
aS'FieldDecl'
p9714
atp9715
Rp9716
sS'constructors'
p9717
g3
((lp9718
g9694
ag9695
ag9696
atp9719
Rp9720
sS'Field'
p9721
g3
((lp9722
g9706
ag9707
ag9713
ag9708
ag9705
ag9714
atp9723
Rp9724
sS'initialiser'
p9725
g3
((lp9726
g9694
ag9695
ag9696
atp9727
Rp9728
sS'Function'
p9729
g3
((lp9730
g9694
ag9695
ag9696
atp9731
Rp9732
sS'functions'
p9733
g3
((lp9734
g9694
ag9695
ag9696
atp9735
Rp9736
sS'parameters'
p9737
g3
((lp9738
g9713
atp9739
Rp9740
sS'instance'
p9741
g3
((lp9742
g9706
ag9707
ag9713
ag9708
ag9705
ag9714
atp9743
Rp9744
sS'destructor'
p9745
g3
((lp9746
g9694
ag9695
ag9696
atp9747
Rp9748
sS'field'
p9749
g3
((lp9750
g9706
ag9707
ag9713
ag9708
ag9705
ag9714
atp9751
Rp9752
sS'datastructure'
p9753
g3
((lp9754
g9706
ag9707
ag9713
ag9708
ag9705
ag9714
atp9755
Rp9756
sS'routine'
p9757
g3
((lp9758
g9694
ag9695
ag9696
atp9759
Rp9760
sS'var'
p9761
g3
((lp9762
g9706
ag9707
ag9713
ag9708
ag9705
ag9714
atp9763
Rp9764
sS'structures'
p9765
g3
((lp9766
g9706
atp9767
Rp9768
sS'method'
p9769
g3
((lp9770
g9694
ag9695
ag9696
atp9771
Rp9772
sS'friend'
p9773
g3
((lp9774
S'FriendDecl'
p9775
atp9776
Rp9777
sS'function'
p9778
g3
((lp9779
g9694
ag9695
ag9696
atp9780
Rp9781
sS'member method'
p9782
g3
((lp9783
g9694
ag9695
ag9696
atp9784
Rp9785
sS'Fields'
p9786
g3
((lp9787
g9706
ag9707
ag9713
ag9708
ag9705
ag9714
atp9788
Rp9789
sS'Variable'
p9790
g3
((lp9791
g9706
ag9707
ag9713
ag9708
ag9705
ag9714
atp9792
Rp9793
sS'func'
p9794
g3
((lp9795
g9694
ag9695
ag9696
atp9796
Rp9797
sS'variable'
p9798
g3
((lp9799
g9706
ag9707
ag9713
ag9708
ag9705
ag9714
atp9800
Rp9801
sS'parameter'
p9802
g3
((lp9803
g9713
atp9804
Rp9805
sS'class'
p9806
g3
((lp9807
S'ClassDecl'
p9808
atp9809
Rp9810
sS'local variables'
p9811
g3
((lp9812
g9714
ag9713
atp9813
Rp9814
sS'fields'
p9815
g3
((lp9816
g9706
ag9707
ag9713
ag9708
ag9705
ag9714
atp9817
Rp9818
sS'Variables'
p9819
g3
((lp9820
g9706
ag9707
ag9713
ag9708
ag9705
ag9714
atp9821
Rp9822
sS'global variable'
p9823
g3
((lp9824
g9705
ag9706
ag9707
ag9708
atp9825
Rp9826
sS'local variable'
p9827
g3
((lp9828
g9714
ag9713
atp9829
Rp9830
sS'item'
p9831
g3
((lp9832
g9706
ag9707
ag9713
ag9708
ag9705
ag9714
atp9833
Rp9834
sS'classes'
p9835
g3
((lp9836
g9808
atp9837
Rp9838
sS'constructor'
p9839
g3
((lp9840
g9694
ag9695
ag9696
atp9841
Rp9842
sS'composite datastructure'
p9843
g3
((lp9844
g9706
ag9707
ag9713
ag9708
ag9705
ag9714
atp9845
Rp9846
sS'computation unit'
p9847
g3
((lp9848
g9694
ag9695
ag9696
atp9849
Rp9850
ss.