(dp0
S'Living'
p1
(dp2
crdflib.term
Literal
p3
(Vfoo.h
p4
NNtp5
Rp6
g3
(V4
p7
Ncrdflib.term
URIRef
p8
(Vhttp://www.w3.org/2001/XMLSchema#integer
p9
tp10
Rp11
tp12
Rp13
ssS'operator='
p14
(dp15
g3
(Vinherit.cpp
p16
NNtp17
Rp18
g3
(V1
p19
Ng11
tp20
Rp21
sg3
(Vfoo.cpp
p22
NNtp23
Rp24
g3
(g19
Ng11
tp25
Rp26
ssS'is'
p27
(dp28
g6
g3
(g7
Ng11
tp29
Rp30
sg24
g3
(g19
Ng11
tp31
Rp32
ssS'thrus'
p33
(dp34
g6
g3
(V2
p35
Ng11
tp36
Rp37
ssS'month'
p38
(dp39
g6
g3
(g35
Ng11
tp40
Rp41
ssS'class Reptile'
p42
(dp43
g6
g3
(g35
Ng11
tp44
Rp45
ssS'ParentClass'
p46
(dp47
g6
g3
(g35
Ng11
tp48
Rp49
sg24
g3
(g19
Ng11
tp50
Rp51
sg18
g3
(g19
Ng11
tp52
Rp53
ssS'class Animal'
p54
(dp55
g6
g3
(g35
Ng11
tp56
Rp57
ssS'Animal'
p58
(dp59
g6
g3
(g7
Ng11
tp60
Rp61
ssS'foo_str'
p62
(dp63
g6
g3
(g35
Ng11
tp64
Rp65
sg24
g3
(g19
Ng11
tp66
Rp67
sg18
g3
(g19
Ng11
tp68
Rp69
ssS'Friend'
p70
(dp71
g6
g3
(V3
p72
Ng11
tp73
Rp74
sg24
g3
(g19
Ng11
tp75
Rp76
ssS'sat'
p77
(dp78
g6
g3
(g35
Ng11
tp79
Rp80
ssS'class ParentClass'
p81
(dp82
g6
g3
(g35
Ng11
tp83
Rp84
ssS'Breathing'
p85
(dp86
g6
g3
(g35
Ng11
tp87
Rp88
ssS'struct'
p89
(dp90
g6
g3
(g35
Ng11
tp91
Rp92
ssS'Parent'
p93
(dp94
g6
g3
(g7
Ng11
tp95
Rp96
sg24
g3
(g19
Ng11
tp97
Rp98
sg18
g3
(g19
Ng11
tp99
Rp100
ssS'wed'
p101
(dp102
g6
g3
(g35
Ng11
tp103
Rp104
ssS'breathCount'
p105
(dp106
g6
g3
(g35
Ng11
tp107
Rp108
ssS'sun'
p109
(dp110
g6
g3
(g35
Ng11
tp111
Rp112
ssS'fri'
p113
(dp114
g6
g3
(g35
Ng11
tp115
Rp116
ssS'Derived'
p117
(dp118
g6
g3
(g35
Ng11
tp119
Rp120
sg24
g3
(g19
Ng11
tp121
Rp122
sg18
g3
(g19
Ng11
tp123
Rp124
ssS'LivingThing'
p125
(dp126
g6
g3
(g7
Ng11
tp127
Rp128
ssS'class'
p129
(dp130
g6
g3
(V8
p131
Ng11
tp132
Rp133
ssS'access'
p134
(dp135
g6
g3
(g72
Ng11
tp136
Rp137
sg24
g3
(g19
Ng11
tp138
Rp139
ssS'do_nothing'
p140
(dp141
g6
g3
(g35
Ng11
tp142
Rp143
ssS'Snake'
p144
(dp145
g6
g3
(g35
Ng11
tp146
Rp147
sg24
g3
(g19
Ng11
tp148
Rp149
sg18
g3
(g19
Ng11
tp150
Rp151
ssS'isBreathing'
p152
(dp153
g6
g3
(g35
Ng11
tp154
Rp155
ssS'main'
p156
(dp157
g18
g3
(g19
Ng11
tp158
Rp159
ssS'Class'
p160
(dp161
g6
g3
(V5
p162
Ng11
tp163
Rp164
sg24
g3
(g35
Ng11
tp165
Rp166
sg18
g3
(g19
Ng11
tp167
Rp168
ssS'breathe'
p169
(dp170
g6
g3
(g7
Ng11
tp171
Rp172
sg24
g3
(g19
Ng11
tp173
Rp174
ssS'do'
p175
(dp176
g6
g3
(g35
Ng11
tp177
Rp178
ssS'isCrawling'
p179
(dp180
g6
g3
(g35
Ng11
tp181
Rp182
sg24
g3
(g19
Ng11
tp183
Rp184
ssS'accessFriendClassGlobal'
p185
(dp186
g6
g3
(g19
Ng11
tp187
Rp188
sg24
g3
(g19
Ng11
tp189
Rp190
ssS'struct foo_str'
p191
(dp192
g6
g3
(g35
Ng11
tp193
Rp194
ssS'I'
p195
(dp196
g6
g3
(g35
Ng11
tp197
Rp198
ssS'accessFriendClass'
p199
(dp200
g6
g3
(g35
Ng11
tp201
Rp202
ssS'M'
p203
(dp204
g6
g3
(g35
Ng11
tp205
Rp206
ssS'Reptile'
p207
(dp208
g6
g3
(g7
Ng11
tp209
Rp210
ssS'Count'
p211
(dp212
g6
g3
(g35
Ng11
tp213
Rp214
ssS'Thing'
p215
(dp216
g6
g3
(g7
Ng11
tp217
Rp218
ssS'mon'
p219
(dp220
g6
g3
(g35
Ng11
tp221
Rp222
ssS'Crawling'
p223
(dp224
g6
g3
(g35
Ng11
tp225
Rp226
sg24
g3
(g19
Ng11
tp227
Rp228
ssS'nothing'
p229
(dp230
g6
g3
(g35
Ng11
tp231
Rp232
ssS'foo'
p233
(dp234
g6
g3
(g72
Ng11
tp235
Rp236
sg24
g3
(g35
Ng11
tp237
Rp238
sg18
g3
(g35
Ng11
tp239
Rp240
ssS'crawl'
p241
(dp242
g6
g3
(g72
Ng11
tp243
Rp244
sg24
g3
(g19
Ng11
tp245
Rp246
sg18
g3
(g19
Ng11
tp247
Rp248
ssS'tue'
p249
(dp250
g6
g3
(g35
Ng11
tp251
Rp252
ssS'a'
p253
(dp254
g18
g3
(g19
Ng11
tp255
Rp256
sg6
g3
(g19
Ng11
tp257
Rp258
ssS'c'
p259
(dp260
g6
g3
(g35
Ng11
tp261
Rp262
ssS'b'
p263
(dp264
g18
g3
(g19
Ng11
tp265
Rp266
sg6
g3
(g19
Ng11
tp267
Rp268
ssS'd'
p269
(dp270
g6
g3
(g35
Ng11
tp271
Rp272
sg18
g3
(g19
Ng11
tp273
Rp274
ssS'f'
p275
(dp276
g6
g3
(g35
Ng11
tp277
Rp278
ssS'i'
p279
(dp280
g6
g3
(g35
Ng11
tp281
Rp282
ssS'class LivingThing'
p283
(dp284
g6
g3
(g35
Ng11
tp285
Rp286
ssS'Global'
p287
(dp288
g6
g3
(g19
Ng11
tp289
Rp290
sg24
g3
(g19
Ng11
tp291
Rp292
ssS'MI'
p293
(dp294
g6
g3
(g35
Ng11
tp295
Rp296
ssS'days'
p297
(dp298
g6
g3
(g35
Ng11
tp299
Rp300
ssS'Class1'
p301
(dp302
g6
g3
(g7
Ng11
tp303
Rp304
sg24
g3
(g19
Ng11
tp305
Rp306
sg18
g3
(g19
Ng11
tp307
Rp308
ssS'breath'
p309
(dp310
g6
g3
(g35
Ng11
tp311
Rp312
ssS'p'
p313
(dp314
g6
g3
(g35
Ng11
tp315
Rp316
sg24
g3
(g19
Ng11
tp317
Rp318
sg18
g3
(g19
Ng11
tp319
Rp320
ssS'ParentClass1'
p321
(dp322
g6
g3
(g35
Ng11
tp323
Rp324
ssS'str'
p325
(dp326
g6
g3
(g35
Ng11
tp327
Rp328
sg24
g3
(g19
Ng11
tp329
Rp330
sg18
g3
(g19
Ng11
tp331
Rp332
ssS'y'
p333
(dp334
g6
g3
(g7
Ng11
tp335
Rp336
sg18
g3
(g19
Ng11
tp337
Rp338
ssS'x'
p339
(dp340
g6
g3
(g131
Ng11
tp341
Rp342
sg24
g3
(g72
Ng11
tp343
Rp344
sg18
g3
(g35
Ng11
tp345
Rp346
ssS'z'
p347
(dp348
g6
g3
(V6
p349
Ng11
tp350
Rp351
ssS'DerivedClass1'
p352
(dp353
g6
g3
(g35
Ng11
tp354
Rp355
sg24
g3
(g19
Ng11
tp356
Rp357
sg18
g3
(g19
Ng11
tp358
Rp359
ssS'hello'
p360
(dp361
g6
g3
(g131
Ng11
tp362
Rp363
sg18
g3
(g72
Ng11
tp364
Rp365
ssS'snake'
p366
(dp367
g18
g3
(g19
Ng11
tp368
Rp369
ss.